ARM GAS  C:\Users\mcfdo\AppData\Local\Temp\cc58ZVDP.s 			page 1


   1              		.syntax unified
   2              		.cpu cortex-m4
   3              		.eabi_attribute 27, 1
   4              		.fpu fpv4-sp-d16
   5              		.eabi_attribute 20, 1
   6              		.eabi_attribute 21, 1
   7              		.eabi_attribute 23, 3
   8              		.eabi_attribute 24, 1
   9              		.eabi_attribute 25, 1
  10              		.eabi_attribute 26, 1
  11              		.eabi_attribute 30, 4
  12              		.eabi_attribute 34, 1
  13              		.eabi_attribute 18, 4
  14              		.thumb
  15              		.syntax unified
  16              		.file	"cy_sysclk.c"
  17              		.text
  18              	.Ltext0:
  19              		.cfi_sections	.debug_frame
  20              		.global	__aeabi_f2d
  21              		.global	__aeabi_d2f
  22              		.section	.text.Cy_SysClk_EcoConfigure,"ax",%progbits
  23              		.align	1
  24              		.global	Cy_SysClk_EcoConfigure
  25              		.thumb
  26              		.thumb_func
  27              		.type	Cy_SysClk_EcoConfigure, %function
  28              	Cy_SysClk_EcoConfigure:
  29              	.LFB245:
  30              		.file 1 "Generated_Source\\PSoC6\\pdl\\drivers\\peripheral\\sysclk\\cy_sysclk.c"
   1:Generated_Source\PSoC6\pdl\drivers\peripheral\sysclk/cy_sysclk.c **** /***************************************************************************//**
   2:Generated_Source\PSoC6\pdl\drivers\peripheral\sysclk/cy_sysclk.c **** * \file cy_sysclk.c
   3:Generated_Source\PSoC6\pdl\drivers\peripheral\sysclk/cy_sysclk.c **** * \version 1.20
   4:Generated_Source\PSoC6\pdl\drivers\peripheral\sysclk/cy_sysclk.c **** *
   5:Generated_Source\PSoC6\pdl\drivers\peripheral\sysclk/cy_sysclk.c **** * Provides an API implementation of the sysclk driver.
   6:Generated_Source\PSoC6\pdl\drivers\peripheral\sysclk/cy_sysclk.c **** *
   7:Generated_Source\PSoC6\pdl\drivers\peripheral\sysclk/cy_sysclk.c **** ********************************************************************************
   8:Generated_Source\PSoC6\pdl\drivers\peripheral\sysclk/cy_sysclk.c **** * \copyright
   9:Generated_Source\PSoC6\pdl\drivers\peripheral\sysclk/cy_sysclk.c **** * Copyright 2016-2018, Cypress Semiconductor Corporation. All rights reserved.
  10:Generated_Source\PSoC6\pdl\drivers\peripheral\sysclk/cy_sysclk.c **** * You may use this file only in accordance with the license, terms, conditions,
  11:Generated_Source\PSoC6\pdl\drivers\peripheral\sysclk/cy_sysclk.c **** * disclaimers, and limitations in the end user license agreement accompanying
  12:Generated_Source\PSoC6\pdl\drivers\peripheral\sysclk/cy_sysclk.c **** * the software package with which this file was provided.
  13:Generated_Source\PSoC6\pdl\drivers\peripheral\sysclk/cy_sysclk.c **** *******************************************************************************/
  14:Generated_Source\PSoC6\pdl\drivers\peripheral\sysclk/cy_sysclk.c **** 
  15:Generated_Source\PSoC6\pdl\drivers\peripheral\sysclk/cy_sysclk.c **** 
  16:Generated_Source\PSoC6\pdl\drivers\peripheral\sysclk/cy_sysclk.c **** #include "cy_sysclk.h"
  17:Generated_Source\PSoC6\pdl\drivers\peripheral\sysclk/cy_sysclk.c **** #include "cy_syslib.h"
  18:Generated_Source\PSoC6\pdl\drivers\peripheral\sysclk/cy_sysclk.c **** #include "cy_ipc_drv.h"
  19:Generated_Source\PSoC6\pdl\drivers\peripheral\sysclk/cy_sysclk.c **** #include "cy_ipc_sema.h"
  20:Generated_Source\PSoC6\pdl\drivers\peripheral\sysclk/cy_sysclk.c **** #include "cy_ipc_pipe.h"
  21:Generated_Source\PSoC6\pdl\drivers\peripheral\sysclk/cy_sysclk.c **** #include <math.h>
  22:Generated_Source\PSoC6\pdl\drivers\peripheral\sysclk/cy_sysclk.c **** #include <stdlib.h>
  23:Generated_Source\PSoC6\pdl\drivers\peripheral\sysclk/cy_sysclk.c **** 
  24:Generated_Source\PSoC6\pdl\drivers\peripheral\sysclk/cy_sysclk.c **** 
  25:Generated_Source\PSoC6\pdl\drivers\peripheral\sysclk/cy_sysclk.c **** /* # of elements in an array */
  26:Generated_Source\PSoC6\pdl\drivers\peripheral\sysclk/cy_sysclk.c **** #define  CY_SYSCLK_N_ELMTS(a)  (sizeof(a) / sizeof((a)[0]))
  27:Generated_Source\PSoC6\pdl\drivers\peripheral\sysclk/cy_sysclk.c **** 
ARM GAS  C:\Users\mcfdo\AppData\Local\Temp\cc58ZVDP.s 			page 2


  28:Generated_Source\PSoC6\pdl\drivers\peripheral\sysclk/cy_sysclk.c **** /* ========================================================================== */
  29:Generated_Source\PSoC6\pdl\drivers\peripheral\sysclk/cy_sysclk.c **** /* ===========================    ECO SECTION    ============================ */
  30:Generated_Source\PSoC6\pdl\drivers\peripheral\sysclk/cy_sysclk.c **** /* ========================================================================== */
  31:Generated_Source\PSoC6\pdl\drivers\peripheral\sysclk/cy_sysclk.c **** /** \cond INTERNAL */
  32:Generated_Source\PSoC6\pdl\drivers\peripheral\sysclk/cy_sysclk.c **** #define CY_SYSCLK_TRIM_ECO_Pos  (SRSS_CLK_TRIM_ECO_CTL_WDTRIM_Pos)
  33:Generated_Source\PSoC6\pdl\drivers\peripheral\sysclk/cy_sysclk.c **** #define CY_SYSCLK_TRIM_ECO_Msk  (SRSS_CLK_TRIM_ECO_CTL_WDTRIM_Msk | \
  34:Generated_Source\PSoC6\pdl\drivers\peripheral\sysclk/cy_sysclk.c ****                                  SRSS_CLK_TRIM_ECO_CTL_ATRIM_Msk  | \
  35:Generated_Source\PSoC6\pdl\drivers\peripheral\sysclk/cy_sysclk.c ****                                  SRSS_CLK_TRIM_ECO_CTL_FTRIM_Msk  | \
  36:Generated_Source\PSoC6\pdl\drivers\peripheral\sysclk/cy_sysclk.c ****                                  SRSS_CLK_TRIM_ECO_CTL_RTRIM_Msk  | \
  37:Generated_Source\PSoC6\pdl\drivers\peripheral\sysclk/cy_sysclk.c ****                                  SRSS_CLK_TRIM_ECO_CTL_GTRIM_Msk)
  38:Generated_Source\PSoC6\pdl\drivers\peripheral\sysclk/cy_sysclk.c **** /** \endcond */
  39:Generated_Source\PSoC6\pdl\drivers\peripheral\sysclk/cy_sysclk.c **** /**
  40:Generated_Source\PSoC6\pdl\drivers\peripheral\sysclk/cy_sysclk.c **** * \addtogroup group_sysclk_eco_funcs
  41:Generated_Source\PSoC6\pdl\drivers\peripheral\sysclk/cy_sysclk.c **** * \{
  42:Generated_Source\PSoC6\pdl\drivers\peripheral\sysclk/cy_sysclk.c **** */
  43:Generated_Source\PSoC6\pdl\drivers\peripheral\sysclk/cy_sysclk.c **** /*******************************************************************************
  44:Generated_Source\PSoC6\pdl\drivers\peripheral\sysclk/cy_sysclk.c **** * Function Name: Cy_SysClk_EcoConfigure
  45:Generated_Source\PSoC6\pdl\drivers\peripheral\sysclk/cy_sysclk.c **** ****************************************************************************//**
  46:Generated_Source\PSoC6\pdl\drivers\peripheral\sysclk/cy_sysclk.c **** *
  47:Generated_Source\PSoC6\pdl\drivers\peripheral\sysclk/cy_sysclk.c **** * Configures the external crystal oscillator (ECO) trim bits based on crystal 
  48:Generated_Source\PSoC6\pdl\drivers\peripheral\sysclk/cy_sysclk.c **** * characteristics. This function should be called only when the ECO is disabled.
  49:Generated_Source\PSoC6\pdl\drivers\peripheral\sysclk/cy_sysclk.c **** *
  50:Generated_Source\PSoC6\pdl\drivers\peripheral\sysclk/cy_sysclk.c **** * \param freq Operating frequency of the crystal in Hz.
  51:Generated_Source\PSoC6\pdl\drivers\peripheral\sysclk/cy_sysclk.c **** *
  52:Generated_Source\PSoC6\pdl\drivers\peripheral\sysclk/cy_sysclk.c **** * \param cLoad Crystal load capacitance in pF.
  53:Generated_Source\PSoC6\pdl\drivers\peripheral\sysclk/cy_sysclk.c **** *
  54:Generated_Source\PSoC6\pdl\drivers\peripheral\sysclk/cy_sysclk.c **** * \param esr Effective series resistance of the crystal in ohms.
  55:Generated_Source\PSoC6\pdl\drivers\peripheral\sysclk/cy_sysclk.c **** *
  56:Generated_Source\PSoC6\pdl\drivers\peripheral\sysclk/cy_sysclk.c **** * \param driveLevel Crystal drive level in uW.
  57:Generated_Source\PSoC6\pdl\drivers\peripheral\sysclk/cy_sysclk.c **** *
  58:Generated_Source\PSoC6\pdl\drivers\peripheral\sysclk/cy_sysclk.c **** * \return Error / status code:<br>
  59:Generated_Source\PSoC6\pdl\drivers\peripheral\sysclk/cy_sysclk.c **** * CY_SYSCLK_SUCCESS - ECO configuration completed successfully<br>
  60:Generated_Source\PSoC6\pdl\drivers\peripheral\sysclk/cy_sysclk.c **** * CY_SYSCLK_BAD_PARAM - One or more invalid parameters<br>
  61:Generated_Source\PSoC6\pdl\drivers\peripheral\sysclk/cy_sysclk.c **** * CY_SYSCLK_INVALID_STATE - ECO already enabled
  62:Generated_Source\PSoC6\pdl\drivers\peripheral\sysclk/cy_sysclk.c **** *
  63:Generated_Source\PSoC6\pdl\drivers\peripheral\sysclk/cy_sysclk.c **** * \note
  64:Generated_Source\PSoC6\pdl\drivers\peripheral\sysclk/cy_sysclk.c **** * The following calculations are implemented, generally in floating point:
  65:Generated_Source\PSoC6\pdl\drivers\peripheral\sysclk/cy_sysclk.c **** *
  66:Generated_Source\PSoC6\pdl\drivers\peripheral\sysclk/cy_sysclk.c **** * \verbatim
  67:Generated_Source\PSoC6\pdl\drivers\peripheral\sysclk/cy_sysclk.c **** *   freqMHz = freq / 1000000
  68:Generated_Source\PSoC6\pdl\drivers\peripheral\sysclk/cy_sysclk.c **** *   max amplitude Vpp = 1000 * sqrt(drivelevel / 2 / esr) / 3.14 / freqMHz / cLoad
  69:Generated_Source\PSoC6\pdl\drivers\peripheral\sysclk/cy_sysclk.c **** *   gm_min mA/V = 5 * 4 * 3.14 * 3.14 * freqMhz^2 * cLoad^2 * 4 * esr / 1000000000
  70:Generated_Source\PSoC6\pdl\drivers\peripheral\sysclk/cy_sysclk.c **** *   Number of amplifier sections = INT(gm_min / 4.5)
  71:Generated_Source\PSoC6\pdl\drivers\peripheral\sysclk/cy_sysclk.c **** *
  72:Generated_Source\PSoC6\pdl\drivers\peripheral\sysclk/cy_sysclk.c **** *   As a result of the above calculations, max amplitude must be >= 0.5, and the
  73:Generated_Source\PSoC6\pdl\drivers\peripheral\sysclk/cy_sysclk.c **** *   number of amplifier sections must be <= 3, otherwise this function returns with
  74:Generated_Source\PSoC6\pdl\drivers\peripheral\sysclk/cy_sysclk.c **** *   a parameter error.
  75:Generated_Source\PSoC6\pdl\drivers\peripheral\sysclk/cy_sysclk.c **** *
  76:Generated_Source\PSoC6\pdl\drivers\peripheral\sysclk/cy_sysclk.c **** *   atrim = if (max amplitude < 0.5) then error
  77:Generated_Source\PSoC6\pdl\drivers\peripheral\sysclk/cy_sysclk.c **** *           else 2 * the following:
  78:Generated_Source\PSoC6\pdl\drivers\peripheral\sysclk/cy_sysclk.c **** *                    max amplitude < 0.6: 0
  79:Generated_Source\PSoC6\pdl\drivers\peripheral\sysclk/cy_sysclk.c **** *                    max amplitude < 0.7: 1
  80:Generated_Source\PSoC6\pdl\drivers\peripheral\sysclk/cy_sysclk.c **** *                    max amplitude < 0.8: 2
  81:Generated_Source\PSoC6\pdl\drivers\peripheral\sysclk/cy_sysclk.c **** *                    max amplitude < 0.9: 3
  82:Generated_Source\PSoC6\pdl\drivers\peripheral\sysclk/cy_sysclk.c **** *                    max amplitude < 1.15: 5
  83:Generated_Source\PSoC6\pdl\drivers\peripheral\sysclk/cy_sysclk.c **** *                    max amplitude < 1.275: 6
  84:Generated_Source\PSoC6\pdl\drivers\peripheral\sysclk/cy_sysclk.c **** *                    max amplitude >= 1.275: 7
ARM GAS  C:\Users\mcfdo\AppData\Local\Temp\cc58ZVDP.s 			page 3


  85:Generated_Source\PSoC6\pdl\drivers\peripheral\sysclk/cy_sysclk.c **** *   wdtrim = if (max amplitude < 0.5) then error
  86:Generated_Source\PSoC6\pdl\drivers\peripheral\sysclk/cy_sysclk.c **** *            else 2 * the following:
  87:Generated_Source\PSoC6\pdl\drivers\peripheral\sysclk/cy_sysclk.c **** *                     max amplitude < 1.2: INT(5 * max amplitude) - 2
  88:Generated_Source\PSoC6\pdl\drivers\peripheral\sysclk/cy_sysclk.c **** *                     max amplitude >= 1.2: 3
  89:Generated_Source\PSoC6\pdl\drivers\peripheral\sysclk/cy_sysclk.c **** *   gtrim = if (number of amplifier sections > 3) then error
  90:Generated_Source\PSoC6\pdl\drivers\peripheral\sysclk/cy_sysclk.c **** *           else the following:
  91:Generated_Source\PSoC6\pdl\drivers\peripheral\sysclk/cy_sysclk.c **** *                number of amplifier sections > 1: number of amplifier sections
  92:Generated_Source\PSoC6\pdl\drivers\peripheral\sysclk/cy_sysclk.c **** *                number of amplifier sections = 1: 0
  93:Generated_Source\PSoC6\pdl\drivers\peripheral\sysclk/cy_sysclk.c **** *                number of amplifier sections < 1: 1
  94:Generated_Source\PSoC6\pdl\drivers\peripheral\sysclk/cy_sysclk.c **** *   rtrim = if (gtrim = error) then error
  95:Generated_Source\PSoC6\pdl\drivers\peripheral\sysclk/cy_sysclk.c **** *           else the following:
  96:Generated_Source\PSoC6\pdl\drivers\peripheral\sysclk/cy_sysclk.c **** *                freqMHz > 26.8: 0
  97:Generated_Source\PSoC6\pdl\drivers\peripheral\sysclk/cy_sysclk.c **** *                freqMHz > 23.33: 1
  98:Generated_Source\PSoC6\pdl\drivers\peripheral\sysclk/cy_sysclk.c **** *                freqMHz > 16.5: 2
  99:Generated_Source\PSoC6\pdl\drivers\peripheral\sysclk/cy_sysclk.c **** *                freqMHz <= 16.5: 3
 100:Generated_Source\PSoC6\pdl\drivers\peripheral\sysclk/cy_sysclk.c **** *   ftrim = if (atrim = error) then error
 101:Generated_Source\PSoC6\pdl\drivers\peripheral\sysclk/cy_sysclk.c **** *           else INT(atrim / 2)
 102:Generated_Source\PSoC6\pdl\drivers\peripheral\sysclk/cy_sysclk.c **** * \endverbatim
 103:Generated_Source\PSoC6\pdl\drivers\peripheral\sysclk/cy_sysclk.c **** *
 104:Generated_Source\PSoC6\pdl\drivers\peripheral\sysclk/cy_sysclk.c **** *
 105:Generated_Source\PSoC6\pdl\drivers\peripheral\sysclk/cy_sysclk.c **** * \funcusage
 106:Generated_Source\PSoC6\pdl\drivers\peripheral\sysclk/cy_sysclk.c **** * \snippet sysclk/1.20/snippet/main.c snippet_Cy_SysClk_EcoConfigure
 107:Generated_Source\PSoC6\pdl\drivers\peripheral\sysclk/cy_sysclk.c **** *
 108:Generated_Source\PSoC6\pdl\drivers\peripheral\sysclk/cy_sysclk.c **** *******************************************************************************/
 109:Generated_Source\PSoC6\pdl\drivers\peripheral\sysclk/cy_sysclk.c **** cy_en_sysclk_status_t Cy_SysClk_EcoConfigure(uint32_t freq, uint32_t cLoad, uint32_t esr, uint32_t 
 110:Generated_Source\PSoC6\pdl\drivers\peripheral\sysclk/cy_sysclk.c **** {
  31              		.loc 1 110 0
  32              		.cfi_startproc
  33              		@ args = 0, pretend = 0, frame = 0
  34              		@ frame_needed = 0, uses_anonymous_args = 0
  35              	.LVL0:
  36 0000 F8B5     		push	{r3, r4, r5, r6, r7, lr}
  37              		.cfi_def_cfa_offset 24
  38              		.cfi_offset 3, -24
  39              		.cfi_offset 4, -20
  40              		.cfi_offset 5, -16
  41              		.cfi_offset 6, -12
  42              		.cfi_offset 7, -8
  43              		.cfi_offset 14, -4
  44 0002 07EE103A 		vmov	s14, r3	@ int
 111:Generated_Source\PSoC6\pdl\drivers\peripheral\sysclk/cy_sysclk.c ****     /* error if ECO is not disabled - any of the 3 enable bits are set */
 112:Generated_Source\PSoC6\pdl\drivers\peripheral\sysclk/cy_sysclk.c ****     cy_en_sysclk_status_t retVal = CY_SYSCLK_INVALID_STATE;
 113:Generated_Source\PSoC6\pdl\drivers\peripheral\sysclk/cy_sysclk.c ****     if (0UL == (SRSS_CLK_ECO_CONFIG_ECO_EN_Msk & SRSS_CLK_ECO_CONFIG))
  45              		.loc 1 113 0
  46 0006 704B     		ldr	r3, .L27
  47              	.LVL1:
  48 0008 D3F82C35 		ldr	r3, [r3, #1324]
  49 000c 002B     		cmp	r3, #0
 110:Generated_Source\PSoC6\pdl\drivers\peripheral\sysclk/cy_sysclk.c ****     /* error if ECO is not disabled - any of the 3 enable bits are set */
  50              		.loc 1 110 0
  51 000e 2DED028B 		vpush.64	{d8}
  52              		.cfi_def_cfa_offset 32
  53              		.cfi_offset 80, -32
  54              		.cfi_offset 81, -28
 110:Generated_Source\PSoC6\pdl\drivers\peripheral\sysclk/cy_sysclk.c ****     /* error if ECO is not disabled - any of the 3 enable bits are set */
  55              		.loc 1 110 0
  56 0012 06EE900A 		vmov	s13, r0	@ int
ARM GAS  C:\Users\mcfdo\AppData\Local\Temp\cc58ZVDP.s 			page 4


  57 0016 08EE901A 		vmov	s17, r1	@ int
  58 001a 07EE902A 		vmov	s15, r2	@ int
  59              		.loc 1 113 0
  60 001e C0F2CC80 		blt	.L9
  61              	.LBB11:
 114:Generated_Source\PSoC6\pdl\drivers\peripheral\sysclk/cy_sysclk.c ****     {
 115:Generated_Source\PSoC6\pdl\drivers\peripheral\sysclk/cy_sysclk.c ****         /* calculate intermediate values */
 116:Generated_Source\PSoC6\pdl\drivers\peripheral\sysclk/cy_sysclk.c ****         float32_t freqMHz = (float32_t)freq / 1000000.0f;
 117:Generated_Source\PSoC6\pdl\drivers\peripheral\sysclk/cy_sysclk.c ****         float32_t maxAmplitude =
 118:Generated_Source\PSoC6\pdl\drivers\peripheral\sysclk/cy_sysclk.c ****             (1000.0f * ((float32_t)sqrt((float64_t)((float32_t)driveLevel / (2.0f * (float32_t)esr)
  62              		.loc 1 118 0
  63 0022 F8EE677A 		vcvt.f32.u32	s15, s15
  64 0026 B8EE477A 		vcvt.f32.u32	s14, s14
  65              	.LVL2:
  66 002a 77EEA77A 		vadd.f32	s15, s15, s15
 116:Generated_Source\PSoC6\pdl\drivers\peripheral\sysclk/cy_sysclk.c ****         float32_t maxAmplitude =
  67              		.loc 1 116 0
  68 002e 9FED676A 		vldr.32	s12, .L27+4
  69 0032 F8EE666A 		vcvt.f32.u32	s13, s13
  70 0036 86EE868A 		vdiv.f32	s16, s13, s12
  71              	.LVL3:
  72              		.loc 1 118 0
  73 003a C7EE276A 		vdiv.f32	s13, s14, s15
  74 003e 16EE900A 		vmov	r0, s13
  75              	.LVL4:
  76 0042 FFF7FEFF 		bl	__aeabi_f2d
  77              	.LVL5:
  78 0046 FFF7FEFF 		bl	sqrt
  79              	.LVL6:
 117:Generated_Source\PSoC6\pdl\drivers\peripheral\sysclk/cy_sysclk.c ****             (1000.0f * ((float32_t)sqrt((float64_t)((float32_t)driveLevel / (2.0f * (float32_t)esr)
  80              		.loc 1 117 0
  81 004a FFF7FEFF 		bl	__aeabi_d2f
  82              	.LVL7:
  83 004e 9FED607A 		vldr.32	s14, .L27+8
  84 0052 DFED606A 		vldr.32	s13, .L27+12
  85 0056 07EE900A 		vmov	s15, r0
 119:Generated_Source\PSoC6\pdl\drivers\peripheral\sysclk/cy_sysclk.c ****             (3.14f * freqMHz * (float32_t)cLoad);
  86              		.loc 1 119 0
  87 005a F8EE688A 		vcvt.f32.u32	s17, s17
  88              	.LVL8:
 117:Generated_Source\PSoC6\pdl\drivers\peripheral\sysclk/cy_sysclk.c ****             (1000.0f * ((float32_t)sqrt((float64_t)((float32_t)driveLevel / (2.0f * (float32_t)esr)
  89              		.loc 1 117 0
  90 005e 28EE077A 		vmul.f32	s14, s16, s14
  91 0062 67EEA66A 		vmul.f32	s13, s15, s13
  92 0066 27EE287A 		vmul.f32	s14, s14, s17
  93 006a C6EE877A 		vdiv.f32	s15, s13, s14
  94              	.LVL9:
 120:Generated_Source\PSoC6\pdl\drivers\peripheral\sysclk/cy_sysclk.c ****         float32_t gm_min =
 121:Generated_Source\PSoC6\pdl\drivers\peripheral\sysclk/cy_sysclk.c ****             (788.8f /*5 * 4 * 3.14 * 3.14 * 4*/ * freqMHz * freqMHz * (float32_t)cLoad * (float32_t
 122:Generated_Source\PSoC6\pdl\drivers\peripheral\sysclk/cy_sysclk.c ****             1000000000.0f;
 123:Generated_Source\PSoC6\pdl\drivers\peripheral\sysclk/cy_sysclk.c ****         uint32_t nAmpSections = (uint32_t)(gm_min / 4.5f);
 124:Generated_Source\PSoC6\pdl\drivers\peripheral\sysclk/cy_sysclk.c **** 
 125:Generated_Source\PSoC6\pdl\drivers\peripheral\sysclk/cy_sysclk.c ****         /* Error if input parameters cause erroneous intermediate values. */
 126:Generated_Source\PSoC6\pdl\drivers\peripheral\sysclk/cy_sysclk.c ****         retVal = CY_SYSCLK_BAD_PARAM;
 127:Generated_Source\PSoC6\pdl\drivers\peripheral\sysclk/cy_sysclk.c ****         if ((maxAmplitude >= 0.5f) && (nAmpSections <= 3UL))
  95              		.loc 1 127 0
  96 006e B6EE007A 		vmov.f32	s14, #5.0e-1
ARM GAS  C:\Users\mcfdo\AppData\Local\Temp\cc58ZVDP.s 			page 5


  97 0072 F4EEC77A 		vcmpe.f32	s15, s14
  98 0076 F1EE10FA 		vmrs	APSR_nzcv, FPSCR
  99 007a C0F2A080 		blt	.L11
 123:Generated_Source\PSoC6\pdl\drivers\peripheral\sysclk/cy_sysclk.c **** 
 100              		.loc 1 123 0 discriminator 1
 101 007e 9FED567A 		vldr.32	s14, .L27+16
 102 0082 DFED566A 		vldr.32	s13, .L27+20
 103 0086 28EE077A 		vmul.f32	s14, s16, s14
 104              	.LVL10:
 105 008a 27EE087A 		vmul.f32	s14, s14, s16
 106              	.LVL11:
 107 008e 27EE287A 		vmul.f32	s14, s14, s17
 108 0092 27EE287A 		vmul.f32	s14, s14, s17
 109 0096 87EE266A 		vdiv.f32	s12, s14, s13
 110 009a F1EE026A 		vmov.f32	s13, #4.5e+0
 111 009e 86EE267A 		vdiv.f32	s14, s12, s13
 112 00a2 BCEEC77A 		vcvt.u32.f32	s14, s14
 113 00a6 17EE102A 		vmov	r2, s14	@ int
 114              		.loc 1 127 0 discriminator 1
 115 00aa 032A     		cmp	r2, #3
 116 00ac 00F28780 		bhi	.L11
 117              	.LBB12:
 128:Generated_Source\PSoC6\pdl\drivers\peripheral\sysclk/cy_sysclk.c ****         {
 129:Generated_Source\PSoC6\pdl\drivers\peripheral\sysclk/cy_sysclk.c ****             uint32_t atrim, wdtrim, gtrim, rtrim, ftrim, reg;
 130:Generated_Source\PSoC6\pdl\drivers\peripheral\sysclk/cy_sysclk.c **** 
 131:Generated_Source\PSoC6\pdl\drivers\peripheral\sysclk/cy_sysclk.c ****             atrim = 2UL * ((maxAmplitude < 0.6f) ? 0UL :
 118              		.loc 1 131 0
 119 00b0 9FED4B7A 		vldr.32	s14, .L27+24
 120 00b4 F4EEC77A 		vcmpe.f32	s15, s14
 121 00b8 F1EE10FA 		vmrs	APSR_nzcv, FPSCR
 122 00bc 25D4     		bmi	.L12
 123              		.loc 1 131 0 is_stmt 0 discriminator 2
 124 00be 9FED497A 		vldr.32	s14, .L27+28
 125 00c2 F4EEC77A 		vcmpe.f32	s15, s14
 126 00c6 F1EE10FA 		vmrs	APSR_nzcv, FPSCR
 127 00ca 20D4     		bmi	.L13
 128              		.loc 1 131 0 discriminator 5
 129 00cc 9FED467A 		vldr.32	s14, .L27+32
 130 00d0 F4EEC77A 		vcmpe.f32	s15, s14
 131 00d4 F1EE10FA 		vmrs	APSR_nzcv, FPSCR
 132 00d8 1BD4     		bmi	.L14
 133              		.loc 1 131 0 discriminator 8
 134 00da 9FED447A 		vldr.32	s14, .L27+36
 135 00de F4EEC77A 		vcmpe.f32	s15, s14
 136 00e2 F1EE10FA 		vmrs	APSR_nzcv, FPSCR
 137 00e6 16D4     		bmi	.L15
 138              		.loc 1 131 0 discriminator 11
 139 00e8 9FED417A 		vldr.32	s14, .L27+40
 140 00ec F4EEC77A 		vcmpe.f32	s15, s14
 141 00f0 F1EE10FA 		vmrs	APSR_nzcv, FPSCR
 142 00f4 11D4     		bmi	.L16
 143              		.loc 1 131 0 discriminator 14
 144 00f6 9FED3F7A 		vldr.32	s14, .L27+44
 145 00fa F4EEC77A 		vcmpe.f32	s15, s14
 146 00fe F1EE10FA 		vmrs	APSR_nzcv, FPSCR
 147 0102 4CBF     		ite	mi
 148 0104 0C20     		movmi	r0, #12
ARM GAS  C:\Users\mcfdo\AppData\Local\Temp\cc58ZVDP.s 			page 6


 149 0106 0E20     		movpl	r0, #14
 150 0108 08E0     		b	.L4
 151              	.L12:
 152              		.loc 1 131 0
 153 010a 0020     		movs	r0, #0
 154 010c 06E0     		b	.L4
 155              	.L13:
 156 010e 0220     		movs	r0, #2
 157 0110 04E0     		b	.L4
 158              	.L14:
 159 0112 0420     		movs	r0, #4
 160 0114 02E0     		b	.L4
 161              	.L15:
 162 0116 0620     		movs	r0, #6
 163 0118 00E0     		b	.L4
 164              	.L16:
 165 011a 0A20     		movs	r0, #10
 166              	.L4:
 167              	.LVL12:
 132:Generated_Source\PSoC6\pdl\drivers\peripheral\sysclk/cy_sysclk.c ****                            ((maxAmplitude < 0.7f) ? 1UL :
 133:Generated_Source\PSoC6\pdl\drivers\peripheral\sysclk/cy_sysclk.c ****                             ((maxAmplitude < 0.8f) ? 2UL :
 134:Generated_Source\PSoC6\pdl\drivers\peripheral\sysclk/cy_sysclk.c ****                              ((maxAmplitude < 0.9f) ? 3UL :
 135:Generated_Source\PSoC6\pdl\drivers\peripheral\sysclk/cy_sysclk.c ****                               ((maxAmplitude < 1.15f) ? 5UL :
 136:Generated_Source\PSoC6\pdl\drivers\peripheral\sysclk/cy_sysclk.c ****                                ((maxAmplitude < 1.275f) ? 6UL : 7UL))))));
 137:Generated_Source\PSoC6\pdl\drivers\peripheral\sysclk/cy_sysclk.c **** 
 138:Generated_Source\PSoC6\pdl\drivers\peripheral\sysclk/cy_sysclk.c ****             wdtrim = 2UL * ((maxAmplitude < 1.2f) ? (uint32_t)(((uint32_t)(5.0f * maxAmplitude)) - 
 168              		.loc 1 138 0 is_stmt 1 discriminator 24
 169 011c 9FED367A 		vldr.32	s14, .L27+48
 170 0120 F4EEC77A 		vcmpe.f32	s15, s14
 171 0124 F1EE10FA 		vmrs	APSR_nzcv, FPSCR
 172 0128 45BF     		ittet	mi
 173 012a B1EE047A 		vmovmi.f32	s14, #5.0e+0
 174 012e 67EE877A 		vmulmi.f32	s15, s15, s14
 175              	.LVL13:
 176 0132 0623     		movpl	r3, #6
 177 0134 FCEEE77A 		vcvtmi.u32.f32	s15, s15
 178 0138 48BF     		it	mi
 179 013a 17EE903A 		vmovmi	r3, s15	@ int
 139:Generated_Source\PSoC6\pdl\drivers\peripheral\sysclk/cy_sysclk.c **** 
 140:Generated_Source\PSoC6\pdl\drivers\peripheral\sysclk/cy_sysclk.c ****             gtrim = ((nAmpSections > 1UL) ? nAmpSections :
 141:Generated_Source\PSoC6\pdl\drivers\peripheral\sysclk/cy_sysclk.c ****                      ((nAmpSections == 1UL) ? 0UL : 1UL));
 142:Generated_Source\PSoC6\pdl\drivers\peripheral\sysclk/cy_sysclk.c **** 
 143:Generated_Source\PSoC6\pdl\drivers\peripheral\sysclk/cy_sysclk.c ****             rtrim = ((freqMHz > 26.8f) ? 0UL :
 180              		.loc 1 143 0 discriminator 24
 181 013e DFED2F7A 		vldr.32	s15, .L27+52
 138:Generated_Source\PSoC6\pdl\drivers\peripheral\sysclk/cy_sysclk.c **** 
 182              		.loc 1 138 0 discriminator 24
 183 0142 42BF     		ittt	mi
 184 0144 03F10043 		addmi	r3, r3, #-2147483648
 185 0148 023B     		submi	r3, r3, #2
 186 014a 5B00     		lslmi	r3, r3, #1
 187              	.LVL14:
 188              		.loc 1 143 0 discriminator 24
 189 014c B4EEE78A 		vcmpe.f32	s16, s15
 140:Generated_Source\PSoC6\pdl\drivers\peripheral\sysclk/cy_sysclk.c ****                      ((nAmpSections == 1UL) ? 0UL : 1UL));
 190              		.loc 1 140 0 discriminator 24
 191 0150 012A     		cmp	r2, #1
ARM GAS  C:\Users\mcfdo\AppData\Local\Temp\cc58ZVDP.s 			page 7


 192 0152 98BF     		it	ls
 193 0154 82F00102 		eorls	r2, r2, #1
 194              	.LVL15:
 195              		.loc 1 143 0 discriminator 24
 196 0158 F1EE10FA 		vmrs	APSR_nzcv, FPSCR
 197 015c 10DC     		bgt	.L19
 144:Generated_Source\PSoC6\pdl\drivers\peripheral\sysclk/cy_sysclk.c ****                      ((freqMHz > 23.33f) ? 1UL :
 198              		.loc 1 144 0
 199 015e DFED287A 		vldr.32	s15, .L27+56
 200 0162 B4EEE78A 		vcmpe.f32	s16, s15
 201 0166 F1EE10FA 		vmrs	APSR_nzcv, FPSCR
 202 016a 0BDC     		bgt	.L20
 145:Generated_Source\PSoC6\pdl\drivers\peripheral\sysclk/cy_sysclk.c ****                       ((freqMHz > 16.5f) ? 2UL : 3UL)));
 203              		.loc 1 145 0
 204 016c DFED257A 		vldr.32	s15, .L27+60
 205 0170 B4EEE78A 		vcmpe.f32	s16, s15
 206 0174 F1EE10FA 		vmrs	APSR_nzcv, FPSCR
 207 0178 CCBF     		ite	gt
 208 017a 0227     		movgt	r7, #2
 209 017c 0327     		movle	r7, #3
 210 017e 02E0     		b	.L8
 211              	.L19:
 143:Generated_Source\PSoC6\pdl\drivers\peripheral\sysclk/cy_sysclk.c ****                      ((freqMHz > 23.33f) ? 1UL :
 212              		.loc 1 143 0
 213 0180 0027     		movs	r7, #0
 214 0182 00E0     		b	.L8
 215              	.L20:
 144:Generated_Source\PSoC6\pdl\drivers\peripheral\sysclk/cy_sysclk.c ****                      ((freqMHz > 23.33f) ? 1UL :
 216              		.loc 1 144 0
 217 0184 0127     		movs	r7, #1
 218              	.L8:
 219              	.LVL16:
 146:Generated_Source\PSoC6\pdl\drivers\peripheral\sysclk/cy_sysclk.c **** 
 147:Generated_Source\PSoC6\pdl\drivers\peripheral\sysclk/cy_sysclk.c ****             ftrim = atrim / 2UL;
 148:Generated_Source\PSoC6\pdl\drivers\peripheral\sysclk/cy_sysclk.c **** 
 149:Generated_Source\PSoC6\pdl\drivers\peripheral\sysclk/cy_sysclk.c ****             /* update all fields of trim control register with one write, without changing the ITRI
 150:Generated_Source\PSoC6\pdl\drivers\peripheral\sysclk/cy_sysclk.c ****             reg = _VAL2FLD(SRSS_CLK_TRIM_ECO_CTL_WDTRIM, wdtrim) |
 151:Generated_Source\PSoC6\pdl\drivers\peripheral\sysclk/cy_sysclk.c ****                   _VAL2FLD(SRSS_CLK_TRIM_ECO_CTL_ATRIM, atrim)   |
 152:Generated_Source\PSoC6\pdl\drivers\peripheral\sysclk/cy_sysclk.c ****                   _VAL2FLD(SRSS_CLK_TRIM_ECO_CTL_FTRIM, ftrim)   |
 153:Generated_Source\PSoC6\pdl\drivers\peripheral\sysclk/cy_sysclk.c ****                   _VAL2FLD(SRSS_CLK_TRIM_ECO_CTL_RTRIM, rtrim)   |
 154:Generated_Source\PSoC6\pdl\drivers\peripheral\sysclk/cy_sysclk.c ****                   _VAL2FLD(SRSS_CLK_TRIM_ECO_CTL_GTRIM, gtrim);
 155:Generated_Source\PSoC6\pdl\drivers\peripheral\sysclk/cy_sysclk.c ****                   
 156:Generated_Source\PSoC6\pdl\drivers\peripheral\sysclk/cy_sysclk.c ****             CY_REG32_CLR_SET(SRSS_CLK_TRIM_ECO_CTL, CY_SYSCLK_TRIM_ECO, reg);
 220              		.loc 1 156 0 discriminator 2
 221 0186 104D     		ldr	r5, .L27
 222 0188 4FF62074 		movw	r4, #65312
 223 018c C601     		lsls	r6, r0, #7
 224 018e 06F44076 		and	r6, r6, #768
 225 0192 2959     		ldr	r1, [r5, r4]
 226 0194 46EA0010 		orr	r0, r6, r0, lsl #4
 227              	.LVL17:
 228 0198 03F00703 		and	r3, r3, #7
 229              	.LVL18:
 230 019c 1203     		lsls	r2, r2, #12
 231              	.LVL19:
 232 019e 0343     		orrs	r3, r3, r0
 233 01a0 02F44052 		and	r2, r2, #12288
ARM GAS  C:\Users\mcfdo\AppData\Local\Temp\cc58ZVDP.s 			page 8


 234 01a4 1343     		orrs	r3, r3, r2
 235 01a6 21F47F52 		bic	r2, r1, #16320
 236 01aa 43EA8723 		orr	r3, r3, r7, lsl #10
 237 01ae 22F03702 		bic	r2, r2, #55
 238 01b2 1343     		orrs	r3, r3, r2
 239 01b4 2B51     		str	r3, [r5, r4]
 240              	.LVL20:
 157:Generated_Source\PSoC6\pdl\drivers\peripheral\sysclk/cy_sysclk.c **** 
 158:Generated_Source\PSoC6\pdl\drivers\peripheral\sysclk/cy_sysclk.c ****             retVal = CY_SYSCLK_SUCCESS;
 241              		.loc 1 158 0 discriminator 2
 242 01b6 0020     		movs	r0, #0
 243 01b8 02E0     		b	.L2
 244              	.LVL21:
 245              	.L9:
 246              	.LBE12:
 247              	.LBE11:
 112:Generated_Source\PSoC6\pdl\drivers\peripheral\sysclk/cy_sysclk.c ****     if (0UL == (SRSS_CLK_ECO_CONFIG_ECO_EN_Msk & SRSS_CLK_ECO_CONFIG))
 248              		.loc 1 112 0
 249 01ba 1348     		ldr	r0, .L27+64
 250              	.LVL22:
 251 01bc 00E0     		b	.L2
 252              	.LVL23:
 253              	.L11:
 254              	.LBB13:
 126:Generated_Source\PSoC6\pdl\drivers\peripheral\sysclk/cy_sysclk.c ****         if ((maxAmplitude >= 0.5f) && (nAmpSections <= 3UL))
 255              		.loc 1 126 0
 256 01be 1348     		ldr	r0, .L27+68
 257              	.LVL24:
 258              	.L2:
 259              	.LBE13:
 159:Generated_Source\PSoC6\pdl\drivers\peripheral\sysclk/cy_sysclk.c ****         } /* if valid parameters */
 160:Generated_Source\PSoC6\pdl\drivers\peripheral\sysclk/cy_sysclk.c ****     } /* if ECO not enabled */
 161:Generated_Source\PSoC6\pdl\drivers\peripheral\sysclk/cy_sysclk.c **** 
 162:Generated_Source\PSoC6\pdl\drivers\peripheral\sysclk/cy_sysclk.c ****     return (retVal);
 163:Generated_Source\PSoC6\pdl\drivers\peripheral\sysclk/cy_sysclk.c **** }
 260              		.loc 1 163 0
 261 01c0 BDEC028B 		vldm	sp!, {d8}
 262              		.cfi_restore 80
 263              		.cfi_restore 81
 264              		.cfi_def_cfa_offset 24
 265 01c4 F8BD     		pop	{r3, r4, r5, r6, r7, pc}
 266              	.L28:
 267 01c6 00BF     		.align	2
 268              	.L27:
 269 01c8 00002640 		.word	1076232192
 270 01cc 00247449 		.word	1232348160
 271 01d0 C3F54840 		.word	1078523331
 272 01d4 00007A44 		.word	1148846080
 273 01d8 33334544 		.word	1145385779
 274 01dc 286B6E4E 		.word	1315859240
 275 01e0 9A99193F 		.word	1058642330
 276 01e4 3333333F 		.word	1060320051
 277 01e8 CDCC4C3F 		.word	1061997773
 278 01ec 6666663F 		.word	1063675494
 279 01f0 3333933F 		.word	1066611507
 280 01f4 3333A33F 		.word	1067660083
 281 01f8 9A99993F 		.word	1067030938
ARM GAS  C:\Users\mcfdo\AppData\Local\Temp\cc58ZVDP.s 			page 9


 282 01fc 6666D641 		.word	1104569958
 283 0200 D7A3BA41 		.word	1102750679
 284 0204 00008441 		.word	1099169792
 285 0208 03004A00 		.word	4849667
 286 020c 01004A00 		.word	4849665
 287              		.cfi_endproc
 288              	.LFE245:
 289              		.size	Cy_SysClk_EcoConfigure, .-Cy_SysClk_EcoConfigure
 290              		.section	.text.Cy_SysClk_EcoEnable,"ax",%progbits
 291              		.align	1
 292              		.global	Cy_SysClk_EcoEnable
 293              		.thumb
 294              		.thumb_func
 295              		.type	Cy_SysClk_EcoEnable, %function
 296              	Cy_SysClk_EcoEnable:
 297              	.LFB246:
 164:Generated_Source\PSoC6\pdl\drivers\peripheral\sysclk/cy_sysclk.c **** 
 165:Generated_Source\PSoC6\pdl\drivers\peripheral\sysclk/cy_sysclk.c **** /*******************************************************************************
 166:Generated_Source\PSoC6\pdl\drivers\peripheral\sysclk/cy_sysclk.c **** * Function Name: Cy_SysClk_EcoEnable
 167:Generated_Source\PSoC6\pdl\drivers\peripheral\sysclk/cy_sysclk.c **** ****************************************************************************//**
 168:Generated_Source\PSoC6\pdl\drivers\peripheral\sysclk/cy_sysclk.c **** *
 169:Generated_Source\PSoC6\pdl\drivers\peripheral\sysclk/cy_sysclk.c **** * Enables the external crystal oscillator (ECO). This function should be called
 170:Generated_Source\PSoC6\pdl\drivers\peripheral\sysclk/cy_sysclk.c **** * after \ref Cy_SysClk_EcoConfigure.
 171:Generated_Source\PSoC6\pdl\drivers\peripheral\sysclk/cy_sysclk.c **** *
 172:Generated_Source\PSoC6\pdl\drivers\peripheral\sysclk/cy_sysclk.c **** * \param timeoutus Amount of time in microseconds to wait for the ECO to lock.
 173:Generated_Source\PSoC6\pdl\drivers\peripheral\sysclk/cy_sysclk.c **** * If a lock does not occur, the ECO is stopped. To avoid waiting for a lock, set
 174:Generated_Source\PSoC6\pdl\drivers\peripheral\sysclk/cy_sysclk.c **** * this parameter to 0.
 175:Generated_Source\PSoC6\pdl\drivers\peripheral\sysclk/cy_sysclk.c **** *
 176:Generated_Source\PSoC6\pdl\drivers\peripheral\sysclk/cy_sysclk.c **** * \return Error / status code:<br>
 177:Generated_Source\PSoC6\pdl\drivers\peripheral\sysclk/cy_sysclk.c **** * CY_SYSCLK_SUCCESS - ECO locked<br>
 178:Generated_Source\PSoC6\pdl\drivers\peripheral\sysclk/cy_sysclk.c **** * CY_SYSCLK_TIMEOUT - ECO timed out and did not lock
 179:Generated_Source\PSoC6\pdl\drivers\peripheral\sysclk/cy_sysclk.c **** * CY_SYSCLK_INVALID_STATE - ECO already enabled
 180:Generated_Source\PSoC6\pdl\drivers\peripheral\sysclk/cy_sysclk.c **** *
 181:Generated_Source\PSoC6\pdl\drivers\peripheral\sysclk/cy_sysclk.c **** * \note 
 182:Generated_Source\PSoC6\pdl\drivers\peripheral\sysclk/cy_sysclk.c **** * Call \ref SystemCoreClockUpdate after this function calling 
 183:Generated_Source\PSoC6\pdl\drivers\peripheral\sysclk/cy_sysclk.c **** * if it affects the CLK_HF0 frequency.
 184:Generated_Source\PSoC6\pdl\drivers\peripheral\sysclk/cy_sysclk.c **** *
 185:Generated_Source\PSoC6\pdl\drivers\peripheral\sysclk/cy_sysclk.c **** * \funcusage
 186:Generated_Source\PSoC6\pdl\drivers\peripheral\sysclk/cy_sysclk.c **** * \snippet sysclk/1.20/snippet/main.c snippet_Cy_SysClk_EcoEnable
 187:Generated_Source\PSoC6\pdl\drivers\peripheral\sysclk/cy_sysclk.c **** *
 188:Generated_Source\PSoC6\pdl\drivers\peripheral\sysclk/cy_sysclk.c **** *******************************************************************************/
 189:Generated_Source\PSoC6\pdl\drivers\peripheral\sysclk/cy_sysclk.c **** cy_en_sysclk_status_t Cy_SysClk_EcoEnable(uint32_t timeoutus)
 190:Generated_Source\PSoC6\pdl\drivers\peripheral\sysclk/cy_sysclk.c **** {
 298              		.loc 1 190 0
 299              		.cfi_startproc
 300              		@ args = 0, pretend = 0, frame = 0
 301              		@ frame_needed = 0, uses_anonymous_args = 0
 302              	.LVL25:
 303 0000 38B5     		push	{r3, r4, r5, lr}
 304              		.cfi_def_cfa_offset 16
 305              		.cfi_offset 3, -16
 306              		.cfi_offset 4, -12
 307              		.cfi_offset 5, -8
 308              		.cfi_offset 14, -4
 191:Generated_Source\PSoC6\pdl\drivers\peripheral\sysclk/cy_sysclk.c ****     cy_en_sysclk_status_t retVal = CY_SYSCLK_INVALID_STATE;
 192:Generated_Source\PSoC6\pdl\drivers\peripheral\sysclk/cy_sysclk.c **** 
 193:Generated_Source\PSoC6\pdl\drivers\peripheral\sysclk/cy_sysclk.c ****     /* invalid state error if ECO is already enabled */
ARM GAS  C:\Users\mcfdo\AppData\Local\Temp\cc58ZVDP.s 			page 10


 194:Generated_Source\PSoC6\pdl\drivers\peripheral\sysclk/cy_sysclk.c ****     if (0UL == (SRSS_CLK_ECO_CONFIG_ECO_EN_Msk & SRSS_CLK_ECO_CONFIG))
 309              		.loc 1 194 0
 310 0002 104B     		ldr	r3, .L37
 311 0004 D3F82C25 		ldr	r2, [r3, #1324]
 312 0008 002A     		cmp	r2, #0
 190:Generated_Source\PSoC6\pdl\drivers\peripheral\sysclk/cy_sysclk.c ****     cy_en_sysclk_status_t retVal = CY_SYSCLK_INVALID_STATE;
 313              		.loc 1 190 0
 314 000a 0546     		mov	r5, r0
 315              		.loc 1 194 0
 316 000c 17DB     		blt	.L34
 195:Generated_Source\PSoC6\pdl\drivers\peripheral\sysclk/cy_sysclk.c ****     {
 196:Generated_Source\PSoC6\pdl\drivers\peripheral\sysclk/cy_sysclk.c ****         /* first set ECO enable */
 197:Generated_Source\PSoC6\pdl\drivers\peripheral\sysclk/cy_sysclk.c ****         SRSS_CLK_ECO_CONFIG |= SRSS_CLK_ECO_CONFIG_ECO_EN_Msk;
 317              		.loc 1 197 0
 318 000e D3F82C25 		ldr	r2, [r3, #1324]
 319 0012 42F00042 		orr	r2, r2, #-2147483648
 320 0016 C3F82C25 		str	r2, [r3, #1324]
 198:Generated_Source\PSoC6\pdl\drivers\peripheral\sysclk/cy_sysclk.c **** 
 199:Generated_Source\PSoC6\pdl\drivers\peripheral\sysclk/cy_sysclk.c ****         /* now do the timeout wait for ECO_STATUS, bit ECO_OK */
 200:Generated_Source\PSoC6\pdl\drivers\peripheral\sysclk/cy_sysclk.c ****         for (; (0UL ==(SRSS_CLK_ECO_STATUS_ECO_READY_Msk & SRSS_CLK_ECO_STATUS)) && (0UL != timeout
 321              		.loc 1 200 0
 322 001a 1C46     		mov	r4, r3
 323              	.LVL26:
 324              	.L31:
 325              		.loc 1 200 0 is_stmt 0 discriminator 1
 326 001c D4F83035 		ldr	r3, [r4, #1328]
 327 0020 9B07     		lsls	r3, r3, #30
 328 0022 07D4     		bmi	.L32
 329              		.loc 1 200 0 discriminator 2
 330 0024 25B1     		cbz	r5, .L36
 201:Generated_Source\PSoC6\pdl\drivers\peripheral\sysclk/cy_sysclk.c ****         {
 202:Generated_Source\PSoC6\pdl\drivers\peripheral\sysclk/cy_sysclk.c ****             Cy_SysLib_DelayUs(1U);
 331              		.loc 1 202 0 is_stmt 1 discriminator 3
 332 0026 0120     		movs	r0, #1
 333 0028 FFF7FEFF 		bl	Cy_SysLib_DelayUs
 334              	.LVL27:
 200:Generated_Source\PSoC6\pdl\drivers\peripheral\sysclk/cy_sysclk.c ****         {
 335              		.loc 1 200 0 discriminator 3
 336 002c 013D     		subs	r5, r5, #1
 337              	.LVL28:
 338 002e F5E7     		b	.L31
 339              	.L36:
 203:Generated_Source\PSoC6\pdl\drivers\peripheral\sysclk/cy_sysclk.c ****         }
 204:Generated_Source\PSoC6\pdl\drivers\peripheral\sysclk/cy_sysclk.c ****         retVal = ((timeoutus == 0UL) ? CY_SYSCLK_TIMEOUT : CY_SYSCLK_SUCCESS);
 340              		.loc 1 204 0
 341 0030 0548     		ldr	r0, .L37+4
 342 0032 38BD     		pop	{r3, r4, r5, pc}
 343              	.LVL29:
 344              	.L32:
 345 0034 002D     		cmp	r5, #0
 346 0036 0448     		ldr	r0, .L37+4
 347 0038 18BF     		it	ne
 348 003a 0020     		movne	r0, #0
 349 003c 38BD     		pop	{r3, r4, r5, pc}
 350              	.LVL30:
 351              	.L34:
 191:Generated_Source\PSoC6\pdl\drivers\peripheral\sysclk/cy_sysclk.c **** 
ARM GAS  C:\Users\mcfdo\AppData\Local\Temp\cc58ZVDP.s 			page 11


 352              		.loc 1 191 0
 353 003e 0348     		ldr	r0, .L37+8
 354              	.LVL31:
 205:Generated_Source\PSoC6\pdl\drivers\peripheral\sysclk/cy_sysclk.c ****     }
 206:Generated_Source\PSoC6\pdl\drivers\peripheral\sysclk/cy_sysclk.c ****     return (retVal);
 207:Generated_Source\PSoC6\pdl\drivers\peripheral\sysclk/cy_sysclk.c **** }
 355              		.loc 1 207 0
 356 0040 38BD     		pop	{r3, r4, r5, pc}
 357              	.LVL32:
 358              	.L38:
 359 0042 00BF     		.align	2
 360              	.L37:
 361 0044 00002640 		.word	1076232192
 362 0048 02004A00 		.word	4849666
 363 004c 03004A00 		.word	4849667
 364              		.cfi_endproc
 365              	.LFE246:
 366              		.size	Cy_SysClk_EcoEnable, .-Cy_SysClk_EcoEnable
 367              		.section	.text.Cy_SysClk_ClkPathSetSource,"ax",%progbits
 368              		.align	1
 369              		.global	Cy_SysClk_ClkPathSetSource
 370              		.thumb
 371              		.thumb_func
 372              		.type	Cy_SysClk_ClkPathSetSource, %function
 373              	Cy_SysClk_ClkPathSetSource:
 374              	.LFB247:
 208:Generated_Source\PSoC6\pdl\drivers\peripheral\sysclk/cy_sysclk.c **** /** \} group_sysclk_eco_funcs */
 209:Generated_Source\PSoC6\pdl\drivers\peripheral\sysclk/cy_sysclk.c **** 
 210:Generated_Source\PSoC6\pdl\drivers\peripheral\sysclk/cy_sysclk.c **** 
 211:Generated_Source\PSoC6\pdl\drivers\peripheral\sysclk/cy_sysclk.c **** /* ========================================================================== */
 212:Generated_Source\PSoC6\pdl\drivers\peripheral\sysclk/cy_sysclk.c **** /* ====================    INPUT MULTIPLEXER SECTION    ===================== */
 213:Generated_Source\PSoC6\pdl\drivers\peripheral\sysclk/cy_sysclk.c **** /* ========================================================================== */
 214:Generated_Source\PSoC6\pdl\drivers\peripheral\sysclk/cy_sysclk.c **** /**
 215:Generated_Source\PSoC6\pdl\drivers\peripheral\sysclk/cy_sysclk.c **** * \addtogroup group_sysclk_path_src_funcs
 216:Generated_Source\PSoC6\pdl\drivers\peripheral\sysclk/cy_sysclk.c **** * \{
 217:Generated_Source\PSoC6\pdl\drivers\peripheral\sysclk/cy_sysclk.c **** */
 218:Generated_Source\PSoC6\pdl\drivers\peripheral\sysclk/cy_sysclk.c **** /*******************************************************************************
 219:Generated_Source\PSoC6\pdl\drivers\peripheral\sysclk/cy_sysclk.c **** * Function Name: Cy_SysClk_ClkPathSetSource
 220:Generated_Source\PSoC6\pdl\drivers\peripheral\sysclk/cy_sysclk.c **** ****************************************************************************//**
 221:Generated_Source\PSoC6\pdl\drivers\peripheral\sysclk/cy_sysclk.c **** *
 222:Generated_Source\PSoC6\pdl\drivers\peripheral\sysclk/cy_sysclk.c **** * Configures the source for the specified clock path.
 223:Generated_Source\PSoC6\pdl\drivers\peripheral\sysclk/cy_sysclk.c **** *
 224:Generated_Source\PSoC6\pdl\drivers\peripheral\sysclk/cy_sysclk.c **** * \param clkPath Selects which clock path to configure; 0 is the first clock
 225:Generated_Source\PSoC6\pdl\drivers\peripheral\sysclk/cy_sysclk.c **** * path, which is the FLL.
 226:Generated_Source\PSoC6\pdl\drivers\peripheral\sysclk/cy_sysclk.c **** *
 227:Generated_Source\PSoC6\pdl\drivers\peripheral\sysclk/cy_sysclk.c **** * \param source \ref cy_en_clkpath_in_sources_t
 228:Generated_Source\PSoC6\pdl\drivers\peripheral\sysclk/cy_sysclk.c **** *
 229:Generated_Source\PSoC6\pdl\drivers\peripheral\sysclk/cy_sysclk.c **** * \return \ref cy_en_sysclk_status_t
 230:Generated_Source\PSoC6\pdl\drivers\peripheral\sysclk/cy_sysclk.c **** *
 231:Generated_Source\PSoC6\pdl\drivers\peripheral\sysclk/cy_sysclk.c **** * \note
 232:Generated_Source\PSoC6\pdl\drivers\peripheral\sysclk/cy_sysclk.c **** * If calling this function changes an FLL or PLL input frequency, disable the FLL
 233:Generated_Source\PSoC6\pdl\drivers\peripheral\sysclk/cy_sysclk.c **** * or PLL before calling this function. After calling this function, call the FLL
 234:Generated_Source\PSoC6\pdl\drivers\peripheral\sysclk/cy_sysclk.c **** * or PLL configure function, for example \ref Cy_SysClk_FllConfigure().
 235:Generated_Source\PSoC6\pdl\drivers\peripheral\sysclk/cy_sysclk.c **** *
 236:Generated_Source\PSoC6\pdl\drivers\peripheral\sysclk/cy_sysclk.c **** * \note
 237:Generated_Source\PSoC6\pdl\drivers\peripheral\sysclk/cy_sysclk.c **** * Call \ref SystemCoreClockUpdate after this function calling 
 238:Generated_Source\PSoC6\pdl\drivers\peripheral\sysclk/cy_sysclk.c **** * if it affects the CLK_HF0 frequency.
ARM GAS  C:\Users\mcfdo\AppData\Local\Temp\cc58ZVDP.s 			page 12


 239:Generated_Source\PSoC6\pdl\drivers\peripheral\sysclk/cy_sysclk.c **** *
 240:Generated_Source\PSoC6\pdl\drivers\peripheral\sysclk/cy_sysclk.c **** * \note
 241:Generated_Source\PSoC6\pdl\drivers\peripheral\sysclk/cy_sysclk.c **** * Call \ref Cy_SysLib_SetWaitStates before calling this function if
 242:Generated_Source\PSoC6\pdl\drivers\peripheral\sysclk/cy_sysclk.c **** * it affects the CLK_HF0 frequency and the frequency is increasing.
 243:Generated_Source\PSoC6\pdl\drivers\peripheral\sysclk/cy_sysclk.c **** *
 244:Generated_Source\PSoC6\pdl\drivers\peripheral\sysclk/cy_sysclk.c **** * \note
 245:Generated_Source\PSoC6\pdl\drivers\peripheral\sysclk/cy_sysclk.c **** * Call \ref Cy_SysLib_SetWaitStates after calling this function if
 246:Generated_Source\PSoC6\pdl\drivers\peripheral\sysclk/cy_sysclk.c **** * it affects the CLK_HF0 frequency and the frequency is decreasing.
 247:Generated_Source\PSoC6\pdl\drivers\peripheral\sysclk/cy_sysclk.c **** *
 248:Generated_Source\PSoC6\pdl\drivers\peripheral\sysclk/cy_sysclk.c **** * \funcusage
 249:Generated_Source\PSoC6\pdl\drivers\peripheral\sysclk/cy_sysclk.c **** * \snippet sysclk/1.20/snippet/main.c snippet_Cy_SysClk_ClkPathSetSource
 250:Generated_Source\PSoC6\pdl\drivers\peripheral\sysclk/cy_sysclk.c **** *
 251:Generated_Source\PSoC6\pdl\drivers\peripheral\sysclk/cy_sysclk.c **** *******************************************************************************/
 252:Generated_Source\PSoC6\pdl\drivers\peripheral\sysclk/cy_sysclk.c **** cy_en_sysclk_status_t Cy_SysClk_ClkPathSetSource(uint32_t clkPath, cy_en_clkpath_in_sources_t sourc
 253:Generated_Source\PSoC6\pdl\drivers\peripheral\sysclk/cy_sysclk.c **** {
 375              		.loc 1 253 0
 376              		.cfi_startproc
 377              		@ args = 0, pretend = 0, frame = 0
 378              		@ frame_needed = 0, uses_anonymous_args = 0
 379              		@ link register save eliminated.
 380              	.LVL33:
 254:Generated_Source\PSoC6\pdl\drivers\peripheral\sysclk/cy_sysclk.c ****     cy_en_sysclk_status_t retVal = CY_SYSCLK_BAD_PARAM;
 255:Generated_Source\PSoC6\pdl\drivers\peripheral\sysclk/cy_sysclk.c ****     if ((clkPath < CY_SRSS_NUM_CLKPATH) &&
 381              		.loc 1 255 0
 382 0000 114B     		ldr	r3, .L45
 383 0002 1B68     		ldr	r3, [r3]
 384 0004 93F83C30 		ldrb	r3, [r3, #60]	@ zero_extendqisi2
 385 0008 8342     		cmp	r3, r0
 386 000a 1AD9     		bls	.L43
 387              		.loc 1 255 0 is_stmt 0 discriminator 1
 388 000c 0429     		cmp	r1, #4
 389 000e 10D9     		bls	.L41
 256:Generated_Source\PSoC6\pdl\drivers\peripheral\sysclk/cy_sysclk.c ****         ((source <= CY_SYSCLK_CLKPATH_IN_DSIMUX) ||
 390              		.loc 1 256 0 is_stmt 1
 391 0010 A1F58073 		sub	r3, r1, #256
 392 0014 132B     		cmp	r3, #19
 393 0016 14D8     		bhi	.L43
 394              	.LVL34:
 395 0018 8000     		lsls	r0, r0, #2
 396              	.LVL35:
 397 001a 00F18040 		add	r0, r0, #1073741824
 398 001e 00F51810 		add	r0, r0, #2490368
 399              	.LBB16:
 400              	.LBB17:
 257:Generated_Source\PSoC6\pdl\drivers\peripheral\sysclk/cy_sysclk.c ****          ((CY_SYSCLK_CLKPATH_IN_DSI <= source) && (source <= CY_SYSCLK_CLKPATH_IN_PILO))))
 258:Generated_Source\PSoC6\pdl\drivers\peripheral\sysclk/cy_sysclk.c ****     {
 259:Generated_Source\PSoC6\pdl\drivers\peripheral\sysclk/cy_sysclk.c ****         if (source >= CY_SYSCLK_CLKPATH_IN_DSI)
 260:Generated_Source\PSoC6\pdl\drivers\peripheral\sysclk/cy_sysclk.c ****         {
 261:Generated_Source\PSoC6\pdl\drivers\peripheral\sysclk/cy_sysclk.c ****             SRSS_CLK_DSI_SELECT[clkPath] = _VAL2FLD(SRSS_CLK_DSI_SELECT_DSI_MUX, (uint32_t)source);
 401              		.loc 1 261 0
 402 0022 01F01F01 		and	r1, r1, #31
 403              	.LVL36:
 262:Generated_Source\PSoC6\pdl\drivers\peripheral\sysclk/cy_sysclk.c ****             SRSS_CLK_PATH_SELECT[clkPath] = _VAL2FLD(SRSS_CLK_PATH_SELECT_PATH_MUX, (uint32_t)CY_SY
 404              		.loc 1 262 0
 405 0026 0423     		movs	r3, #4
 261:Generated_Source\PSoC6\pdl\drivers\peripheral\sysclk/cy_sysclk.c ****             SRSS_CLK_PATH_SELECT[clkPath] = _VAL2FLD(SRSS_CLK_PATH_SELECT_PATH_MUX, (uint32_t)CY_SY
 406              		.loc 1 261 0
ARM GAS  C:\Users\mcfdo\AppData\Local\Temp\cc58ZVDP.s 			page 13


 407 0028 C0F80013 		str	r1, [r0, #768]
 408              		.loc 1 262 0
 409 002c C0F84033 		str	r3, [r0, #832]
 410 0030 05E0     		b	.L44
 411              	.LVL37:
 412              	.L41:
 263:Generated_Source\PSoC6\pdl\drivers\peripheral\sysclk/cy_sysclk.c ****         }
 264:Generated_Source\PSoC6\pdl\drivers\peripheral\sysclk/cy_sysclk.c ****         else
 265:Generated_Source\PSoC6\pdl\drivers\peripheral\sysclk/cy_sysclk.c ****         {
 266:Generated_Source\PSoC6\pdl\drivers\peripheral\sysclk/cy_sysclk.c ****             SRSS_CLK_PATH_SELECT[clkPath] = _VAL2FLD(SRSS_CLK_PATH_SELECT_PATH_MUX, (uint32_t)sourc
 413              		.loc 1 266 0
 414 0032 D030     		adds	r0, r0, #208
 415              	.LVL38:
 416 0034 054B     		ldr	r3, .L45+4
 417 0036 01F00701 		and	r1, r1, #7
 418              	.LVL39:
 419 003a 43F82010 		str	r1, [r3, r0, lsl #2]
 420              	.LVL40:
 421              	.L44:
 422 003e 0020     		movs	r0, #0
 423 0040 7047     		bx	lr
 424              	.LVL41:
 425              	.L43:
 426              	.LBE17:
 427              	.LBE16:
 254:Generated_Source\PSoC6\pdl\drivers\peripheral\sysclk/cy_sysclk.c ****     if ((clkPath < CY_SRSS_NUM_CLKPATH) &&
 428              		.loc 1 254 0
 429 0042 0348     		ldr	r0, .L45+8
 430              	.LVL42:
 267:Generated_Source\PSoC6\pdl\drivers\peripheral\sysclk/cy_sysclk.c ****         }
 268:Generated_Source\PSoC6\pdl\drivers\peripheral\sysclk/cy_sysclk.c ****         retVal = CY_SYSCLK_SUCCESS;
 269:Generated_Source\PSoC6\pdl\drivers\peripheral\sysclk/cy_sysclk.c ****     }
 270:Generated_Source\PSoC6\pdl\drivers\peripheral\sysclk/cy_sysclk.c ****     return (retVal);
 271:Generated_Source\PSoC6\pdl\drivers\peripheral\sysclk/cy_sysclk.c **** }
 431              		.loc 1 271 0
 432 0044 7047     		bx	lr
 433              	.L46:
 434 0046 00BF     		.align	2
 435              	.L45:
 436 0048 00000000 		.word	cy_device
 437 004c 00002640 		.word	1076232192
 438 0050 01004A00 		.word	4849665
 439              		.cfi_endproc
 440              	.LFE247:
 441              		.size	Cy_SysClk_ClkPathSetSource, .-Cy_SysClk_ClkPathSetSource
 442              		.section	.text.Cy_SysClk_ClkPathGetSource,"ax",%progbits
 443              		.align	1
 444              		.global	Cy_SysClk_ClkPathGetSource
 445              		.thumb
 446              		.thumb_func
 447              		.type	Cy_SysClk_ClkPathGetSource, %function
 448              	Cy_SysClk_ClkPathGetSource:
 449              	.LFB248:
 272:Generated_Source\PSoC6\pdl\drivers\peripheral\sysclk/cy_sysclk.c **** 
 273:Generated_Source\PSoC6\pdl\drivers\peripheral\sysclk/cy_sysclk.c **** /*******************************************************************************
 274:Generated_Source\PSoC6\pdl\drivers\peripheral\sysclk/cy_sysclk.c **** * Function Name: Cy_SysClk_ClkPathGetSource
 275:Generated_Source\PSoC6\pdl\drivers\peripheral\sysclk/cy_sysclk.c **** ****************************************************************************//**
ARM GAS  C:\Users\mcfdo\AppData\Local\Temp\cc58ZVDP.s 			page 14


 276:Generated_Source\PSoC6\pdl\drivers\peripheral\sysclk/cy_sysclk.c **** *
 277:Generated_Source\PSoC6\pdl\drivers\peripheral\sysclk/cy_sysclk.c **** * Reports which source is selected for the path mux.
 278:Generated_Source\PSoC6\pdl\drivers\peripheral\sysclk/cy_sysclk.c **** *
 279:Generated_Source\PSoC6\pdl\drivers\peripheral\sysclk/cy_sysclk.c **** * \param clkPath Selects which clock path to report; 0 is the first clock path,
 280:Generated_Source\PSoC6\pdl\drivers\peripheral\sysclk/cy_sysclk.c **** * which is the FLL.
 281:Generated_Source\PSoC6\pdl\drivers\peripheral\sysclk/cy_sysclk.c **** *
 282:Generated_Source\PSoC6\pdl\drivers\peripheral\sysclk/cy_sysclk.c **** * \return \ref cy_en_clkpath_in_sources_t
 283:Generated_Source\PSoC6\pdl\drivers\peripheral\sysclk/cy_sysclk.c **** *
 284:Generated_Source\PSoC6\pdl\drivers\peripheral\sysclk/cy_sysclk.c **** * \funcusage
 285:Generated_Source\PSoC6\pdl\drivers\peripheral\sysclk/cy_sysclk.c **** * \snippet sysclk/1.20/snippet/main.c snippet_Cy_SysClk_ClkPathGetSource
 286:Generated_Source\PSoC6\pdl\drivers\peripheral\sysclk/cy_sysclk.c **** *
 287:Generated_Source\PSoC6\pdl\drivers\peripheral\sysclk/cy_sysclk.c **** *******************************************************************************/
 288:Generated_Source\PSoC6\pdl\drivers\peripheral\sysclk/cy_sysclk.c **** cy_en_clkpath_in_sources_t Cy_SysClk_ClkPathGetSource(uint32_t clkPath)
 289:Generated_Source\PSoC6\pdl\drivers\peripheral\sysclk/cy_sysclk.c **** {
 450              		.loc 1 289 0
 451              		.cfi_startproc
 452              		@ args = 0, pretend = 0, frame = 0
 453              		@ frame_needed = 0, uses_anonymous_args = 0
 454              		@ link register save eliminated.
 455              	.LVL43:
 456 0000 8000     		lsls	r0, r0, #2
 457              	.LVL44:
 458 0002 00F18043 		add	r3, r0, #1073741824
 459 0006 03F51813 		add	r3, r3, #2490368
 290:Generated_Source\PSoC6\pdl\drivers\peripheral\sysclk/cy_sysclk.c ****     CY_ASSERT_L1(clkPath < CY_SRSS_NUM_CLKPATH);
 291:Generated_Source\PSoC6\pdl\drivers\peripheral\sysclk/cy_sysclk.c ****     cy_en_clkpath_in_sources_t retVal =
 292:Generated_Source\PSoC6\pdl\drivers\peripheral\sysclk/cy_sysclk.c ****         (cy_en_clkpath_in_sources_t )_FLD2VAL(SRSS_CLK_PATH_SELECT_PATH_MUX, SRSS_CLK_PATH_SELECT[c
 460              		.loc 1 292 0
 461 000a D3F84003 		ldr	r0, [r3, #832]
 291:Generated_Source\PSoC6\pdl\drivers\peripheral\sysclk/cy_sysclk.c ****         (cy_en_clkpath_in_sources_t )_FLD2VAL(SRSS_CLK_PATH_SELECT_PATH_MUX, SRSS_CLK_PATH_SELECT[c
 462              		.loc 1 291 0
 463 000e 00F00700 		and	r0, r0, #7
 464              	.LVL45:
 293:Generated_Source\PSoC6\pdl\drivers\peripheral\sysclk/cy_sysclk.c ****     if (retVal == CY_SYSCLK_CLKPATH_IN_DSIMUX)
 465              		.loc 1 293 0
 466 0012 0428     		cmp	r0, #4
 294:Generated_Source\PSoC6\pdl\drivers\peripheral\sysclk/cy_sysclk.c ****     {
 295:Generated_Source\PSoC6\pdl\drivers\peripheral\sysclk/cy_sysclk.c ****         retVal = (cy_en_clkpath_in_sources_t)(CY_SYSCLK_CLKPATH_IN_DSI |
 296:Generated_Source\PSoC6\pdl\drivers\peripheral\sysclk/cy_sysclk.c ****                     (_FLD2VAL(SRSS_CLK_DSI_SELECT_DSI_MUX, SRSS_CLK_DSI_SELECT[clkPath])));
 467              		.loc 1 296 0
 468 0014 02BF     		ittt	eq
 469 0016 D3F80003 		ldreq	r0, [r3, #768]
 470              	.LVL46:
 295:Generated_Source\PSoC6\pdl\drivers\peripheral\sysclk/cy_sysclk.c ****                     (_FLD2VAL(SRSS_CLK_DSI_SELECT_DSI_MUX, SRSS_CLK_DSI_SELECT[clkPath])));
 471              		.loc 1 295 0
 472 001a 00F01F00 		andeq	r0, r0, #31
 473 001e 40F48070 		orreq	r0, r0, #256
 474              	.LVL47:
 297:Generated_Source\PSoC6\pdl\drivers\peripheral\sysclk/cy_sysclk.c ****     }
 298:Generated_Source\PSoC6\pdl\drivers\peripheral\sysclk/cy_sysclk.c ****     return retVal;
 299:Generated_Source\PSoC6\pdl\drivers\peripheral\sysclk/cy_sysclk.c **** }
 475              		.loc 1 299 0
 476 0022 7047     		bx	lr
 477              		.cfi_endproc
 478              	.LFE248:
 479              		.size	Cy_SysClk_ClkPathGetSource, .-Cy_SysClk_ClkPathGetSource
 480              		.section	.text.Cy_SysClk_FllManualConfigure,"ax",%progbits
ARM GAS  C:\Users\mcfdo\AppData\Local\Temp\cc58ZVDP.s 			page 15


 481              		.align	1
 482              		.global	Cy_SysClk_FllManualConfigure
 483              		.thumb
 484              		.thumb_func
 485              		.type	Cy_SysClk_FllManualConfigure, %function
 486              	Cy_SysClk_FllManualConfigure:
 487              	.LFB250:
 300:Generated_Source\PSoC6\pdl\drivers\peripheral\sysclk/cy_sysclk.c **** /** \} group_sysclk_path_src_funcs */
 301:Generated_Source\PSoC6\pdl\drivers\peripheral\sysclk/cy_sysclk.c **** 
 302:Generated_Source\PSoC6\pdl\drivers\peripheral\sysclk/cy_sysclk.c **** 
 303:Generated_Source\PSoC6\pdl\drivers\peripheral\sysclk/cy_sysclk.c **** /* ========================================================================== */
 304:Generated_Source\PSoC6\pdl\drivers\peripheral\sysclk/cy_sysclk.c **** /* ===========================    FLL SECTION    ============================ */
 305:Generated_Source\PSoC6\pdl\drivers\peripheral\sysclk/cy_sysclk.c **** /* ========================================================================== */
 306:Generated_Source\PSoC6\pdl\drivers\peripheral\sysclk/cy_sysclk.c **** /* min and max FLL output frequencies, in Hz */
 307:Generated_Source\PSoC6\pdl\drivers\peripheral\sysclk/cy_sysclk.c **** #define  CY_SYSCLK_FLL_MIN_CCO_OUTPUT_FREQ (48000000UL)
 308:Generated_Source\PSoC6\pdl\drivers\peripheral\sysclk/cy_sysclk.c **** #define  CY_SYSCLK_FLL_MIN_OUTPUT_FREQ     (CY_SYSCLK_FLL_MIN_CCO_OUTPUT_FREQ / 2U)
 309:Generated_Source\PSoC6\pdl\drivers\peripheral\sysclk/cy_sysclk.c **** #define  CY_SYSCLK_FLL_MAX_OUTPUT_FREQ     (100000000UL)
 310:Generated_Source\PSoC6\pdl\drivers\peripheral\sysclk/cy_sysclk.c **** 
 311:Generated_Source\PSoC6\pdl\drivers\peripheral\sysclk/cy_sysclk.c **** #define  CY_SYSCLK_FLL_IS_CCO_RANGE_VALID(range) (((range) == CY_SYSCLK_FLL_CCO_RANGE0) || \
 312:Generated_Source\PSoC6\pdl\drivers\peripheral\sysclk/cy_sysclk.c ****                                                   ((range) == CY_SYSCLK_FLL_CCO_RANGE1) || \
 313:Generated_Source\PSoC6\pdl\drivers\peripheral\sysclk/cy_sysclk.c ****                                                   ((range) == CY_SYSCLK_FLL_CCO_RANGE2) || \
 314:Generated_Source\PSoC6\pdl\drivers\peripheral\sysclk/cy_sysclk.c ****                                                   ((range) == CY_SYSCLK_FLL_CCO_RANGE3) || \
 315:Generated_Source\PSoC6\pdl\drivers\peripheral\sysclk/cy_sysclk.c ****                                                   ((range) == CY_SYSCLK_FLL_CCO_RANGE4))
 316:Generated_Source\PSoC6\pdl\drivers\peripheral\sysclk/cy_sysclk.c **** 
 317:Generated_Source\PSoC6\pdl\drivers\peripheral\sysclk/cy_sysclk.c **** /**
 318:Generated_Source\PSoC6\pdl\drivers\peripheral\sysclk/cy_sysclk.c **** * \addtogroup group_sysclk_fll_funcs
 319:Generated_Source\PSoC6\pdl\drivers\peripheral\sysclk/cy_sysclk.c **** * \{
 320:Generated_Source\PSoC6\pdl\drivers\peripheral\sysclk/cy_sysclk.c **** */
 321:Generated_Source\PSoC6\pdl\drivers\peripheral\sysclk/cy_sysclk.c **** /*******************************************************************************
 322:Generated_Source\PSoC6\pdl\drivers\peripheral\sysclk/cy_sysclk.c **** * Function Name: Cy_SysClk_FllConfigure
 323:Generated_Source\PSoC6\pdl\drivers\peripheral\sysclk/cy_sysclk.c **** ****************************************************************************//**
 324:Generated_Source\PSoC6\pdl\drivers\peripheral\sysclk/cy_sysclk.c **** *
 325:Generated_Source\PSoC6\pdl\drivers\peripheral\sysclk/cy_sysclk.c **** * Configures the FLL, for best accuracy optimization.
 326:Generated_Source\PSoC6\pdl\drivers\peripheral\sysclk/cy_sysclk.c **** *
 327:Generated_Source\PSoC6\pdl\drivers\peripheral\sysclk/cy_sysclk.c **** * \param inputFreq frequency of input source, in Hz
 328:Generated_Source\PSoC6\pdl\drivers\peripheral\sysclk/cy_sysclk.c **** *
 329:Generated_Source\PSoC6\pdl\drivers\peripheral\sysclk/cy_sysclk.c **** * \param outputFreq Desired FLL output frequency, in Hz. Allowable range is
 330:Generated_Source\PSoC6\pdl\drivers\peripheral\sysclk/cy_sysclk.c **** * 24 MHz to 100 MHz. In all cases, FLL_OUTPUT_DIV must be set; the output divide
 331:Generated_Source\PSoC6\pdl\drivers\peripheral\sysclk/cy_sysclk.c **** * by 2 option is required.
 332:Generated_Source\PSoC6\pdl\drivers\peripheral\sysclk/cy_sysclk.c **** *
 333:Generated_Source\PSoC6\pdl\drivers\peripheral\sysclk/cy_sysclk.c **** * \param outputMode \ref cy_en_fll_pll_output_mode_t
 334:Generated_Source\PSoC6\pdl\drivers\peripheral\sysclk/cy_sysclk.c **** * If output mode is bypass, then the output frequency equals the input source
 335:Generated_Source\PSoC6\pdl\drivers\peripheral\sysclk/cy_sysclk.c **** * frequency regardless of the frequency parameter values.
 336:Generated_Source\PSoC6\pdl\drivers\peripheral\sysclk/cy_sysclk.c **** *
 337:Generated_Source\PSoC6\pdl\drivers\peripheral\sysclk/cy_sysclk.c **** * \return  Error / status code:<br>
 338:Generated_Source\PSoC6\pdl\drivers\peripheral\sysclk/cy_sysclk.c **** * CY_SYSCLK_SUCCESS - FLL successfully configured<br>
 339:Generated_Source\PSoC6\pdl\drivers\peripheral\sysclk/cy_sysclk.c **** * CY_SYSCLK_INVALID_STATE - FLL not configured because it is enabled<br>
 340:Generated_Source\PSoC6\pdl\drivers\peripheral\sysclk/cy_sysclk.c **** * CY_SYSCLK_BAD_PARAM - desired output frequency is out of valid range
 341:Generated_Source\PSoC6\pdl\drivers\peripheral\sysclk/cy_sysclk.c **** *
 342:Generated_Source\PSoC6\pdl\drivers\peripheral\sysclk/cy_sysclk.c **** * \note
 343:Generated_Source\PSoC6\pdl\drivers\peripheral\sysclk/cy_sysclk.c **** * Call this function after changing the FLL input frequency, for example if
 344:Generated_Source\PSoC6\pdl\drivers\peripheral\sysclk/cy_sysclk.c **** * \ref Cy_SysClk_ClkPathSetSource() is called.
 345:Generated_Source\PSoC6\pdl\drivers\peripheral\sysclk/cy_sysclk.c **** *
 346:Generated_Source\PSoC6\pdl\drivers\peripheral\sysclk/cy_sysclk.c **** * \note
 347:Generated_Source\PSoC6\pdl\drivers\peripheral\sysclk/cy_sysclk.c **** * Do not call this function when the FLL is enabled. If it is called, then this function
 348:Generated_Source\PSoC6\pdl\drivers\peripheral\sysclk/cy_sysclk.c **** * returns immediately with an error return value and no register updates.
 349:Generated_Source\PSoC6\pdl\drivers\peripheral\sysclk/cy_sysclk.c **** *
ARM GAS  C:\Users\mcfdo\AppData\Local\Temp\cc58ZVDP.s 			page 16


 350:Generated_Source\PSoC6\pdl\drivers\peripheral\sysclk/cy_sysclk.c **** * \note 
 351:Generated_Source\PSoC6\pdl\drivers\peripheral\sysclk/cy_sysclk.c **** * Call \ref SystemCoreClockUpdate after this function calling 
 352:Generated_Source\PSoC6\pdl\drivers\peripheral\sysclk/cy_sysclk.c **** * if it affects the CLK_HF0 frequency.
 353:Generated_Source\PSoC6\pdl\drivers\peripheral\sysclk/cy_sysclk.c **** *
 354:Generated_Source\PSoC6\pdl\drivers\peripheral\sysclk/cy_sysclk.c **** * \note 
 355:Generated_Source\PSoC6\pdl\drivers\peripheral\sysclk/cy_sysclk.c **** * Call \ref Cy_SysLib_SetWaitStates before calling this function if
 356:Generated_Source\PSoC6\pdl\drivers\peripheral\sysclk/cy_sysclk.c **** * the FLL is the source of CLK_HF0 and the FLL frequency is increasing.
 357:Generated_Source\PSoC6\pdl\drivers\peripheral\sysclk/cy_sysclk.c **** *
 358:Generated_Source\PSoC6\pdl\drivers\peripheral\sysclk/cy_sysclk.c **** * \note
 359:Generated_Source\PSoC6\pdl\drivers\peripheral\sysclk/cy_sysclk.c **** * Call \ref Cy_SysLib_SetWaitStates after calling this function if
 360:Generated_Source\PSoC6\pdl\drivers\peripheral\sysclk/cy_sysclk.c **** * the FLL is the source of CLK_HF0 and the FLL frequency is decreasing.
 361:Generated_Source\PSoC6\pdl\drivers\peripheral\sysclk/cy_sysclk.c **** *
 362:Generated_Source\PSoC6\pdl\drivers\peripheral\sysclk/cy_sysclk.c **** * \funcusage
 363:Generated_Source\PSoC6\pdl\drivers\peripheral\sysclk/cy_sysclk.c **** * \snippet sysclk/1.20/snippet/main.c snippet_Cy_SysClk_FllConfigure
 364:Generated_Source\PSoC6\pdl\drivers\peripheral\sysclk/cy_sysclk.c **** *
 365:Generated_Source\PSoC6\pdl\drivers\peripheral\sysclk/cy_sysclk.c **** *******************************************************************************/
 366:Generated_Source\PSoC6\pdl\drivers\peripheral\sysclk/cy_sysclk.c **** cy_en_sysclk_status_t Cy_SysClk_FllConfigure(uint32_t inputFreq, uint32_t outputFreq, cy_en_fll_pll
 367:Generated_Source\PSoC6\pdl\drivers\peripheral\sysclk/cy_sysclk.c **** {
 368:Generated_Source\PSoC6\pdl\drivers\peripheral\sysclk/cy_sysclk.c ****     cy_en_sysclk_status_t retVal = CY_SYSCLK_SUCCESS;
 369:Generated_Source\PSoC6\pdl\drivers\peripheral\sysclk/cy_sysclk.c **** 
 370:Generated_Source\PSoC6\pdl\drivers\peripheral\sysclk/cy_sysclk.c ****     /* check for errors */
 371:Generated_Source\PSoC6\pdl\drivers\peripheral\sysclk/cy_sysclk.c ****     if ((outputFreq < CY_SYSCLK_FLL_MIN_OUTPUT_FREQ) || (CY_SYSCLK_FLL_MAX_OUTPUT_FREQ < outputFreq
 372:Generated_Source\PSoC6\pdl\drivers\peripheral\sysclk/cy_sysclk.c ****        (((float32_t)outputFreq / (float32_t)inputFreq) < 2.2f)) /* check output/input frequency rat
 373:Generated_Source\PSoC6\pdl\drivers\peripheral\sysclk/cy_sysclk.c ****     {
 374:Generated_Source\PSoC6\pdl\drivers\peripheral\sysclk/cy_sysclk.c ****         retVal = CY_SYSCLK_BAD_PARAM;
 375:Generated_Source\PSoC6\pdl\drivers\peripheral\sysclk/cy_sysclk.c ****     }
 376:Generated_Source\PSoC6\pdl\drivers\peripheral\sysclk/cy_sysclk.c ****     else /* no errors */
 377:Generated_Source\PSoC6\pdl\drivers\peripheral\sysclk/cy_sysclk.c ****     {
 378:Generated_Source\PSoC6\pdl\drivers\peripheral\sysclk/cy_sysclk.c ****         /* If output mode is bypass (input routed directly to output), then done.
 379:Generated_Source\PSoC6\pdl\drivers\peripheral\sysclk/cy_sysclk.c ****            The output frequency equals the input frequency regardless of the
 380:Generated_Source\PSoC6\pdl\drivers\peripheral\sysclk/cy_sysclk.c ****            frequency parameters. */
 381:Generated_Source\PSoC6\pdl\drivers\peripheral\sysclk/cy_sysclk.c ****         if (outputMode != CY_SYSCLK_FLLPLL_OUTPUT_INPUT)
 382:Generated_Source\PSoC6\pdl\drivers\peripheral\sysclk/cy_sysclk.c ****         {
 383:Generated_Source\PSoC6\pdl\drivers\peripheral\sysclk/cy_sysclk.c ****             cy_stc_fll_manual_config_t config;
 384:Generated_Source\PSoC6\pdl\drivers\peripheral\sysclk/cy_sysclk.c ****             uint32_t ccoFreq;
 385:Generated_Source\PSoC6\pdl\drivers\peripheral\sysclk/cy_sysclk.c ****             bool wcoSource = ((Cy_SysClk_ClkPathGetSource(0UL/*FLL*/) == CY_SYSCLK_CLKPATH_IN_WCO) 
 386:Generated_Source\PSoC6\pdl\drivers\peripheral\sysclk/cy_sysclk.c **** 
 387:Generated_Source\PSoC6\pdl\drivers\peripheral\sysclk/cy_sysclk.c ****             config.outputMode = outputMode;
 388:Generated_Source\PSoC6\pdl\drivers\peripheral\sysclk/cy_sysclk.c ****             /* 1. Output division by 2 is always required. */
 389:Generated_Source\PSoC6\pdl\drivers\peripheral\sysclk/cy_sysclk.c ****             config.enableOutputDiv = (bool)(1UL);
 390:Generated_Source\PSoC6\pdl\drivers\peripheral\sysclk/cy_sysclk.c ****             /* 2. Compute the target CCO frequency from the target output frequency and output divi
 391:Generated_Source\PSoC6\pdl\drivers\peripheral\sysclk/cy_sysclk.c ****             ccoFreq = outputFreq * ((uint32_t)(config.enableOutputDiv) + 1UL);
 392:Generated_Source\PSoC6\pdl\drivers\peripheral\sysclk/cy_sysclk.c ****             /* 3. Compute the CCO range value from the CCO frequency */
 393:Generated_Source\PSoC6\pdl\drivers\peripheral\sysclk/cy_sysclk.c ****             config.ccoRange = ((ccoFreq >= 150339200UL) ? CY_SYSCLK_FLL_CCO_RANGE4 :
 394:Generated_Source\PSoC6\pdl\drivers\peripheral\sysclk/cy_sysclk.c ****                                ((ccoFreq >= 113009380UL) ? CY_SYSCLK_FLL_CCO_RANGE3 :
 395:Generated_Source\PSoC6\pdl\drivers\peripheral\sysclk/cy_sysclk.c ****                                 ((ccoFreq >=  84948700UL) ? CY_SYSCLK_FLL_CCO_RANGE2 :
 396:Generated_Source\PSoC6\pdl\drivers\peripheral\sysclk/cy_sysclk.c ****                                  ((ccoFreq >=  63855600UL) ? CY_SYSCLK_FLL_CCO_RANGE1 : CY_SYSCLK_F
 397:Generated_Source\PSoC6\pdl\drivers\peripheral\sysclk/cy_sysclk.c ****             {
 398:Generated_Source\PSoC6\pdl\drivers\peripheral\sysclk/cy_sysclk.c ****                 /* constants indexed by ccoRange */
 399:Generated_Source\PSoC6\pdl\drivers\peripheral\sysclk/cy_sysclk.c ****                 const float32_t trimSteps[] = {0.0011034f, 0.001102f, 0.0011f, 0.0011f, 0.00117062f
 400:Generated_Source\PSoC6\pdl\drivers\peripheral\sysclk/cy_sysclk.c ****                 const float32_t fMargin[] = {43600000.0f, 58100000.0f, 77200000.0f, 103000000.0f, 1
 401:Generated_Source\PSoC6\pdl\drivers\peripheral\sysclk/cy_sysclk.c **** 
 402:Generated_Source\PSoC6\pdl\drivers\peripheral\sysclk/cy_sysclk.c ****             /* 4. Compute the FLL reference divider value.
 403:Generated_Source\PSoC6\pdl\drivers\peripheral\sysclk/cy_sysclk.c ****                   refDiv is a constant if the WCO is the FLL source; otherwise the formula is
 404:Generated_Source\PSoC6\pdl\drivers\peripheral\sysclk/cy_sysclk.c ****                   refDiv = ROUNDUP((inputFreq / outputFreq) * 250) */
 405:Generated_Source\PSoC6\pdl\drivers\peripheral\sysclk/cy_sysclk.c ****                 config.refDiv = wcoSource ? 19U : ((uint16_t)ceilf(((float32_t)inputFreq / (float32
 406:Generated_Source\PSoC6\pdl\drivers\peripheral\sysclk/cy_sysclk.c ****             /* 5. Compute the FLL multiplier value.
ARM GAS  C:\Users\mcfdo\AppData\Local\Temp\cc58ZVDP.s 			page 17


 407:Generated_Source\PSoC6\pdl\drivers\peripheral\sysclk/cy_sysclk.c ****                   Formula is fllMult = ccoFreq / (inputFreq / refDiv) */
 408:Generated_Source\PSoC6\pdl\drivers\peripheral\sysclk/cy_sysclk.c ****                 config.fllMult = CY_SYSCLK_DIV_ROUNDUP(ccoFreq, CY_SYSCLK_DIV_ROUND(inputFreq, (uin
 409:Generated_Source\PSoC6\pdl\drivers\peripheral\sysclk/cy_sysclk.c ****             /* 6. Compute the lock tolerance.
 410:Generated_Source\PSoC6\pdl\drivers\peripheral\sysclk/cy_sysclk.c ****                   Formula is lock tolerance = 1.5 * fllMult * (((1 + CCO accuracy) / (1 - source cl
 411:Generated_Source\PSoC6\pdl\drivers\peripheral\sysclk/cy_sysclk.c ****                   We assume CCO accuracy is 0.25%.
 412:Generated_Source\PSoC6\pdl\drivers\peripheral\sysclk/cy_sysclk.c ****                   We assume the source clock accuracy = 1%. This is the accuracy of the IMO.
 413:Generated_Source\PSoC6\pdl\drivers\peripheral\sysclk/cy_sysclk.c ****                   Therefore the formula is lock tolerance = 1.5 * fllMult * 0.012626 = 0.018939 * f
 414:Generated_Source\PSoC6\pdl\drivers\peripheral\sysclk/cy_sysclk.c ****                 config.lockTolerance = (uint16_t)ceilf((float32_t)(config.fllMult) * 0.018939f);
 415:Generated_Source\PSoC6\pdl\drivers\peripheral\sysclk/cy_sysclk.c ****             /* 7. Compute the CCO igain and pgain. */
 416:Generated_Source\PSoC6\pdl\drivers\peripheral\sysclk/cy_sysclk.c ****                 {
 417:Generated_Source\PSoC6\pdl\drivers\peripheral\sysclk/cy_sysclk.c ****                     /* intermediate parameters */
 418:Generated_Source\PSoC6\pdl\drivers\peripheral\sysclk/cy_sysclk.c ****                     float32_t kcco = (trimSteps[config.ccoRange] * fMargin[config.ccoRange]) / 1000
 419:Generated_Source\PSoC6\pdl\drivers\peripheral\sysclk/cy_sysclk.c ****                     float32_t ki_p = (0.85f / (kcco * ((float32_t)(config.refDiv) / (float32_t)inpu
 420:Generated_Source\PSoC6\pdl\drivers\peripheral\sysclk/cy_sysclk.c **** 
 421:Generated_Source\PSoC6\pdl\drivers\peripheral\sysclk/cy_sysclk.c ****                     /* igain and pgain bitfield values correspond to: 1/256, 1/128, ..., 4, 8 */
 422:Generated_Source\PSoC6\pdl\drivers\peripheral\sysclk/cy_sysclk.c ****                     const float32_t gains[] = {0.00390625f, 0.0078125f, 0.015625f, 0.03125f, 0.0625
 423:Generated_Source\PSoC6\pdl\drivers\peripheral\sysclk/cy_sysclk.c ****                                                0.5f, 1.0f, 2.0f, 4.0f, 8.0f};
 424:Generated_Source\PSoC6\pdl\drivers\peripheral\sysclk/cy_sysclk.c **** 
 425:Generated_Source\PSoC6\pdl\drivers\peripheral\sysclk/cy_sysclk.c ****                     /* find the largest IGAIN value that is less than or equal to ki_p */
 426:Generated_Source\PSoC6\pdl\drivers\peripheral\sysclk/cy_sysclk.c ****                     for(config.igain = (uint8_t)(CY_SYSCLK_N_ELMTS(gains) - 1UL);
 427:Generated_Source\PSoC6\pdl\drivers\peripheral\sysclk/cy_sysclk.c ****                         (gains[config.igain] > ki_p) && (config.igain != 0UL); config.igain--){}
 428:Generated_Source\PSoC6\pdl\drivers\peripheral\sysclk/cy_sysclk.c ****                     /* decrement igain if the WCO is the FLL source */
 429:Generated_Source\PSoC6\pdl\drivers\peripheral\sysclk/cy_sysclk.c ****                     if (wcoSource && (config.igain > 0U))
 430:Generated_Source\PSoC6\pdl\drivers\peripheral\sysclk/cy_sysclk.c ****                     {
 431:Generated_Source\PSoC6\pdl\drivers\peripheral\sysclk/cy_sysclk.c ****                         config.igain--;
 432:Generated_Source\PSoC6\pdl\drivers\peripheral\sysclk/cy_sysclk.c ****                     }
 433:Generated_Source\PSoC6\pdl\drivers\peripheral\sysclk/cy_sysclk.c ****                     /* then find the largest PGAIN value that is less than or equal to ki_p - gains
 434:Generated_Source\PSoC6\pdl\drivers\peripheral\sysclk/cy_sysclk.c ****                     for(config.pgain = (uint8_t)(CY_SYSCLK_N_ELMTS(gains) - 1UL);
 435:Generated_Source\PSoC6\pdl\drivers\peripheral\sysclk/cy_sysclk.c ****                         (gains[config.pgain] > (ki_p - gains[config.igain])) && (config.pgain != 0U
 436:Generated_Source\PSoC6\pdl\drivers\peripheral\sysclk/cy_sysclk.c ****                         config.pgain--){}
 437:Generated_Source\PSoC6\pdl\drivers\peripheral\sysclk/cy_sysclk.c ****                     /* decrement pgain if the WCO is the FLL source */
 438:Generated_Source\PSoC6\pdl\drivers\peripheral\sysclk/cy_sysclk.c ****                     if (wcoSource && (config.pgain > 0U))
 439:Generated_Source\PSoC6\pdl\drivers\peripheral\sysclk/cy_sysclk.c ****                     {
 440:Generated_Source\PSoC6\pdl\drivers\peripheral\sysclk/cy_sysclk.c ****                         config.pgain--;
 441:Generated_Source\PSoC6\pdl\drivers\peripheral\sysclk/cy_sysclk.c ****                     }
 442:Generated_Source\PSoC6\pdl\drivers\peripheral\sysclk/cy_sysclk.c ****                 }
 443:Generated_Source\PSoC6\pdl\drivers\peripheral\sysclk/cy_sysclk.c ****             /* 8. Compute the CCO_FREQ bits in CLK_FLL_CONFIG4 register. */
 444:Generated_Source\PSoC6\pdl\drivers\peripheral\sysclk/cy_sysclk.c ****                 config.cco_Freq = (uint16_t)floor(log((float64_t)((float32_t)ccoFreq / fMargin[conf
 445:Generated_Source\PSoC6\pdl\drivers\peripheral\sysclk/cy_sysclk.c ****                                                    log((float64_t)(1.0f + trimSteps[config.ccoRange
 446:Generated_Source\PSoC6\pdl\drivers\peripheral\sysclk/cy_sysclk.c ****             }
 447:Generated_Source\PSoC6\pdl\drivers\peripheral\sysclk/cy_sysclk.c ****             /* 9. Compute the settling count, using a 1 usec settling time.
 448:Generated_Source\PSoC6\pdl\drivers\peripheral\sysclk/cy_sysclk.c ****                   Use a constant if the WCO is the FLL source. */
 449:Generated_Source\PSoC6\pdl\drivers\peripheral\sysclk/cy_sysclk.c ****             {
 450:Generated_Source\PSoC6\pdl\drivers\peripheral\sysclk/cy_sysclk.c ****                 float32_t ttref   = (float32_t)config.refDiv / ((float32_t)inputFreq / 1000.0f);
 451:Generated_Source\PSoC6\pdl\drivers\peripheral\sysclk/cy_sysclk.c ****                 float32_t testval = 6000.0f / (float32_t)outputFreq;
 452:Generated_Source\PSoC6\pdl\drivers\peripheral\sysclk/cy_sysclk.c ****                 float32_t divval  = (float32_t)ceil((float64_t)((float32_t)inputFreq * 0.000001f));
 453:Generated_Source\PSoC6\pdl\drivers\peripheral\sysclk/cy_sysclk.c ****                 float32_t altval  = (float32_t)ceil((float64_t)((divval / ttref) + 1.0f));
 454:Generated_Source\PSoC6\pdl\drivers\peripheral\sysclk/cy_sysclk.c ****                 config.settlingCount = wcoSource ? 200U : (uint16)
 455:Generated_Source\PSoC6\pdl\drivers\peripheral\sysclk/cy_sysclk.c ****                               ((ttref > testval) ? divval :
 456:Generated_Source\PSoC6\pdl\drivers\peripheral\sysclk/cy_sysclk.c ****                               ((divval > altval) ? divval : altval));
 457:Generated_Source\PSoC6\pdl\drivers\peripheral\sysclk/cy_sysclk.c ****             }
 458:Generated_Source\PSoC6\pdl\drivers\peripheral\sysclk/cy_sysclk.c ****             /* configure FLL based on calculated values */
 459:Generated_Source\PSoC6\pdl\drivers\peripheral\sysclk/cy_sysclk.c ****             retVal = Cy_SysClk_FllManualConfigure(&config);
 460:Generated_Source\PSoC6\pdl\drivers\peripheral\sysclk/cy_sysclk.c ****         } /* if not, bypass output mode */
 461:Generated_Source\PSoC6\pdl\drivers\peripheral\sysclk/cy_sysclk.c ****         else
 462:Generated_Source\PSoC6\pdl\drivers\peripheral\sysclk/cy_sysclk.c ****         { /* bypass mode */
 463:Generated_Source\PSoC6\pdl\drivers\peripheral\sysclk/cy_sysclk.c ****             /* update CLK_FLL_CONFIG3 register with divide by 2 parameter */
ARM GAS  C:\Users\mcfdo\AppData\Local\Temp\cc58ZVDP.s 			page 18


 464:Generated_Source\PSoC6\pdl\drivers\peripheral\sysclk/cy_sysclk.c ****             CY_REG32_CLR_SET(SRSS_CLK_FLL_CONFIG3, SRSS_CLK_FLL_CONFIG3_BYPASS_SEL, CY_SYSCLK_FLLPL
 465:Generated_Source\PSoC6\pdl\drivers\peripheral\sysclk/cy_sysclk.c ****         }
 466:Generated_Source\PSoC6\pdl\drivers\peripheral\sysclk/cy_sysclk.c ****     }
 467:Generated_Source\PSoC6\pdl\drivers\peripheral\sysclk/cy_sysclk.c **** 
 468:Generated_Source\PSoC6\pdl\drivers\peripheral\sysclk/cy_sysclk.c ****     return (retVal);
 469:Generated_Source\PSoC6\pdl\drivers\peripheral\sysclk/cy_sysclk.c **** }
 470:Generated_Source\PSoC6\pdl\drivers\peripheral\sysclk/cy_sysclk.c **** 
 471:Generated_Source\PSoC6\pdl\drivers\peripheral\sysclk/cy_sysclk.c **** /*******************************************************************************
 472:Generated_Source\PSoC6\pdl\drivers\peripheral\sysclk/cy_sysclk.c **** * Function Name: Cy_SysClk_FllManualConfigure
 473:Generated_Source\PSoC6\pdl\drivers\peripheral\sysclk/cy_sysclk.c **** ****************************************************************************//**
 474:Generated_Source\PSoC6\pdl\drivers\peripheral\sysclk/cy_sysclk.c **** *
 475:Generated_Source\PSoC6\pdl\drivers\peripheral\sysclk/cy_sysclk.c **** * Manually configures the FLL based on user inputs.
 476:Generated_Source\PSoC6\pdl\drivers\peripheral\sysclk/cy_sysclk.c **** *
 477:Generated_Source\PSoC6\pdl\drivers\peripheral\sysclk/cy_sysclk.c **** * \param config \ref cy_stc_fll_manual_config_t
 478:Generated_Source\PSoC6\pdl\drivers\peripheral\sysclk/cy_sysclk.c **** *
 479:Generated_Source\PSoC6\pdl\drivers\peripheral\sysclk/cy_sysclk.c **** * \return  Error / status code:<br>
 480:Generated_Source\PSoC6\pdl\drivers\peripheral\sysclk/cy_sysclk.c **** * CY_SYSCLK_SUCCESS - FLL successfully configured<br>
 481:Generated_Source\PSoC6\pdl\drivers\peripheral\sysclk/cy_sysclk.c **** * CY_SYSCLK_INVALID_STATE - FLL not configured because it is enabled
 482:Generated_Source\PSoC6\pdl\drivers\peripheral\sysclk/cy_sysclk.c **** *
 483:Generated_Source\PSoC6\pdl\drivers\peripheral\sysclk/cy_sysclk.c **** * \note
 484:Generated_Source\PSoC6\pdl\drivers\peripheral\sysclk/cy_sysclk.c **** * Call this function after changing the FLL input frequency, for example if
 485:Generated_Source\PSoC6\pdl\drivers\peripheral\sysclk/cy_sysclk.c **** * \ref Cy_SysClk_ClkPathSetSource() is called.
 486:Generated_Source\PSoC6\pdl\drivers\peripheral\sysclk/cy_sysclk.c **** *
 487:Generated_Source\PSoC6\pdl\drivers\peripheral\sysclk/cy_sysclk.c **** * \note
 488:Generated_Source\PSoC6\pdl\drivers\peripheral\sysclk/cy_sysclk.c **** * Do not call this function when the FLL is enabled. If it is called, then this function
 489:Generated_Source\PSoC6\pdl\drivers\peripheral\sysclk/cy_sysclk.c **** * returns immediately with an error return value and no register updates.
 490:Generated_Source\PSoC6\pdl\drivers\peripheral\sysclk/cy_sysclk.c **** *
 491:Generated_Source\PSoC6\pdl\drivers\peripheral\sysclk/cy_sysclk.c **** * \note 
 492:Generated_Source\PSoC6\pdl\drivers\peripheral\sysclk/cy_sysclk.c **** * Call \ref SystemCoreClockUpdate after this function calling 
 493:Generated_Source\PSoC6\pdl\drivers\peripheral\sysclk/cy_sysclk.c **** * if it affects the CLK_HF0 frequency.
 494:Generated_Source\PSoC6\pdl\drivers\peripheral\sysclk/cy_sysclk.c **** *
 495:Generated_Source\PSoC6\pdl\drivers\peripheral\sysclk/cy_sysclk.c **** * \note 
 496:Generated_Source\PSoC6\pdl\drivers\peripheral\sysclk/cy_sysclk.c **** * Call \ref Cy_SysLib_SetWaitStates before calling this function if
 497:Generated_Source\PSoC6\pdl\drivers\peripheral\sysclk/cy_sysclk.c **** * the FLL is the source of CLK_HF0 and the FLL frequency is increasing.
 498:Generated_Source\PSoC6\pdl\drivers\peripheral\sysclk/cy_sysclk.c **** *
 499:Generated_Source\PSoC6\pdl\drivers\peripheral\sysclk/cy_sysclk.c **** * \note
 500:Generated_Source\PSoC6\pdl\drivers\peripheral\sysclk/cy_sysclk.c **** * Call \ref Cy_SysLib_SetWaitStates after calling this function if
 501:Generated_Source\PSoC6\pdl\drivers\peripheral\sysclk/cy_sysclk.c **** * the FLL is the source of CLK_HF0 and the FLL frequency is decreasing.
 502:Generated_Source\PSoC6\pdl\drivers\peripheral\sysclk/cy_sysclk.c **** *
 503:Generated_Source\PSoC6\pdl\drivers\peripheral\sysclk/cy_sysclk.c **** * \funcusage
 504:Generated_Source\PSoC6\pdl\drivers\peripheral\sysclk/cy_sysclk.c **** * \snippet sysclk/1.20/snippet/main.c snippet_Cy_SysClk_FllManualConfigure
 505:Generated_Source\PSoC6\pdl\drivers\peripheral\sysclk/cy_sysclk.c **** *
 506:Generated_Source\PSoC6\pdl\drivers\peripheral\sysclk/cy_sysclk.c **** *******************************************************************************/
 507:Generated_Source\PSoC6\pdl\drivers\peripheral\sysclk/cy_sysclk.c **** cy_en_sysclk_status_t Cy_SysClk_FllManualConfigure(const cy_stc_fll_manual_config_t *config)
 508:Generated_Source\PSoC6\pdl\drivers\peripheral\sysclk/cy_sysclk.c **** {
 488              		.loc 1 508 0
 489              		.cfi_startproc
 490              		@ args = 0, pretend = 0, frame = 0
 491              		@ frame_needed = 0, uses_anonymous_args = 0
 492              	.LVL48:
 509:Generated_Source\PSoC6\pdl\drivers\peripheral\sysclk/cy_sysclk.c ****     cy_en_sysclk_status_t retVal = CY_SYSCLK_SUCCESS;
 510:Generated_Source\PSoC6\pdl\drivers\peripheral\sysclk/cy_sysclk.c **** 
 511:Generated_Source\PSoC6\pdl\drivers\peripheral\sysclk/cy_sysclk.c ****     CY_ASSERT_L1(config != NULL);
 512:Generated_Source\PSoC6\pdl\drivers\peripheral\sysclk/cy_sysclk.c ****     /* check for errors */
 513:Generated_Source\PSoC6\pdl\drivers\peripheral\sysclk/cy_sysclk.c ****     if (_FLD2BOOL(SRSS_CLK_FLL_CONFIG_FLL_ENABLE, SRSS_CLK_FLL_CONFIG)) /* if enabled */
 493              		.loc 1 513 0
 494 0000 254B     		ldr	r3, .L54
ARM GAS  C:\Users\mcfdo\AppData\Local\Temp\cc58ZVDP.s 			page 19


 495 0002 D3F88025 		ldr	r2, [r3, #1408]
 496 0006 002A     		cmp	r2, #0
 508:Generated_Source\PSoC6\pdl\drivers\peripheral\sysclk/cy_sysclk.c ****     cy_en_sysclk_status_t retVal = CY_SYSCLK_SUCCESS;
 497              		.loc 1 508 0
 498 0008 10B5     		push	{r4, lr}
 499              		.cfi_def_cfa_offset 8
 500              		.cfi_offset 4, -8
 501              		.cfi_offset 14, -4
 502              		.loc 1 513 0
 503 000a 42DB     		blt	.L52
 504              	.LVL49:
 505              	.LBB20:
 506              	.LBB21:
 514:Generated_Source\PSoC6\pdl\drivers\peripheral\sysclk/cy_sysclk.c ****     {
 515:Generated_Source\PSoC6\pdl\drivers\peripheral\sysclk/cy_sysclk.c ****         retVal = CY_SYSCLK_INVALID_STATE;
 516:Generated_Source\PSoC6\pdl\drivers\peripheral\sysclk/cy_sysclk.c ****     }
 517:Generated_Source\PSoC6\pdl\drivers\peripheral\sysclk/cy_sysclk.c ****     else /* no errors */
 518:Generated_Source\PSoC6\pdl\drivers\peripheral\sysclk/cy_sysclk.c ****     {
 519:Generated_Source\PSoC6\pdl\drivers\peripheral\sysclk/cy_sysclk.c ****         /* update CLK_FLL_CONFIG register with 2 parameters; FLL_ENABLE is already 0 */
 520:Generated_Source\PSoC6\pdl\drivers\peripheral\sysclk/cy_sysclk.c ****         /* asserts just check for bitfield overflow */
 521:Generated_Source\PSoC6\pdl\drivers\peripheral\sysclk/cy_sysclk.c ****         CY_ASSERT_L1(config->fllMult <= (SRSS_CLK_FLL_CONFIG_FLL_MULT_Msk >> SRSS_CLK_FLL_CONFIG_FL
 522:Generated_Source\PSoC6\pdl\drivers\peripheral\sysclk/cy_sysclk.c **** 
 523:Generated_Source\PSoC6\pdl\drivers\peripheral\sysclk/cy_sysclk.c ****         SRSS_CLK_FLL_CONFIG = _VAL2FLD(SRSS_CLK_FLL_CONFIG_FLL_MULT, config->fllMult) |
 507              		.loc 1 523 0
 508 000c 0268     		ldr	r2, [r0]
 524:Generated_Source\PSoC6\pdl\drivers\peripheral\sysclk/cy_sysclk.c ****                              _BOOL2FLD(SRSS_CLK_FLL_CONFIG_FLL_OUTPUT_DIV, config->enableOutputDiv)
 525:Generated_Source\PSoC6\pdl\drivers\peripheral\sysclk/cy_sysclk.c **** 
 526:Generated_Source\PSoC6\pdl\drivers\peripheral\sysclk/cy_sysclk.c ****         /* update CLK_FLL_CONFIG2 register with 2 parameters */
 527:Generated_Source\PSoC6\pdl\drivers\peripheral\sysclk/cy_sysclk.c ****         /* asserts just check for bitfield overflow */
 528:Generated_Source\PSoC6\pdl\drivers\peripheral\sysclk/cy_sysclk.c ****         CY_ASSERT_L1(config->refDiv <= (SRSS_CLK_FLL_CONFIG2_FLL_REF_DIV_Msk >> SRSS_CLK_FLL_CONFIG
 529:Generated_Source\PSoC6\pdl\drivers\peripheral\sysclk/cy_sysclk.c ****         CY_ASSERT_L1(config->lockTolerance <= (SRSS_CLK_FLL_CONFIG2_LOCK_TOL_Msk >> SRSS_CLK_FLL_CO
 530:Generated_Source\PSoC6\pdl\drivers\peripheral\sysclk/cy_sysclk.c **** 
 531:Generated_Source\PSoC6\pdl\drivers\peripheral\sysclk/cy_sysclk.c ****         SRSS_CLK_FLL_CONFIG2 = _VAL2FLD(SRSS_CLK_FLL_CONFIG2_FLL_REF_DIV, config->refDiv) |
 532:Generated_Source\PSoC6\pdl\drivers\peripheral\sysclk/cy_sysclk.c ****                                _VAL2FLD(SRSS_CLK_FLL_CONFIG2_LOCK_TOL, config->lockTolerance);
 533:Generated_Source\PSoC6\pdl\drivers\peripheral\sysclk/cy_sysclk.c **** 
 534:Generated_Source\PSoC6\pdl\drivers\peripheral\sysclk/cy_sysclk.c ****         /* update CLK_FLL_CONFIG3 register with 4 parameters */
 535:Generated_Source\PSoC6\pdl\drivers\peripheral\sysclk/cy_sysclk.c ****         /* asserts just check for bitfield overflow */
 536:Generated_Source\PSoC6\pdl\drivers\peripheral\sysclk/cy_sysclk.c ****         CY_ASSERT_L1(config->igain <= (SRSS_CLK_FLL_CONFIG3_FLL_LF_IGAIN_Msk >> SRSS_CLK_FLL_CONFIG
 537:Generated_Source\PSoC6\pdl\drivers\peripheral\sysclk/cy_sysclk.c ****         CY_ASSERT_L1(config->pgain <= (SRSS_CLK_FLL_CONFIG3_FLL_LF_PGAIN_Msk >> SRSS_CLK_FLL_CONFIG
 538:Generated_Source\PSoC6\pdl\drivers\peripheral\sysclk/cy_sysclk.c ****         CY_ASSERT_L1(config->settlingCount <= (SRSS_CLK_FLL_CONFIG3_SETTLING_COUNT_Msk >> SRSS_CLK_
 539:Generated_Source\PSoC6\pdl\drivers\peripheral\sysclk/cy_sysclk.c **** 
 540:Generated_Source\PSoC6\pdl\drivers\peripheral\sysclk/cy_sysclk.c ****         SRSS_CLK_FLL_CONFIG3 = _VAL2FLD(SRSS_CLK_FLL_CONFIG3_FLL_LF_IGAIN, config->igain) |
 541:Generated_Source\PSoC6\pdl\drivers\peripheral\sysclk/cy_sysclk.c ****                                _VAL2FLD(SRSS_CLK_FLL_CONFIG3_FLL_LF_PGAIN, config->pgain) |
 542:Generated_Source\PSoC6\pdl\drivers\peripheral\sysclk/cy_sysclk.c ****                                _VAL2FLD(SRSS_CLK_FLL_CONFIG3_SETTLING_COUNT, config->settlingCount)
 509              		.loc 1 542 0
 510 000e 8489     		ldrh	r4, [r0, #12]
 523:Generated_Source\PSoC6\pdl\drivers\peripheral\sysclk/cy_sysclk.c ****                              _BOOL2FLD(SRSS_CLK_FLL_CONFIG_FLL_OUTPUT_DIV, config->enableOutputDiv)
 511              		.loc 1 523 0
 512 0010 C2F31101 		ubfx	r1, r2, #0, #18
 524:Generated_Source\PSoC6\pdl\drivers\peripheral\sysclk/cy_sysclk.c ****                              _BOOL2FLD(SRSS_CLK_FLL_CONFIG_FLL_OUTPUT_DIV, config->enableOutputDiv)
 513              		.loc 1 524 0
 514 0014 C279     		ldrb	r2, [r0, #7]	@ zero_extendqisi2
 515 0016 002A     		cmp	r2, #0
 516 0018 14BF     		ite	ne
 517 001a 4FF08072 		movne	r2, #16777216
 518 001e 0022     		moveq	r2, #0
 523:Generated_Source\PSoC6\pdl\drivers\peripheral\sysclk/cy_sysclk.c ****                              _BOOL2FLD(SRSS_CLK_FLL_CONFIG_FLL_OUTPUT_DIV, config->enableOutputDiv)
ARM GAS  C:\Users\mcfdo\AppData\Local\Temp\cc58ZVDP.s 			page 20


 519              		.loc 1 523 0
 520 0020 0A43     		orrs	r2, r2, r1
 521 0022 C3F88025 		str	r2, [r3, #1408]
 531:Generated_Source\PSoC6\pdl\drivers\peripheral\sysclk/cy_sysclk.c ****                                _VAL2FLD(SRSS_CLK_FLL_CONFIG2_LOCK_TOL, config->lockTolerance);
 522              		.loc 1 531 0
 523 0026 0289     		ldrh	r2, [r0, #8]
 524 0028 1C49     		ldr	r1, .L54+4
 525 002a 1204     		lsls	r2, r2, #16
 526 002c 1140     		ands	r1, r1, r2
 527 002e 8288     		ldrh	r2, [r0, #4]
 528 0030 C2F30C02 		ubfx	r2, r2, #0, #13
 529 0034 0A43     		orrs	r2, r2, r1
 530 0036 C3F88425 		str	r2, [r3, #1412]
 531              		.loc 1 542 0
 532 003a C17A     		ldrb	r1, [r0, #11]	@ zero_extendqisi2
 533 003c 184A     		ldr	r2, .L54+8
 534 003e 2402     		lsls	r4, r4, #8
 535 0040 0901     		lsls	r1, r1, #4
 536 0042 2240     		ands	r2, r2, r4
 537 0044 C9B2     		uxtb	r1, r1
 538 0046 1143     		orrs	r1, r1, r2
 539 0048 827A     		ldrb	r2, [r0, #10]	@ zero_extendqisi2
 540 004a 02F00F02 		and	r2, r2, #15
 541 004e 1143     		orrs	r1, r1, r2
 542 0050 827B     		ldrb	r2, [r0, #14]	@ zero_extendqisi2
 543 0052 1207     		lsls	r2, r2, #28
 544 0054 02F04052 		and	r2, r2, #805306368
 545 0058 0A43     		orrs	r2, r2, r1
 540:Generated_Source\PSoC6\pdl\drivers\peripheral\sysclk/cy_sysclk.c ****                                _VAL2FLD(SRSS_CLK_FLL_CONFIG3_FLL_LF_PGAIN, config->pgain) |
 546              		.loc 1 540 0
 547 005a C3F88825 		str	r2, [r3, #1416]
 543:Generated_Source\PSoC6\pdl\drivers\peripheral\sysclk/cy_sysclk.c ****                                _VAL2FLD(SRSS_CLK_FLL_CONFIG3_BYPASS_SEL, config->outputMode);
 544:Generated_Source\PSoC6\pdl\drivers\peripheral\sysclk/cy_sysclk.c **** 
 545:Generated_Source\PSoC6\pdl\drivers\peripheral\sysclk/cy_sysclk.c ****         /* update CLK_FLL_CONFIG4 register with 1 parameter; preserve other bits */
 546:Generated_Source\PSoC6\pdl\drivers\peripheral\sysclk/cy_sysclk.c ****         /* asserts just check for bitfield overflow */
 547:Generated_Source\PSoC6\pdl\drivers\peripheral\sysclk/cy_sysclk.c ****         CY_ASSERT_L1(CY_SYSCLK_FLL_IS_CCO_RANGE_VALID(config->ccoRange));
 548:Generated_Source\PSoC6\pdl\drivers\peripheral\sysclk/cy_sysclk.c ****         CY_ASSERT_L1(config->cco_Freq <= (SRSS_CLK_FLL_CONFIG4_CCO_FREQ_Msk >> SRSS_CLK_FLL_CONFIG4
 549:Generated_Source\PSoC6\pdl\drivers\peripheral\sysclk/cy_sysclk.c **** 
 550:Generated_Source\PSoC6\pdl\drivers\peripheral\sysclk/cy_sysclk.c ****         CY_REG32_CLR_SET(SRSS_CLK_FLL_CONFIG4, SRSS_CLK_FLL_CONFIG4_CCO_RANGE, (uint32_t)(config->c
 548              		.loc 1 550 0
 549 005e 8179     		ldrb	r1, [r0, #6]	@ zero_extendqisi2
 550 0060 D3F88C25 		ldr	r2, [r3, #1420]
 551 0064 0902     		lsls	r1, r1, #8
 552 0066 01F4E061 		and	r1, r1, #1792
 553 006a 22F4E062 		bic	r2, r2, #1792
 554 006e 0A43     		orrs	r2, r2, r1
 555 0070 C3F88C25 		str	r2, [r3, #1420]
 551:Generated_Source\PSoC6\pdl\drivers\peripheral\sysclk/cy_sysclk.c ****         CY_REG32_CLR_SET(SRSS_CLK_FLL_CONFIG4, SRSS_CLK_FLL_CONFIG4_CCO_FREQ, (uint32_t)(config->cc
 556              		.loc 1 551 0
 557 0074 028A     		ldrh	r2, [r0, #16]
 558 0076 D3F88C15 		ldr	r1, [r3, #1420]
 559 007a 0848     		ldr	r0, .L54+4
 560              	.LVL50:
 561 007c 1204     		lsls	r2, r2, #16
 562 007e 1040     		ands	r0, r0, r2
 563 0080 21F0FF72 		bic	r2, r1, #33423360
 564 0084 22F48032 		bic	r2, r2, #65536
ARM GAS  C:\Users\mcfdo\AppData\Local\Temp\cc58ZVDP.s 			page 21


 565 0088 0243     		orrs	r2, r2, r0
 566 008a C3F88C25 		str	r2, [r3, #1420]
 567              	.LVL51:
 568 008e 0020     		movs	r0, #0
 569 0090 10BD     		pop	{r4, pc}
 570              	.LVL52:
 571              	.L52:
 572              	.LBE21:
 573              	.LBE20:
 515:Generated_Source\PSoC6\pdl\drivers\peripheral\sysclk/cy_sysclk.c ****     }
 574              		.loc 1 515 0
 575 0092 0448     		ldr	r0, .L54+12
 576              	.LVL53:
 552:Generated_Source\PSoC6\pdl\drivers\peripheral\sysclk/cy_sysclk.c ****     }
 553:Generated_Source\PSoC6\pdl\drivers\peripheral\sysclk/cy_sysclk.c **** 
 554:Generated_Source\PSoC6\pdl\drivers\peripheral\sysclk/cy_sysclk.c ****     return (retVal);
 555:Generated_Source\PSoC6\pdl\drivers\peripheral\sysclk/cy_sysclk.c **** }
 577              		.loc 1 555 0
 578 0094 10BD     		pop	{r4, pc}
 579              	.L55:
 580 0096 00BF     		.align	2
 581              	.L54:
 582 0098 00002640 		.word	1076232192
 583 009c 0000FF01 		.word	33488896
 584 00a0 00FF1F00 		.word	2096896
 585 00a4 03004A00 		.word	4849667
 586              		.cfi_endproc
 587              	.LFE250:
 588              		.size	Cy_SysClk_FllManualConfigure, .-Cy_SysClk_FllManualConfigure
 589              		.global	__aeabi_ddiv
 590              		.global	__aeabi_d2uiz
 591              		.section	.text.Cy_SysClk_FllConfigure,"ax",%progbits
 592              		.align	1
 593              		.global	Cy_SysClk_FllConfigure
 594              		.thumb
 595              		.thumb_func
 596              		.type	Cy_SysClk_FllConfigure, %function
 597              	Cy_SysClk_FllConfigure:
 598              	.LFB249:
 367:Generated_Source\PSoC6\pdl\drivers\peripheral\sysclk/cy_sysclk.c ****     cy_en_sysclk_status_t retVal = CY_SYSCLK_SUCCESS;
 599              		.loc 1 367 0
 600              		.cfi_startproc
 601              		@ args = 0, pretend = 0, frame = 120
 602              		@ frame_needed = 0, uses_anonymous_args = 0
 603              	.LVL54:
 604 0000 2DE9F041 		push	{r4, r5, r6, r7, r8, lr}
 605              		.cfi_def_cfa_offset 24
 606              		.cfi_offset 4, -24
 607              		.cfi_offset 5, -20
 608              		.cfi_offset 6, -16
 609              		.cfi_offset 7, -12
 610              		.cfi_offset 8, -8
 611              		.cfi_offset 14, -4
 371:Generated_Source\PSoC6\pdl\drivers\peripheral\sysclk/cy_sysclk.c ****        (((float32_t)outputFreq / (float32_t)inputFreq) < 2.2f)) /* check output/input frequency rat
 612              		.loc 1 371 0
 613 0004 A1F1B773 		sub	r3, r1, #23986176
 367:Generated_Source\PSoC6\pdl\drivers\peripheral\sysclk/cy_sysclk.c ****     cy_en_sysclk_status_t retVal = CY_SYSCLK_SUCCESS;
ARM GAS  C:\Users\mcfdo\AppData\Local\Temp\cc58ZVDP.s 			page 22


 614              		.loc 1 367 0
 615 0008 2DED068B 		vpush.64	{d8, d9, d10}
 616              		.cfi_def_cfa_offset 48
 617              		.cfi_offset 80, -48
 618              		.cfi_offset 81, -44
 619              		.cfi_offset 82, -40
 620              		.cfi_offset 83, -36
 621              		.cfi_offset 84, -32
 622              		.cfi_offset 85, -28
 623 000c 8046     		mov	r8, r0
 371:Generated_Source\PSoC6\pdl\drivers\peripheral\sysclk/cy_sysclk.c ****        (((float32_t)outputFreq / (float32_t)inputFreq) < 2.2f)) /* check output/input frequency rat
 624              		.loc 1 371 0
 625 000e B948     		ldr	r0, .L121
 626              	.LVL55:
 627 0010 A3F55853 		sub	r3, r3, #13824
 628 0014 8342     		cmp	r3, r0
 367:Generated_Source\PSoC6\pdl\drivers\peripheral\sysclk/cy_sysclk.c ****     cy_en_sysclk_status_t retVal = CY_SYSCLK_SUCCESS;
 629              		.loc 1 367 0
 630 0016 9EB0     		sub	sp, sp, #120
 631              		.cfi_def_cfa_offset 168
 371:Generated_Source\PSoC6\pdl\drivers\peripheral\sysclk/cy_sysclk.c ****        (((float32_t)outputFreq / (float32_t)inputFreq) < 2.2f)) /* check output/input frequency rat
 632              		.loc 1 371 0
 633 0018 00F26681 		bhi	.L83
 372:Generated_Source\PSoC6\pdl\drivers\peripheral\sysclk/cy_sysclk.c ****     {
 634              		.loc 1 372 0 discriminator 1
 635 001c 07EE901A 		vmov	s15, r1	@ int
 636 0020 B8EEE79A 		vcvt.f32.s32	s18, s15
 637 0024 07EE908A 		vmov	s15, r8	@ int
 638 0028 B8EE678A 		vcvt.f32.u32	s16, s15
 371:Generated_Source\PSoC6\pdl\drivers\peripheral\sysclk/cy_sysclk.c ****        (((float32_t)outputFreq / (float32_t)inputFreq) < 2.2f)) /* check output/input frequency rat
 639              		.loc 1 371 0 discriminator 1
 640 002c DFEDB27A 		vldr.32	s15, .L121+4
 641 0030 89EE087A 		vdiv.f32	s14, s18, s16
 642 0034 B4EEE77A 		vcmpe.f32	s14, s15
 643 0038 F1EE10FA 		vmrs	APSR_nzcv, FPSCR
 644 003c 00F15481 		bmi	.L83
 381:Generated_Source\PSoC6\pdl\drivers\peripheral\sysclk/cy_sysclk.c ****         {
 645              		.loc 1 381 0
 646 0040 022A     		cmp	r2, #2
 647 0042 00F04681 		beq	.L58
 648              	.LBB22:
 385:Generated_Source\PSoC6\pdl\drivers\peripheral\sysclk/cy_sysclk.c **** 
 649              		.loc 1 385 0
 650 0046 0020     		movs	r0, #0
 651 0048 FFF7FEFF 		bl	Cy_SysClk_ClkPathGetSource
 652              	.LVL56:
 389:Generated_Source\PSoC6\pdl\drivers\peripheral\sysclk/cy_sysclk.c ****             /* 2. Compute the target CCO frequency from the target output frequency and output divi
 653              		.loc 1 389 0
 654 004c 0123     		movs	r3, #1
 391:Generated_Source\PSoC6\pdl\drivers\peripheral\sysclk/cy_sysclk.c ****             /* 3. Compute the CCO range value from the CCO frequency */
 655              		.loc 1 391 0
 656 004e 01FA03F6 		lsl	r6, r1, r3
 389:Generated_Source\PSoC6\pdl\drivers\peripheral\sysclk/cy_sysclk.c ****             /* 2. Compute the target CCO frequency from the target output frequency and output divi
 657              		.loc 1 389 0
 658 0052 8DF81330 		strb	r3, [sp, #19]
 393:Generated_Source\PSoC6\pdl\drivers\peripheral\sysclk/cy_sysclk.c ****                                ((ccoFreq >= 113009380UL) ? CY_SYSCLK_FLL_CCO_RANGE3 :
 659              		.loc 1 393 0
ARM GAS  C:\Users\mcfdo\AppData\Local\Temp\cc58ZVDP.s 			page 23


 660 0056 A94B     		ldr	r3, .L121+8
 387:Generated_Source\PSoC6\pdl\drivers\peripheral\sysclk/cy_sysclk.c ****             /* 1. Output division by 2 is always required. */
 661              		.loc 1 387 0
 662 0058 8DF81A20 		strb	r2, [sp, #26]
 393:Generated_Source\PSoC6\pdl\drivers\peripheral\sysclk/cy_sysclk.c ****                                ((ccoFreq >= 113009380UL) ? CY_SYSCLK_FLL_CCO_RANGE3 :
 663              		.loc 1 393 0
 664 005c 9E42     		cmp	r6, r3
 385:Generated_Source\PSoC6\pdl\drivers\peripheral\sysclk/cy_sysclk.c **** 
 665              		.loc 1 385 0
 666 005e 0746     		mov	r7, r0
 667              	.LVL57:
 393:Generated_Source\PSoC6\pdl\drivers\peripheral\sysclk/cy_sysclk.c ****                                ((ccoFreq >= 113009380UL) ? CY_SYSCLK_FLL_CCO_RANGE3 :
 668              		.loc 1 393 0
 669 0060 0BD8     		bhi	.L84
 393:Generated_Source\PSoC6\pdl\drivers\peripheral\sysclk/cy_sysclk.c ****                                ((ccoFreq >= 113009380UL) ? CY_SYSCLK_FLL_CCO_RANGE3 :
 670              		.loc 1 393 0 is_stmt 0 discriminator 1
 671 0062 A74B     		ldr	r3, .L121+12
 672 0064 9E42     		cmp	r6, r3
 673 0066 0AD8     		bhi	.L85
 393:Generated_Source\PSoC6\pdl\drivers\peripheral\sysclk/cy_sysclk.c ****                                ((ccoFreq >= 113009380UL) ? CY_SYSCLK_FLL_CCO_RANGE3 :
 674              		.loc 1 393 0 discriminator 3
 675 0068 A64B     		ldr	r3, .L121+16
 676 006a 9E42     		cmp	r6, r3
 677 006c 09D8     		bhi	.L86
 393:Generated_Source\PSoC6\pdl\drivers\peripheral\sysclk/cy_sysclk.c ****                                ((ccoFreq >= 113009380UL) ? CY_SYSCLK_FLL_CCO_RANGE3 :
 678              		.loc 1 393 0 discriminator 5
 679 006e A64D     		ldr	r5, .L121+20
 680 0070 AE42     		cmp	r6, r5
 681 0072 94BF     		ite	ls
 682 0074 0025     		movls	r5, #0
 683 0076 0125     		movhi	r5, #1
 684 0078 04E0     		b	.L59
 685              	.L84:
 393:Generated_Source\PSoC6\pdl\drivers\peripheral\sysclk/cy_sysclk.c ****                                ((ccoFreq >= 113009380UL) ? CY_SYSCLK_FLL_CCO_RANGE3 :
 686              		.loc 1 393 0
 687 007a 0425     		movs	r5, #4
 688 007c 02E0     		b	.L59
 689              	.L85:
 690 007e 0325     		movs	r5, #3
 691 0080 00E0     		b	.L59
 692              	.L86:
 693 0082 0225     		movs	r5, #2
 694              	.L59:
 695              	.LBB23:
 399:Generated_Source\PSoC6\pdl\drivers\peripheral\sysclk/cy_sysclk.c ****                 const float32_t fMargin[] = {43600000.0f, 58100000.0f, 77200000.0f, 103000000.0f, 1
 696              		.loc 1 399 0 is_stmt 1 discriminator 12
 697 0084 A14C     		ldr	r4, .L121+24
 698              	.LBE23:
 393:Generated_Source\PSoC6\pdl\drivers\peripheral\sysclk/cy_sysclk.c ****                                ((ccoFreq >= 113009380UL) ? CY_SYSCLK_FLL_CCO_RANGE3 :
 699              		.loc 1 393 0 discriminator 12
 700 0086 8DF81250 		strb	r5, [sp, #18]
 701              	.LBB28:
 399:Generated_Source\PSoC6\pdl\drivers\peripheral\sysclk/cy_sysclk.c ****                 const float32_t fMargin[] = {43600000.0f, 58100000.0f, 77200000.0f, 103000000.0f, 1
 702              		.loc 1 399 0 discriminator 12
 703 008a 0FCC     		ldmia	r4!, {r0, r1, r2, r3}
 704 008c 0DF1200E 		add	lr, sp, #32
 705 0090 AEE80F00 		stmia	lr!, {r0, r1, r2, r3}
ARM GAS  C:\Users\mcfdo\AppData\Local\Temp\cc58ZVDP.s 			page 24


 706 0094 54F8043B 		ldr	r3, [r4], #4
 707 0098 CEF80030 		str	r3, [lr]
 400:Generated_Source\PSoC6\pdl\drivers\peripheral\sysclk/cy_sysclk.c **** 
 708              		.loc 1 400 0 discriminator 12
 709 009c 0FCC     		ldmia	r4!, {r0, r1, r2, r3}
 710 009e 0DF1340E 		add	lr, sp, #52
 711 00a2 AEE80F00 		stmia	lr!, {r0, r1, r2, r3}
 712 00a6 2368     		ldr	r3, [r4]
 713 00a8 CEF80030 		str	r3, [lr]
 405:Generated_Source\PSoC6\pdl\drivers\peripheral\sysclk/cy_sysclk.c ****             /* 5. Compute the FLL multiplier value.
 714              		.loc 1 405 0 discriminator 12
 715 00ac 40F21113 		movw	r3, #273
 716 00b0 9F42     		cmp	r7, r3
 717 00b2 12D0     		beq	.L87
 405:Generated_Source\PSoC6\pdl\drivers\peripheral\sysclk/cy_sysclk.c ****             /* 5. Compute the FLL multiplier value.
 718              		.loc 1 405 0 is_stmt 0 discriminator 2
 719 00b4 C8EE097A 		vdiv.f32	s15, s16, s18
 720 00b8 9FED957A 		vldr.32	s14, .L121+28
 721 00bc 67EE877A 		vmul.f32	s15, s15, s14
 722 00c0 17EE900A 		vmov	r0, s15
 723 00c4 FFF7FEFF 		bl	ceilf
 724              	.LVL58:
 725 00c8 07EE900A 		vmov	s15, r0
 726 00cc FCEEE77A 		vcvt.u32.f32	s15, s15
 727 00d0 CDED017A 		vstr.32	s15, [sp, #4]	@ int
 728 00d4 BDF80440 		ldrh	r4, [sp, #4]
 729 00d8 00E0     		b	.L60
 730              	.L87:
 405:Generated_Source\PSoC6\pdl\drivers\peripheral\sysclk/cy_sysclk.c ****             /* 5. Compute the FLL multiplier value.
 731              		.loc 1 405 0
 732 00da 1324     		movs	r4, #19
 733              	.L60:
 408:Generated_Source\PSoC6\pdl\drivers\peripheral\sysclk/cy_sysclk.c ****             /* 6. Compute the lock tolerance.
 734              		.loc 1 408 0 is_stmt 1 discriminator 4
 735 00dc 08EB5408 		add	r8, r8, r4, lsr #1
 736              	.LVL59:
 737 00e0 701E     		subs	r0, r6, #1
 738 00e2 B8FBF4F8 		udiv	r8, r8, r4
 739 00e6 B0FBF8F0 		udiv	r0, r0, r8
 740 00ea 0130     		adds	r0, r0, #1
 414:Generated_Source\PSoC6\pdl\drivers\peripheral\sysclk/cy_sysclk.c ****             /* 7. Compute the CCO igain and pgain. */
 741              		.loc 1 414 0 discriminator 4
 742 00ec 07EE900A 		vmov	s15, r0	@ int
 743 00f0 9FED887A 		vldr.32	s14, .L121+32
 408:Generated_Source\PSoC6\pdl\drivers\peripheral\sysclk/cy_sysclk.c ****             /* 6. Compute the lock tolerance.
 744              		.loc 1 408 0 discriminator 4
 745 00f4 0390     		str	r0, [sp, #12]
 414:Generated_Source\PSoC6\pdl\drivers\peripheral\sysclk/cy_sysclk.c ****             /* 7. Compute the CCO igain and pgain. */
 746              		.loc 1 414 0 discriminator 4
 747 00f6 F8EEE77A 		vcvt.f32.s32	s15, s15
 405:Generated_Source\PSoC6\pdl\drivers\peripheral\sysclk/cy_sysclk.c ****             /* 5. Compute the FLL multiplier value.
 748              		.loc 1 405 0 discriminator 4
 749 00fa ADF81040 		strh	r4, [sp, #16]	@ movhi
 414:Generated_Source\PSoC6\pdl\drivers\peripheral\sysclk/cy_sysclk.c ****             /* 7. Compute the CCO igain and pgain. */
 750              		.loc 1 414 0 discriminator 4
 751 00fe 67EE877A 		vmul.f32	s15, s15, s14
 752 0102 17EE900A 		vmov	r0, s15
ARM GAS  C:\Users\mcfdo\AppData\Local\Temp\cc58ZVDP.s 			page 25


 753 0106 FFF7FEFF 		bl	ceilf
 754              	.LVL60:
 755 010a 07EE900A 		vmov	s15, r0
 756              	.LBB24:
 418:Generated_Source\PSoC6\pdl\drivers\peripheral\sysclk/cy_sysclk.c ****                     float32_t ki_p = (0.85f / (kcco * ((float32_t)(config.refDiv) / (float32_t)inpu
 757              		.loc 1 418 0 discriminator 4
 758 010e 1EAB     		add	r3, sp, #120
 759              	.LBE24:
 414:Generated_Source\PSoC6\pdl\drivers\peripheral\sysclk/cy_sysclk.c ****             /* 7. Compute the CCO igain and pgain. */
 760              		.loc 1 414 0 discriminator 4
 761 0110 FCEEE77A 		vcvt.u32.f32	s15, s15
 762              	.LBB25:
 418:Generated_Source\PSoC6\pdl\drivers\peripheral\sysclk/cy_sysclk.c ****                     float32_t ki_p = (0.85f / (kcco * ((float32_t)(config.refDiv) / (float32_t)inpu
 763              		.loc 1 418 0 discriminator 4
 764 0114 03EB8505 		add	r5, r3, r5, lsl #2
 765              	.LBE25:
 414:Generated_Source\PSoC6\pdl\drivers\peripheral\sysclk/cy_sysclk.c ****             /* 7. Compute the CCO igain and pgain. */
 766              		.loc 1 414 0 discriminator 4
 767 0118 17EE900A 		vmov	r0, s15	@ int
 768              	.LBB26:
 418:Generated_Source\PSoC6\pdl\drivers\peripheral\sysclk/cy_sysclk.c ****                     float32_t ki_p = (0.85f / (kcco * ((float32_t)(config.refDiv) / (float32_t)inpu
 769              		.loc 1 418 0 discriminator 4
 770 011c 15ED116A 		vldr.32	s12, [r5, #-68]
 419:Generated_Source\PSoC6\pdl\drivers\peripheral\sysclk/cy_sysclk.c **** 
 771              		.loc 1 419 0 discriminator 4
 772 0120 55ED167A 		vldr.32	s15, [r5, #-88]
 773 0124 9FED7C7A 		vldr.32	s14, .L121+36
 422:Generated_Source\PSoC6\pdl\drivers\peripheral\sysclk/cy_sysclk.c ****                                                0.5f, 1.0f, 2.0f, 4.0f, 8.0f};
 774              		.loc 1 422 0 discriminator 4
 775 0128 7C4D     		ldr	r5, .L121+40
 776              	.LBE26:
 414:Generated_Source\PSoC6\pdl\drivers\peripheral\sysclk/cy_sysclk.c ****             /* 7. Compute the CCO igain and pgain. */
 777              		.loc 1 414 0 discriminator 4
 778 012a ADF81400 		strh	r0, [sp, #20]	@ movhi
 779              	.LVL61:
 780              	.LBB27:
 419:Generated_Source\PSoC6\pdl\drivers\peripheral\sysclk/cy_sysclk.c **** 
 781              		.loc 1 419 0 discriminator 4
 782 012e 66EE277A 		vmul.f32	s15, s12, s15
 422:Generated_Source\PSoC6\pdl\drivers\peripheral\sysclk/cy_sysclk.c ****                                                0.5f, 1.0f, 2.0f, 4.0f, 8.0f};
 783              		.loc 1 422 0 discriminator 4
 784 0132 0FCD     		ldmia	r5!, {r0, r1, r2, r3}
 419:Generated_Source\PSoC6\pdl\drivers\peripheral\sysclk/cy_sysclk.c **** 
 785              		.loc 1 419 0 discriminator 4
 786 0134 C7EE876A 		vdiv.f32	s13, s15, s14
 787 0138 07EE904A 		vmov	s15, r4	@ int
 788 013c F8EE677A 		vcvt.f32.u32	s15, s15
 422:Generated_Source\PSoC6\pdl\drivers\peripheral\sysclk/cy_sysclk.c ****                                                0.5f, 1.0f, 2.0f, 4.0f, 8.0f};
 789              		.loc 1 422 0 discriminator 4
 790 0140 12AC     		add	r4, sp, #72
 419:Generated_Source\PSoC6\pdl\drivers\peripheral\sysclk/cy_sysclk.c **** 
 791              		.loc 1 419 0 discriminator 4
 792 0142 C7EE885A 		vdiv.f32	s11, s15, s16
 422:Generated_Source\PSoC6\pdl\drivers\peripheral\sysclk/cy_sysclk.c ****                                                0.5f, 1.0f, 2.0f, 4.0f, 8.0f};
 793              		.loc 1 422 0 discriminator 4
 794 0146 0FC4     		stmia	r4!, {r0, r1, r2, r3}
 795 0148 0FCD     		ldmia	r5!, {r0, r1, r2, r3}
ARM GAS  C:\Users\mcfdo\AppData\Local\Temp\cc58ZVDP.s 			page 26


 796 014a 0FC4     		stmia	r4!, {r0, r1, r2, r3}
 419:Generated_Source\PSoC6\pdl\drivers\peripheral\sysclk/cy_sysclk.c **** 
 797              		.loc 1 419 0 discriminator 4
 798 014c 66EEA57A 		vmul.f32	s15, s13, s11
 799 0150 DFED735A 		vldr.32	s11, .L121+44
 800 0154 C5EEA76A 		vdiv.f32	s13, s11, s15
 422:Generated_Source\PSoC6\pdl\drivers\peripheral\sysclk/cy_sysclk.c ****                                                0.5f, 1.0f, 2.0f, 4.0f, 8.0f};
 801              		.loc 1 422 0 discriminator 4
 802 0158 95E80F00 		ldmia	r5, {r0, r1, r2, r3}
 803 015c 84E80F00 		stmia	r4, {r0, r1, r2, r3}
 426:Generated_Source\PSoC6\pdl\drivers\peripheral\sysclk/cy_sysclk.c ****                         (gains[config.igain] > ki_p) && (config.igain != 0UL); config.igain--){}
 804              		.loc 1 426 0 discriminator 4
 805 0160 0B23     		movs	r3, #11
 806 0162 8DF81630 		strb	r3, [sp, #22]
 807 0166 0022     		movs	r2, #0
 808 0168 F0EE478A 		vmov.f32	s17, s14
 419:Generated_Source\PSoC6\pdl\drivers\peripheral\sysclk/cy_sysclk.c **** 
 809              		.loc 1 419 0 discriminator 4
 810 016c C6EE877A 		vdiv.f32	s15, s13, s14
 811              	.LVL62:
 812              	.L61:
 427:Generated_Source\PSoC6\pdl\drivers\peripheral\sysclk/cy_sysclk.c ****                     /* decrement igain if the WCO is the FLL source */
 813              		.loc 1 427 0 discriminator 1
 814 0170 1EA9     		add	r1, sp, #120
 815 0172 01EB8301 		add	r1, r1, r3, lsl #2
 426:Generated_Source\PSoC6\pdl\drivers\peripheral\sysclk/cy_sysclk.c ****                         (gains[config.igain] > ki_p) && (config.igain != 0UL); config.igain--){}
 816              		.loc 1 426 0 discriminator 1
 817 0176 11ED0C7A 		vldr.32	s14, [r1, #-48]
 818 017a F4EEC77A 		vcmpe.f32	s15, s14
 819 017e F1EE10FA 		vmrs	APSR_nzcv, FPSCR
 820 0182 06D5     		bpl	.L111
 427:Generated_Source\PSoC6\pdl\drivers\peripheral\sysclk/cy_sysclk.c ****                     /* decrement igain if the WCO is the FLL source */
 821              		.loc 1 427 0 discriminator 2
 822 0184 1BB1     		cbz	r3, .L119
 427:Generated_Source\PSoC6\pdl\drivers\peripheral\sysclk/cy_sysclk.c ****                     /* decrement igain if the WCO is the FLL source */
 823              		.loc 1 427 0 is_stmt 0 discriminator 1
 824 0186 013B     		subs	r3, r3, #1
 825 0188 DBB2     		uxtb	r3, r3
 826 018a 0122     		movs	r2, #1
 827 018c F0E7     		b	.L61
 828              	.L119:
 829 018e 5AB1     		cbz	r2, .L66
 830 0190 08E0     		b	.L115
 831              	.L111:
 832 0192 0AB1     		cbz	r2, .L67
 833 0194 8DF81630 		strb	r3, [sp, #22]
 834              	.L67:
 429:Generated_Source\PSoC6\pdl\drivers\peripheral\sysclk/cy_sysclk.c ****                     {
 835              		.loc 1 429 0 is_stmt 1
 836 0198 40F21112 		movw	r2, #273
 837 019c 9742     		cmp	r7, r2
 838 019e 03D1     		bne	.L66
 429:Generated_Source\PSoC6\pdl\drivers\peripheral\sysclk/cy_sysclk.c ****                     {
 839              		.loc 1 429 0 is_stmt 0 discriminator 1
 840 01a0 13B1     		cbz	r3, .L66
 431:Generated_Source\PSoC6\pdl\drivers\peripheral\sysclk/cy_sysclk.c ****                     }
 841              		.loc 1 431 0 is_stmt 1
ARM GAS  C:\Users\mcfdo\AppData\Local\Temp\cc58ZVDP.s 			page 27


 842 01a2 013B     		subs	r3, r3, #1
 843              	.L115:
 844 01a4 8DF81630 		strb	r3, [sp, #22]
 845              	.L66:
 435:Generated_Source\PSoC6\pdl\drivers\peripheral\sysclk/cy_sysclk.c ****                         config.pgain--){}
 846              		.loc 1 435 0
 847 01a8 9DF81620 		ldrb	r2, [sp, #22]	@ zero_extendqisi2
 848 01ac 1EA9     		add	r1, sp, #120
 849 01ae 01EB8202 		add	r2, r1, r2, lsl #2
 850 01b2 12ED0C7A 		vldr.32	s14, [r2, #-48]
 434:Generated_Source\PSoC6\pdl\drivers\peripheral\sysclk/cy_sysclk.c ****                         (gains[config.pgain] > (ki_p - gains[config.igain])) && (config.pgain != 0U
 851              		.loc 1 434 0
 852 01b6 0B23     		movs	r3, #11
 435:Generated_Source\PSoC6\pdl\drivers\peripheral\sysclk/cy_sysclk.c ****                         config.pgain--){}
 853              		.loc 1 435 0
 854 01b8 77EEC77A 		vsub.f32	s15, s15, s14
 855              	.LVL63:
 434:Generated_Source\PSoC6\pdl\drivers\peripheral\sysclk/cy_sysclk.c ****                         (gains[config.pgain] > (ki_p - gains[config.igain])) && (config.pgain != 0U
 856              		.loc 1 434 0
 857 01bc 8DF81730 		strb	r3, [sp, #23]
 858 01c0 0022     		movs	r2, #0
 859              	.L69:
 435:Generated_Source\PSoC6\pdl\drivers\peripheral\sysclk/cy_sysclk.c ****                         config.pgain--){}
 860              		.loc 1 435 0 discriminator 1
 861 01c2 1EA9     		add	r1, sp, #120
 862 01c4 01EB8301 		add	r1, r1, r3, lsl #2
 434:Generated_Source\PSoC6\pdl\drivers\peripheral\sysclk/cy_sysclk.c ****                         (gains[config.pgain] > (ki_p - gains[config.igain])) && (config.pgain != 0U
 863              		.loc 1 434 0 discriminator 1
 864 01c8 11ED0C7A 		vldr.32	s14, [r1, #-48]
 865 01cc B4EEE77A 		vcmpe.f32	s14, s15
 866 01d0 F1EE10FA 		vmrs	APSR_nzcv, FPSCR
 867 01d4 06DD     		ble	.L112
 435:Generated_Source\PSoC6\pdl\drivers\peripheral\sysclk/cy_sysclk.c ****                         config.pgain--){}
 868              		.loc 1 435 0
 869 01d6 1BB1     		cbz	r3, .L120
 436:Generated_Source\PSoC6\pdl\drivers\peripheral\sysclk/cy_sysclk.c ****                     /* decrement pgain if the WCO is the FLL source */
 870              		.loc 1 436 0
 871 01d8 013B     		subs	r3, r3, #1
 872 01da DBB2     		uxtb	r3, r3
 873 01dc 0122     		movs	r2, #1
 874 01de F0E7     		b	.L69
 875              	.L120:
 876 01e0 5AB1     		cbz	r2, .L74
 877 01e2 08E0     		b	.L116
 878              	.L112:
 879 01e4 0AB1     		cbz	r2, .L75
 880 01e6 8DF81730 		strb	r3, [sp, #23]
 881              	.L75:
 438:Generated_Source\PSoC6\pdl\drivers\peripheral\sysclk/cy_sysclk.c ****                     {
 882              		.loc 1 438 0
 883 01ea 40F21112 		movw	r2, #273
 884 01ee 9742     		cmp	r7, r2
 885 01f0 03D1     		bne	.L74
 438:Generated_Source\PSoC6\pdl\drivers\peripheral\sysclk/cy_sysclk.c ****                     {
 886              		.loc 1 438 0 is_stmt 0 discriminator 1
 887 01f2 13B1     		cbz	r3, .L74
 440:Generated_Source\PSoC6\pdl\drivers\peripheral\sysclk/cy_sysclk.c ****                     }
ARM GAS  C:\Users\mcfdo\AppData\Local\Temp\cc58ZVDP.s 			page 28


 888              		.loc 1 440 0 is_stmt 1
 889 01f4 013B     		subs	r3, r3, #1
 890              	.L116:
 891 01f6 8DF81730 		strb	r3, [sp, #23]
 892              	.L74:
 893              	.LBE27:
 444:Generated_Source\PSoC6\pdl\drivers\peripheral\sysclk/cy_sysclk.c ****                                                    log((float64_t)(1.0f + trimSteps[config.ccoRange
 894              		.loc 1 444 0
 895 01fa 07EE906A 		vmov	s15, r6	@ int
 896 01fe F8EEE77A 		vcvt.f32.s32	s15, s15
 445:Generated_Source\PSoC6\pdl\drivers\peripheral\sysclk/cy_sysclk.c ****             }
 897              		.loc 1 445 0
 898 0202 F7EE009A 		vmov.f32	s19, #1.0e+0
 444:Generated_Source\PSoC6\pdl\drivers\peripheral\sysclk/cy_sysclk.c ****                                                    log((float64_t)(1.0f + trimSteps[config.ccoRange
 899              		.loc 1 444 0
 900 0206 87EE867A 		vdiv.f32	s14, s15, s12
 901 020a 17EE100A 		vmov	r0, s14
 902 020e FFF7FEFF 		bl	__aeabi_f2d
 903              	.LVL64:
 904 0212 FFF7FEFF 		bl	log
 905              	.LVL65:
 445:Generated_Source\PSoC6\pdl\drivers\peripheral\sysclk/cy_sysclk.c ****             }
 906              		.loc 1 445 0
 907 0216 9DF81230 		ldrb	r3, [sp, #18]	@ zero_extendqisi2
 908 021a 1EAA     		add	r2, sp, #120
 909 021c 02EB8303 		add	r3, r2, r3, lsl #2
 910 0220 53ED167A 		vldr.32	s15, [r3, #-88]
 911 0224 77EEA97A 		vadd.f32	s15, s15, s19
 444:Generated_Source\PSoC6\pdl\drivers\peripheral\sysclk/cy_sysclk.c ****                                                    log((float64_t)(1.0f + trimSteps[config.ccoRange
 912              		.loc 1 444 0
 913 0228 0446     		mov	r4, r0
 445:Generated_Source\PSoC6\pdl\drivers\peripheral\sysclk/cy_sysclk.c ****             }
 914              		.loc 1 445 0
 915 022a 17EE900A 		vmov	r0, s15
 444:Generated_Source\PSoC6\pdl\drivers\peripheral\sysclk/cy_sysclk.c ****                                                    log((float64_t)(1.0f + trimSteps[config.ccoRange
 916              		.loc 1 444 0
 917 022e 0D46     		mov	r5, r1
 445:Generated_Source\PSoC6\pdl\drivers\peripheral\sysclk/cy_sysclk.c ****             }
 918              		.loc 1 445 0
 919 0230 FFF7FEFF 		bl	__aeabi_f2d
 920              	.LVL66:
 921 0234 FFF7FEFF 		bl	log
 922              	.LVL67:
 444:Generated_Source\PSoC6\pdl\drivers\peripheral\sysclk/cy_sysclk.c ****                                                    log((float64_t)(1.0f + trimSteps[config.ccoRange
 923              		.loc 1 444 0
 924 0238 0246     		mov	r2, r0
 925 023a 0B46     		mov	r3, r1
 926 023c 2046     		mov	r0, r4
 927 023e 2946     		mov	r1, r5
 928 0240 FFF7FEFF 		bl	__aeabi_ddiv
 929              	.LVL68:
 930 0244 FFF7FEFF 		bl	floor
 931              	.LVL69:
 932 0248 FFF7FEFF 		bl	__aeabi_d2uiz
 933              	.LVL70:
 934              	.LBE28:
 935              	.LBB29:
ARM GAS  C:\Users\mcfdo\AppData\Local\Temp\cc58ZVDP.s 			page 29


 450:Generated_Source\PSoC6\pdl\drivers\peripheral\sysclk/cy_sysclk.c ****                 float32_t testval = 6000.0f / (float32_t)outputFreq;
 936              		.loc 1 450 0
 937 024c 88EE287A 		vdiv.f32	s14, s16, s17
 938 0250 BDF81030 		ldrh	r3, [sp, #16]
 939              	.LBE29:
 940              	.LBB30:
 444:Generated_Source\PSoC6\pdl\drivers\peripheral\sysclk/cy_sysclk.c ****                                                    log((float64_t)(1.0f + trimSteps[config.ccoRange
 941              		.loc 1 444 0
 942 0254 ADF81C00 		strh	r0, [sp, #28]	@ movhi
 943              	.LBE30:
 944              	.LBB31:
 450:Generated_Source\PSoC6\pdl\drivers\peripheral\sysclk/cy_sysclk.c ****                 float32_t testval = 6000.0f / (float32_t)outputFreq;
 945              		.loc 1 450 0
 946 0258 07EE903A 		vmov	s15, r3	@ int
 947 025c F8EE677A 		vcvt.f32.u32	s15, s15
 948 0260 C7EE878A 		vdiv.f32	s17, s15, s14
 949              	.LVL71:
 451:Generated_Source\PSoC6\pdl\drivers\peripheral\sysclk/cy_sysclk.c ****                 float32_t divval  = (float32_t)ceil((float64_t)((float32_t)inputFreq * 0.000001f));
 950              		.loc 1 451 0
 951 0264 DFED2F7A 		vldr.32	s15, .L121+48
 952 0268 87EE89AA 		vdiv.f32	s20, s15, s18
 953              	.LVL72:
 452:Generated_Source\PSoC6\pdl\drivers\peripheral\sysclk/cy_sysclk.c ****                 float32_t altval  = (float32_t)ceil((float64_t)((divval / ttref) + 1.0f));
 954              		.loc 1 452 0
 955 026c DFED2E7A 		vldr.32	s15, .L121+52
 956 0270 68EE277A 		vmul.f32	s15, s16, s15
 957 0274 17EE900A 		vmov	r0, s15
 958 0278 FFF7FEFF 		bl	ceilf
 959              	.LVL73:
 960 027c 08EE100A 		vmov	s16, r0
 961              	.LVL74:
 453:Generated_Source\PSoC6\pdl\drivers\peripheral\sysclk/cy_sysclk.c ****                 config.settlingCount = wcoSource ? 200U : (uint16)
 962              		.loc 1 453 0
 963 0280 C8EE287A 		vdiv.f32	s15, s16, s17
 964 0284 77EEA97A 		vadd.f32	s15, s15, s19
 965 0288 17EE900A 		vmov	r0, s15
 966              	.LVL75:
 967 028c FFF7FEFF 		bl	ceilf
 968              	.LVL76:
 454:Generated_Source\PSoC6\pdl\drivers\peripheral\sysclk/cy_sysclk.c ****                               ((ttref > testval) ? divval :
 969              		.loc 1 454 0
 970 0290 40F21113 		movw	r3, #273
 971 0294 9F42     		cmp	r7, r3
 453:Generated_Source\PSoC6\pdl\drivers\peripheral\sysclk/cy_sysclk.c ****                 config.settlingCount = wcoSource ? 200U : (uint16)
 972              		.loc 1 453 0
 973 0296 07EE900A 		vmov	s15, r0
 974              	.LVL77:
 454:Generated_Source\PSoC6\pdl\drivers\peripheral\sysclk/cy_sysclk.c ****                               ((ttref > testval) ? divval :
 975              		.loc 1 454 0
 976 029a 13D0     		beq	.L88
 454:Generated_Source\PSoC6\pdl\drivers\peripheral\sysclk/cy_sysclk.c ****                               ((ttref > testval) ? divval :
 977              		.loc 1 454 0 is_stmt 0 discriminator 2
 978 029c F4EECA8A 		vcmpe.f32	s17, s20
 979 02a0 F1EE10FA 		vmrs	APSR_nzcv, FPSCR
 980 02a4 04DC     		bgt	.L117
 454:Generated_Source\PSoC6\pdl\drivers\peripheral\sysclk/cy_sysclk.c ****                               ((ttref > testval) ? divval :
 981              		.loc 1 454 0 discriminator 5
ARM GAS  C:\Users\mcfdo\AppData\Local\Temp\cc58ZVDP.s 			page 30


 982 02a6 B4EEE78A 		vcmpe.f32	s16, s15
 983 02aa F1EE10FA 		vmrs	APSR_nzcv, FPSCR
 984 02ae 02DD     		ble	.L114
 985              	.L117:
 454:Generated_Source\PSoC6\pdl\drivers\peripheral\sysclk/cy_sysclk.c ****                               ((ttref > testval) ? divval :
 986              		.loc 1 454 0 discriminator 7
 987 02b0 FCEEC87A 		vcvt.u32.f32	s15, s16
 988 02b4 01E0     		b	.L118
 989              	.L114:
 454:Generated_Source\PSoC6\pdl\drivers\peripheral\sysclk/cy_sysclk.c ****                               ((ttref > testval) ? divval :
 990              		.loc 1 454 0 discriminator 8
 991 02b6 FCEEE77A 		vcvt.u32.f32	s15, s15
 992              	.L118:
 993 02ba CDED017A 		vstr.32	s15, [sp, #4]	@ int
 994 02be BDF80430 		ldrh	r3, [sp, #4]
 995 02c2 00E0     		b	.L77
 996              	.L88:
 454:Generated_Source\PSoC6\pdl\drivers\peripheral\sysclk/cy_sysclk.c ****                               ((ttref > testval) ? divval :
 997              		.loc 1 454 0
 998 02c4 C823     		movs	r3, #200
 999              	.L77:
 1000              	.LBE31:
 459:Generated_Source\PSoC6\pdl\drivers\peripheral\sysclk/cy_sysclk.c ****         } /* if not, bypass output mode */
 1001              		.loc 1 459 0 is_stmt 1 discriminator 12
 1002 02c6 03A8     		add	r0, sp, #12
 1003              	.LVL78:
 1004              	.LBB32:
 454:Generated_Source\PSoC6\pdl\drivers\peripheral\sysclk/cy_sysclk.c ****                               ((ttref > testval) ? divval :
 1005              		.loc 1 454 0 discriminator 12
 1006 02c8 ADF81830 		strh	r3, [sp, #24]	@ movhi
 1007              	.LBE32:
 459:Generated_Source\PSoC6\pdl\drivers\peripheral\sysclk/cy_sysclk.c ****         } /* if not, bypass output mode */
 1008              		.loc 1 459 0 discriminator 12
 1009 02cc FFF7FEFF 		bl	Cy_SysClk_FllManualConfigure
 1010              	.LVL79:
 1011              	.LBE22:
 1012 02d0 0BE0     		b	.L57
 1013              	.LVL80:
 1014              	.L58:
 464:Generated_Source\PSoC6\pdl\drivers\peripheral\sysclk/cy_sysclk.c ****         }
 1015              		.loc 1 464 0
 1016 02d2 164A     		ldr	r2, .L121+56
 1017              	.LVL81:
 1018 02d4 D2F88835 		ldr	r3, [r2, #1416]
 1019 02d8 23F04053 		bic	r3, r3, #805306368
 1020 02dc 43F00053 		orr	r3, r3, #536870912
 1021 02e0 C2F88835 		str	r3, [r2, #1416]
 368:Generated_Source\PSoC6\pdl\drivers\peripheral\sysclk/cy_sysclk.c **** 
 1022              		.loc 1 368 0
 1023 02e4 0020     		movs	r0, #0
 1024 02e6 00E0     		b	.L57
 1025              	.LVL82:
 1026              	.L83:
 374:Generated_Source\PSoC6\pdl\drivers\peripheral\sysclk/cy_sysclk.c ****     }
 1027              		.loc 1 374 0
 1028 02e8 1148     		ldr	r0, .L121+60
 1029              	.LVL83:
ARM GAS  C:\Users\mcfdo\AppData\Local\Temp\cc58ZVDP.s 			page 31


 1030              	.L57:
 469:Generated_Source\PSoC6\pdl\drivers\peripheral\sysclk/cy_sysclk.c **** 
 1031              		.loc 1 469 0
 1032 02ea 1EB0     		add	sp, sp, #120
 1033              		.cfi_def_cfa_offset 48
 1034              		@ sp needed
 1035 02ec BDEC068B 		vldm	sp!, {d8-d10}
 1036              		.cfi_restore 84
 1037              		.cfi_restore 85
 1038              		.cfi_restore 82
 1039              		.cfi_restore 83
 1040              		.cfi_restore 80
 1041              		.cfi_restore 81
 1042              		.cfi_def_cfa_offset 24
 1043 02f0 BDE8F081 		pop	{r4, r5, r6, r7, r8, pc}
 1044              	.L122:
 1045              		.align	2
 1046              	.L121:
 1047 02f4 00AB8704 		.word	76000000
 1048 02f8 CDCC0C40 		.word	1074580685
 1049 02fc 7FFEF508 		.word	150339199
 1050 0300 E362BC06 		.word	113009379
 1051 0304 DB361005 		.word	84948699
 1052 0308 EF5BCE03 		.word	63855599
 1053 030c 00000000 		.word	.LANCHOR0
 1054 0310 00007A43 		.word	1132068864
 1055 0314 F6259B3C 		.word	1016800758
 1056 0318 00007A44 		.word	1148846080
 1057 031c 28000000 		.word	.LANCHOR0+40
 1058 0320 9A99593F 		.word	1062836634
 1059 0324 0080BB45 		.word	1169915904
 1060 0328 BD378635 		.word	897988541
 1061 032c 00002640 		.word	1076232192
 1062 0330 01004A00 		.word	4849665
 1063              		.cfi_endproc
 1064              	.LFE249:
 1065              		.size	Cy_SysClk_FllConfigure, .-Cy_SysClk_FllConfigure
 1066              		.section	.text.Cy_SysClk_FllGetConfiguration,"ax",%progbits
 1067              		.align	1
 1068              		.global	Cy_SysClk_FllGetConfiguration
 1069              		.thumb
 1070              		.thumb_func
 1071              		.type	Cy_SysClk_FllGetConfiguration, %function
 1072              	Cy_SysClk_FllGetConfiguration:
 1073              	.LFB251:
 556:Generated_Source\PSoC6\pdl\drivers\peripheral\sysclk/cy_sysclk.c **** 
 557:Generated_Source\PSoC6\pdl\drivers\peripheral\sysclk/cy_sysclk.c **** /*******************************************************************************
 558:Generated_Source\PSoC6\pdl\drivers\peripheral\sysclk/cy_sysclk.c **** * Function Name: Cy_SysClk_FllGetConfiguration
 559:Generated_Source\PSoC6\pdl\drivers\peripheral\sysclk/cy_sysclk.c **** ****************************************************************************//**
 560:Generated_Source\PSoC6\pdl\drivers\peripheral\sysclk/cy_sysclk.c **** *
 561:Generated_Source\PSoC6\pdl\drivers\peripheral\sysclk/cy_sysclk.c **** * Reports the FLL configuration settings.
 562:Generated_Source\PSoC6\pdl\drivers\peripheral\sysclk/cy_sysclk.c **** *
 563:Generated_Source\PSoC6\pdl\drivers\peripheral\sysclk/cy_sysclk.c **** * \param config \ref cy_stc_fll_manual_config_t
 564:Generated_Source\PSoC6\pdl\drivers\peripheral\sysclk/cy_sysclk.c **** *
 565:Generated_Source\PSoC6\pdl\drivers\peripheral\sysclk/cy_sysclk.c **** * \funcusage
 566:Generated_Source\PSoC6\pdl\drivers\peripheral\sysclk/cy_sysclk.c **** * \snippet sysclk/1.20/snippet/main.c snippet_Cy_SysClk_FllGetConfiguration
 567:Generated_Source\PSoC6\pdl\drivers\peripheral\sysclk/cy_sysclk.c **** *
ARM GAS  C:\Users\mcfdo\AppData\Local\Temp\cc58ZVDP.s 			page 32


 568:Generated_Source\PSoC6\pdl\drivers\peripheral\sysclk/cy_sysclk.c **** *******************************************************************************/
 569:Generated_Source\PSoC6\pdl\drivers\peripheral\sysclk/cy_sysclk.c **** void Cy_SysClk_FllGetConfiguration(cy_stc_fll_manual_config_t *config)
 570:Generated_Source\PSoC6\pdl\drivers\peripheral\sysclk/cy_sysclk.c **** {
 1074              		.loc 1 570 0
 1075              		.cfi_startproc
 1076              		@ args = 0, pretend = 0, frame = 0
 1077              		@ frame_needed = 0, uses_anonymous_args = 0
 1078              		@ link register save eliminated.
 1079              	.LVL84:
 571:Generated_Source\PSoC6\pdl\drivers\peripheral\sysclk/cy_sysclk.c ****     CY_ASSERT_L1(config != NULL);
 572:Generated_Source\PSoC6\pdl\drivers\peripheral\sysclk/cy_sysclk.c ****     /* read 2 parameters from CLK_FLL_CONFIG register */
 573:Generated_Source\PSoC6\pdl\drivers\peripheral\sysclk/cy_sysclk.c ****     uint32_t tempReg = SRSS_CLK_FLL_CONFIG;
 1080              		.loc 1 573 0
 1081 0000 124A     		ldr	r2, .L124
 1082 0002 D2F88035 		ldr	r3, [r2, #1408]
 1083              	.LVL85:
 574:Generated_Source\PSoC6\pdl\drivers\peripheral\sysclk/cy_sysclk.c ****     config->fllMult         = _FLD2VAL(SRSS_CLK_FLL_CONFIG_FLL_MULT, tempReg);
 1084              		.loc 1 574 0
 1085 0006 C3F31101 		ubfx	r1, r3, #0, #18
 1086 000a 0160     		str	r1, [r0]
 575:Generated_Source\PSoC6\pdl\drivers\peripheral\sysclk/cy_sysclk.c ****     config->enableOutputDiv = _FLD2BOOL(SRSS_CLK_FLL_CONFIG_FLL_OUTPUT_DIV, tempReg);
 1087              		.loc 1 575 0
 1088 000c C3F30063 		ubfx	r3, r3, #24, #1
 1089              	.LVL86:
 1090 0010 C371     		strb	r3, [r0, #7]
 576:Generated_Source\PSoC6\pdl\drivers\peripheral\sysclk/cy_sysclk.c ****     /* read 2 parameters from CLK_FLL_CONFIG2 register */
 577:Generated_Source\PSoC6\pdl\drivers\peripheral\sysclk/cy_sysclk.c ****     tempReg = SRSS_CLK_FLL_CONFIG2;
 1091              		.loc 1 577 0
 1092 0012 D2F88435 		ldr	r3, [r2, #1412]
 1093              	.LVL87:
 578:Generated_Source\PSoC6\pdl\drivers\peripheral\sysclk/cy_sysclk.c ****     config->refDiv          = (uint16_t)_FLD2VAL(SRSS_CLK_FLL_CONFIG2_FLL_REF_DIV, tempReg);
 1094              		.loc 1 578 0
 1095 0016 C3F30C01 		ubfx	r1, r3, #0, #13
 579:Generated_Source\PSoC6\pdl\drivers\peripheral\sysclk/cy_sysclk.c ****     config->lockTolerance   = (uint16_t)_FLD2VAL(SRSS_CLK_FLL_CONFIG2_LOCK_TOL, tempReg);
 1096              		.loc 1 579 0
 1097 001a C3F30843 		ubfx	r3, r3, #16, #9
 1098              	.LVL88:
 1099 001e 0381     		strh	r3, [r0, #8]	@ movhi
 580:Generated_Source\PSoC6\pdl\drivers\peripheral\sysclk/cy_sysclk.c ****     /* read 4 parameters from CLK_FLL_CONFIG3 register */
 581:Generated_Source\PSoC6\pdl\drivers\peripheral\sysclk/cy_sysclk.c ****     tempReg = SRSS_CLK_FLL_CONFIG3;
 1100              		.loc 1 581 0
 1101 0020 D2F88835 		ldr	r3, [r2, #1416]
 1102              	.LVL89:
 578:Generated_Source\PSoC6\pdl\drivers\peripheral\sysclk/cy_sysclk.c ****     config->lockTolerance   = (uint16_t)_FLD2VAL(SRSS_CLK_FLL_CONFIG2_LOCK_TOL, tempReg);
 1103              		.loc 1 578 0
 1104 0024 8180     		strh	r1, [r0, #4]	@ movhi
 582:Generated_Source\PSoC6\pdl\drivers\peripheral\sysclk/cy_sysclk.c ****     config->igain           = (uint8_t)_FLD2VAL(SRSS_CLK_FLL_CONFIG3_FLL_LF_IGAIN, tempReg);
 1105              		.loc 1 582 0
 1106 0026 03F00F01 		and	r1, r3, #15
 1107 002a 8172     		strb	r1, [r0, #10]
 583:Generated_Source\PSoC6\pdl\drivers\peripheral\sysclk/cy_sysclk.c ****     config->pgain           = (uint8_t)_FLD2VAL(SRSS_CLK_FLL_CONFIG3_FLL_LF_PGAIN, tempReg);
 1108              		.loc 1 583 0
 1109 002c C3F30311 		ubfx	r1, r3, #4, #4
 1110 0030 C172     		strb	r1, [r0, #11]
 584:Generated_Source\PSoC6\pdl\drivers\peripheral\sysclk/cy_sysclk.c ****     config->settlingCount   = (uint16_t)_FLD2VAL(SRSS_CLK_FLL_CONFIG3_SETTLING_COUNT, tempReg);
 1111              		.loc 1 584 0
 1112 0032 C3F30C21 		ubfx	r1, r3, #8, #13
ARM GAS  C:\Users\mcfdo\AppData\Local\Temp\cc58ZVDP.s 			page 33


 585:Generated_Source\PSoC6\pdl\drivers\peripheral\sysclk/cy_sysclk.c ****     config->outputMode      = (cy_en_fll_pll_output_mode_t)_FLD2VAL(SRSS_CLK_FLL_CONFIG3_BYPASS_SEL
 1113              		.loc 1 585 0
 1114 0036 C3F30173 		ubfx	r3, r3, #28, #2
 1115              	.LVL90:
 1116 003a 8373     		strb	r3, [r0, #14]
 586:Generated_Source\PSoC6\pdl\drivers\peripheral\sysclk/cy_sysclk.c ****     /* read 1 parameter from CLK_FLL_CONFIG4 register */
 587:Generated_Source\PSoC6\pdl\drivers\peripheral\sysclk/cy_sysclk.c ****     config->ccoRange        = (cy_en_fll_cco_ranges_t)_FLD2VAL(SRSS_CLK_FLL_CONFIG4_CCO_RANGE, SRSS
 1117              		.loc 1 587 0
 1118 003c D2F88C35 		ldr	r3, [r2, #1420]
 584:Generated_Source\PSoC6\pdl\drivers\peripheral\sysclk/cy_sysclk.c ****     config->outputMode      = (cy_en_fll_pll_output_mode_t)_FLD2VAL(SRSS_CLK_FLL_CONFIG3_BYPASS_SEL
 1119              		.loc 1 584 0
 1120 0040 8181     		strh	r1, [r0, #12]	@ movhi
 1121              		.loc 1 587 0
 1122 0042 C3F30223 		ubfx	r3, r3, #8, #3
 1123 0046 8371     		strb	r3, [r0, #6]
 1124 0048 7047     		bx	lr
 1125              	.L125:
 1126 004a 00BF     		.align	2
 1127              	.L124:
 1128 004c 00002640 		.word	1076232192
 1129              		.cfi_endproc
 1130              	.LFE251:
 1131              		.size	Cy_SysClk_FllGetConfiguration, .-Cy_SysClk_FllGetConfiguration
 1132              		.section	.text.Cy_SysClk_FllEnable,"ax",%progbits
 1133              		.align	1
 1134              		.global	Cy_SysClk_FllEnable
 1135              		.thumb
 1136              		.thumb_func
 1137              		.type	Cy_SysClk_FllEnable, %function
 1138              	Cy_SysClk_FllEnable:
 1139              	.LFB252:
 588:Generated_Source\PSoC6\pdl\drivers\peripheral\sysclk/cy_sysclk.c **** }
 589:Generated_Source\PSoC6\pdl\drivers\peripheral\sysclk/cy_sysclk.c **** 
 590:Generated_Source\PSoC6\pdl\drivers\peripheral\sysclk/cy_sysclk.c **** /*******************************************************************************
 591:Generated_Source\PSoC6\pdl\drivers\peripheral\sysclk/cy_sysclk.c **** * Function Name: Cy_SysClk_FllEnable
 592:Generated_Source\PSoC6\pdl\drivers\peripheral\sysclk/cy_sysclk.c **** ****************************************************************************//**
 593:Generated_Source\PSoC6\pdl\drivers\peripheral\sysclk/cy_sysclk.c **** *
 594:Generated_Source\PSoC6\pdl\drivers\peripheral\sysclk/cy_sysclk.c **** * Enables the FLL. The FLL should be configured before calling this function.
 595:Generated_Source\PSoC6\pdl\drivers\peripheral\sysclk/cy_sysclk.c **** *
 596:Generated_Source\PSoC6\pdl\drivers\peripheral\sysclk/cy_sysclk.c **** * \param timeoutus Amount of time in micro seconds to wait for FLL to lock.
 597:Generated_Source\PSoC6\pdl\drivers\peripheral\sysclk/cy_sysclk.c **** * If lock doesn't occur, the FLL is stopped. To avoid waiting for lock, set this to 0
 598:Generated_Source\PSoC6\pdl\drivers\peripheral\sysclk/cy_sysclk.c **** * and manually check for lock using \ref Cy_SysClk_FllLocked.
 599:Generated_Source\PSoC6\pdl\drivers\peripheral\sysclk/cy_sysclk.c **** *
 600:Generated_Source\PSoC6\pdl\drivers\peripheral\sysclk/cy_sysclk.c **** * \return Error / status code:<br>
 601:Generated_Source\PSoC6\pdl\drivers\peripheral\sysclk/cy_sysclk.c **** * CY_SYSCLK_SUCCESS - FLL successfully enabled<br>
 602:Generated_Source\PSoC6\pdl\drivers\peripheral\sysclk/cy_sysclk.c **** * CY_SYSCLK_TIMEOUT - Timeout waiting for FLL lock
 603:Generated_Source\PSoC6\pdl\drivers\peripheral\sysclk/cy_sysclk.c **** *
 604:Generated_Source\PSoC6\pdl\drivers\peripheral\sysclk/cy_sysclk.c **** * \note
 605:Generated_Source\PSoC6\pdl\drivers\peripheral\sysclk/cy_sysclk.c **** * While waiting for the FLL to lock, the FLL bypass mode is set to \ref CY_SYSCLK_FLLPLL_OUTPUT_INP
 606:Generated_Source\PSoC6\pdl\drivers\peripheral\sysclk/cy_sysclk.c **** * After the FLL is locked, the FLL bypass mdoe is then set to \ref CY_SYSCLK_FLLPLL_OUTPUT_OUTPUT.
 607:Generated_Source\PSoC6\pdl\drivers\peripheral\sysclk/cy_sysclk.c **** *
 608:Generated_Source\PSoC6\pdl\drivers\peripheral\sysclk/cy_sysclk.c **** * \note 
 609:Generated_Source\PSoC6\pdl\drivers\peripheral\sysclk/cy_sysclk.c **** * Call \ref SystemCoreClockUpdate after calling this function  
 610:Generated_Source\PSoC6\pdl\drivers\peripheral\sysclk/cy_sysclk.c **** * if it affects the CLK_HF0 frequency.
 611:Generated_Source\PSoC6\pdl\drivers\peripheral\sysclk/cy_sysclk.c **** *
 612:Generated_Source\PSoC6\pdl\drivers\peripheral\sysclk/cy_sysclk.c **** * \note 
 613:Generated_Source\PSoC6\pdl\drivers\peripheral\sysclk/cy_sysclk.c **** * Call \ref Cy_SysLib_SetWaitStates before calling this function if
ARM GAS  C:\Users\mcfdo\AppData\Local\Temp\cc58ZVDP.s 			page 34


 614:Generated_Source\PSoC6\pdl\drivers\peripheral\sysclk/cy_sysclk.c **** * the FLL is the source of CLK_HF0 and the CLK_HF0 frequency is increasing.
 615:Generated_Source\PSoC6\pdl\drivers\peripheral\sysclk/cy_sysclk.c **** *
 616:Generated_Source\PSoC6\pdl\drivers\peripheral\sysclk/cy_sysclk.c **** * \funcusage
 617:Generated_Source\PSoC6\pdl\drivers\peripheral\sysclk/cy_sysclk.c **** * \snippet sysclk/1.20/snippet/main.c snippet_Cy_SysClk_FllEnable
 618:Generated_Source\PSoC6\pdl\drivers\peripheral\sysclk/cy_sysclk.c **** *
 619:Generated_Source\PSoC6\pdl\drivers\peripheral\sysclk/cy_sysclk.c **** *******************************************************************************/
 620:Generated_Source\PSoC6\pdl\drivers\peripheral\sysclk/cy_sysclk.c **** cy_en_sysclk_status_t Cy_SysClk_FllEnable(uint32_t timeoutus)
 621:Generated_Source\PSoC6\pdl\drivers\peripheral\sysclk/cy_sysclk.c **** {
 1140              		.loc 1 621 0
 1141              		.cfi_startproc
 1142              		@ args = 0, pretend = 0, frame = 0
 1143              		@ frame_needed = 0, uses_anonymous_args = 0
 1144              	.LVL91:
 622:Generated_Source\PSoC6\pdl\drivers\peripheral\sysclk/cy_sysclk.c ****     bool zeroTimeout = (0UL == timeoutus);
 623:Generated_Source\PSoC6\pdl\drivers\peripheral\sysclk/cy_sysclk.c **** 
 624:Generated_Source\PSoC6\pdl\drivers\peripheral\sysclk/cy_sysclk.c ****     /* first set the CCO enable bit */
 625:Generated_Source\PSoC6\pdl\drivers\peripheral\sysclk/cy_sysclk.c ****     SRSS_CLK_FLL_CONFIG4 |= SRSS_CLK_FLL_CONFIG4_CCO_ENABLE_Msk;
 1145              		.loc 1 625 0
 1146 0000 2E4B     		ldr	r3, .L160
 1147 0002 D3F88C25 		ldr	r2, [r3, #1420]
 1148 0006 42F00042 		orr	r2, r2, #-2147483648
 621:Generated_Source\PSoC6\pdl\drivers\peripheral\sysclk/cy_sysclk.c ****     bool zeroTimeout = (0UL == timeoutus);
 1149              		.loc 1 621 0
 1150 000a 70B5     		push	{r4, r5, r6, lr}
 1151              		.cfi_def_cfa_offset 16
 1152              		.cfi_offset 4, -16
 1153              		.cfi_offset 5, -12
 1154              		.cfi_offset 6, -8
 1155              		.cfi_offset 14, -4
 621:Generated_Source\PSoC6\pdl\drivers\peripheral\sysclk/cy_sysclk.c ****     bool zeroTimeout = (0UL == timeoutus);
 1156              		.loc 1 621 0
 1157 000c 0446     		mov	r4, r0
 1158              		.loc 1 625 0
 1159 000e C3F88C25 		str	r2, [r3, #1420]
 626:Generated_Source\PSoC6\pdl\drivers\peripheral\sysclk/cy_sysclk.c **** 
 627:Generated_Source\PSoC6\pdl\drivers\peripheral\sysclk/cy_sysclk.c ****     /* Wait until CCO is ready */
 628:Generated_Source\PSoC6\pdl\drivers\peripheral\sysclk/cy_sysclk.c ****     for (; (!_FLD2BOOL(SRSS_CLK_FLL_STATUS_CCO_READY, SRSS_CLK_FLL_STATUS)) && /* if cco_ready == 0
 1160              		.loc 1 628 0
 1161 0012 0546     		mov	r5, r0
 1162 0014 1E46     		mov	r6, r3
 1163              	.LVL92:
 1164              	.L127:
 1165 0016 D6F89035 		ldr	r3, [r6, #1424]
 1166 001a 284A     		ldr	r2, .L160
 1167 001c 13F0040F 		tst	r3, #4
 1168 0020 05D1     		bne	.L128
 1169              		.loc 1 628 0 is_stmt 0 discriminator 1
 1170 0022 25B1     		cbz	r5, .L128
 629:Generated_Source\PSoC6\pdl\drivers\peripheral\sysclk/cy_sysclk.c ****            (0UL != timeoutus);
 630:Generated_Source\PSoC6\pdl\drivers\peripheral\sysclk/cy_sysclk.c ****          timeoutus--)
 631:Generated_Source\PSoC6\pdl\drivers\peripheral\sysclk/cy_sysclk.c ****     {
 632:Generated_Source\PSoC6\pdl\drivers\peripheral\sysclk/cy_sysclk.c ****         Cy_SysLib_DelayUs(1U);
 1171              		.loc 1 632 0 is_stmt 1
 1172 0024 0120     		movs	r0, #1
 1173 0026 FFF7FEFF 		bl	Cy_SysLib_DelayUs
 1174              	.LVL93:
 630:Generated_Source\PSoC6\pdl\drivers\peripheral\sysclk/cy_sysclk.c ****     {
ARM GAS  C:\Users\mcfdo\AppData\Local\Temp\cc58ZVDP.s 			page 35


 1175              		.loc 1 630 0
 1176 002a 013D     		subs	r5, r5, #1
 1177              	.LVL94:
 1178 002c F3E7     		b	.L127
 1179              	.L128:
 633:Generated_Source\PSoC6\pdl\drivers\peripheral\sysclk/cy_sysclk.c ****     }
 634:Generated_Source\PSoC6\pdl\drivers\peripheral\sysclk/cy_sysclk.c **** 
 635:Generated_Source\PSoC6\pdl\drivers\peripheral\sysclk/cy_sysclk.c ****     /* Set the FLL bypass mode to FLL_REF */
 636:Generated_Source\PSoC6\pdl\drivers\peripheral\sysclk/cy_sysclk.c ****     CY_REG32_CLR_SET(SRSS_CLK_FLL_CONFIG3, SRSS_CLK_FLL_CONFIG3_BYPASS_SEL, CY_SYSCLK_FLLPLL_OUTPUT
 1180              		.loc 1 636 0
 1181 002e D2F88835 		ldr	r3, [r2, #1416]
 1182 0032 23F04053 		bic	r3, r3, #805306368
 1183 0036 43F00053 		orr	r3, r3, #536870912
 1184 003a C2F88835 		str	r3, [r2, #1416]
 637:Generated_Source\PSoC6\pdl\drivers\peripheral\sysclk/cy_sysclk.c **** 
 638:Generated_Source\PSoC6\pdl\drivers\peripheral\sysclk/cy_sysclk.c ****     /* Set the FLL enable bit, if CCO is ready */
 639:Generated_Source\PSoC6\pdl\drivers\peripheral\sysclk/cy_sysclk.c ****     if (zeroTimeout || (0UL != timeoutus))
 1185              		.loc 1 639 0
 1186 003e 04B1     		cbz	r4, .L130
 1187              		.loc 1 639 0 is_stmt 0 discriminator 1
 1188 0040 35B1     		cbz	r5, .L131
 1189              	.L130:
 640:Generated_Source\PSoC6\pdl\drivers\peripheral\sysclk/cy_sysclk.c ****     {
 641:Generated_Source\PSoC6\pdl\drivers\peripheral\sysclk/cy_sysclk.c ****         SRSS_CLK_FLL_CONFIG |= SRSS_CLK_FLL_CONFIG_FLL_ENABLE_Msk;
 1190              		.loc 1 641 0 is_stmt 1
 1191 0042 1E4A     		ldr	r2, .L160
 1192 0044 D2F88035 		ldr	r3, [r2, #1408]
 1193 0048 43F00043 		orr	r3, r3, #-2147483648
 1194 004c C2F88035 		str	r3, [r2, #1408]
 1195              	.L131:
 1196              	.LBB37:
 1197              	.LBB38:
 1198              		.file 2 "Generated_Source\\PSoC6\\pdl\\drivers\\peripheral\\sysclk\\cy_sysclk.h"
   1:Generated_Source\PSoC6\pdl\drivers\peripheral\sysclk/cy_sysclk.h **** /***************************************************************************//**
   2:Generated_Source\PSoC6\pdl\drivers\peripheral\sysclk/cy_sysclk.h **** * \file cy_sysclk.h
   3:Generated_Source\PSoC6\pdl\drivers\peripheral\sysclk/cy_sysclk.h **** * \version 1.20
   4:Generated_Source\PSoC6\pdl\drivers\peripheral\sysclk/cy_sysclk.h **** *
   5:Generated_Source\PSoC6\pdl\drivers\peripheral\sysclk/cy_sysclk.h **** * Provides an API declaration of the sysclk driver.
   6:Generated_Source\PSoC6\pdl\drivers\peripheral\sysclk/cy_sysclk.h **** *
   7:Generated_Source\PSoC6\pdl\drivers\peripheral\sysclk/cy_sysclk.h **** ********************************************************************************
   8:Generated_Source\PSoC6\pdl\drivers\peripheral\sysclk/cy_sysclk.h **** * \copyright
   9:Generated_Source\PSoC6\pdl\drivers\peripheral\sysclk/cy_sysclk.h **** * Copyright 2016-2018, Cypress Semiconductor Corporation. All rights reserved.
  10:Generated_Source\PSoC6\pdl\drivers\peripheral\sysclk/cy_sysclk.h **** * You may use this file only in accordance with the license, terms, conditions,
  11:Generated_Source\PSoC6\pdl\drivers\peripheral\sysclk/cy_sysclk.h **** * disclaimers, and limitations in the end user license agreement accompanying
  12:Generated_Source\PSoC6\pdl\drivers\peripheral\sysclk/cy_sysclk.h **** * the software package with which this file was provided.
  13:Generated_Source\PSoC6\pdl\drivers\peripheral\sysclk/cy_sysclk.h **** *******************************************************************************/
  14:Generated_Source\PSoC6\pdl\drivers\peripheral\sysclk/cy_sysclk.h **** 
  15:Generated_Source\PSoC6\pdl\drivers\peripheral\sysclk/cy_sysclk.h **** /**
  16:Generated_Source\PSoC6\pdl\drivers\peripheral\sysclk/cy_sysclk.h **** * \addtogroup group_sysclk
  17:Generated_Source\PSoC6\pdl\drivers\peripheral\sysclk/cy_sysclk.h **** * \{
  18:Generated_Source\PSoC6\pdl\drivers\peripheral\sysclk/cy_sysclk.h **** * The System Clock (SysClk) driver contains the API for configuring system and
  19:Generated_Source\PSoC6\pdl\drivers\peripheral\sysclk/cy_sysclk.h **** * peripheral clocks. 
  20:Generated_Source\PSoC6\pdl\drivers\peripheral\sysclk/cy_sysclk.h **** *
  21:Generated_Source\PSoC6\pdl\drivers\peripheral\sysclk/cy_sysclk.h **** * The functions and other declarations used in this driver are in cy_sysclk.h. 
  22:Generated_Source\PSoC6\pdl\drivers\peripheral\sysclk/cy_sysclk.h **** * You can include cy_pdl.h (ModusToolbox only) to get access to all functions 
  23:Generated_Source\PSoC6\pdl\drivers\peripheral\sysclk/cy_sysclk.h **** * and declarations in the PDL. 
  24:Generated_Source\PSoC6\pdl\drivers\peripheral\sysclk/cy_sysclk.h **** *
ARM GAS  C:\Users\mcfdo\AppData\Local\Temp\cc58ZVDP.s 			page 36


  25:Generated_Source\PSoC6\pdl\drivers\peripheral\sysclk/cy_sysclk.h **** * Firmware uses the API to configure , enable, or disable a clock.
  26:Generated_Source\PSoC6\pdl\drivers\peripheral\sysclk/cy_sysclk.h **** * 
  27:Generated_Source\PSoC6\pdl\drivers\peripheral\sysclk/cy_sysclk.h **** * The clock system includes a variety of resources that can vary per device, including:
  28:Generated_Source\PSoC6\pdl\drivers\peripheral\sysclk/cy_sysclk.h **** * - Internal clock sources such as internal oscillators
  29:Generated_Source\PSoC6\pdl\drivers\peripheral\sysclk/cy_sysclk.h **** * - External clock sources such as crystal oscillators or a signal on an I/O pin
  30:Generated_Source\PSoC6\pdl\drivers\peripheral\sysclk/cy_sysclk.h **** * - Generated clocks such as an FLL, a PLL, and peripheral clocks
  31:Generated_Source\PSoC6\pdl\drivers\peripheral\sysclk/cy_sysclk.h **** *
  32:Generated_Source\PSoC6\pdl\drivers\peripheral\sysclk/cy_sysclk.h **** * Consult the Technical Reference Manual for your device for details of the 
  33:Generated_Source\PSoC6\pdl\drivers\peripheral\sysclk/cy_sysclk.h **** * clock system.
  34:Generated_Source\PSoC6\pdl\drivers\peripheral\sysclk/cy_sysclk.h **** *
  35:Generated_Source\PSoC6\pdl\drivers\peripheral\sysclk/cy_sysclk.h **** * The PDL defines clock system capabilities in:\n
  36:Generated_Source\PSoC6\pdl\drivers\peripheral\sysclk/cy_sysclk.h **** * devices\<family\>/<series\>/include\<series\>_config.h. (E.g.
  37:Generated_Source\PSoC6\pdl\drivers\peripheral\sysclk/cy_sysclk.h **** * devices/psoc6/include/psoc6_01_config.h).
  38:Generated_Source\PSoC6\pdl\drivers\peripheral\sysclk/cy_sysclk.h **** * User-configurable clock speeds are defined in the file system_<series>.h.
  39:Generated_Source\PSoC6\pdl\drivers\peripheral\sysclk/cy_sysclk.h **** *
  40:Generated_Source\PSoC6\pdl\drivers\peripheral\sysclk/cy_sysclk.h **** * As an illustration of the clocking system, the following diagram shows the
  41:Generated_Source\PSoC6\pdl\drivers\peripheral\sysclk/cy_sysclk.h **** * PSoC 63 series clock tree. The actual tree may vary depending on the device series.
  42:Generated_Source\PSoC6\pdl\drivers\peripheral\sysclk/cy_sysclk.h **** * Consult the Technical Reference Manual for your device for details.
  43:Generated_Source\PSoC6\pdl\drivers\peripheral\sysclk/cy_sysclk.h **** * ![](sysclk_tree.png)
  44:Generated_Source\PSoC6\pdl\drivers\peripheral\sysclk/cy_sysclk.h **** *
  45:Generated_Source\PSoC6\pdl\drivers\peripheral\sysclk/cy_sysclk.h **** * The sysclk driver supports multiple peripheral clocks, as well as the fast 
  46:Generated_Source\PSoC6\pdl\drivers\peripheral\sysclk/cy_sysclk.h **** * clock, slow clock, backup domain clock, timer clock, and pump clock. The API
  47:Generated_Source\PSoC6\pdl\drivers\peripheral\sysclk/cy_sysclk.h **** * for any given clock contains the functions to manage that clock. Functions
  48:Generated_Source\PSoC6\pdl\drivers\peripheral\sysclk/cy_sysclk.h **** * for clock measurement and trimming are also provided.
  49:Generated_Source\PSoC6\pdl\drivers\peripheral\sysclk/cy_sysclk.h **** *
  50:Generated_Source\PSoC6\pdl\drivers\peripheral\sysclk/cy_sysclk.h **** * \section group_sysclk_configuration Configuration Considerations
  51:Generated_Source\PSoC6\pdl\drivers\peripheral\sysclk/cy_sysclk.h **** * The availability of clock functions depend on the availability of the chip
  52:Generated_Source\PSoC6\pdl\drivers\peripheral\sysclk/cy_sysclk.h **** * resources that support those functions. Consult the device TRM before
  53:Generated_Source\PSoC6\pdl\drivers\peripheral\sysclk/cy_sysclk.h **** * attempting to use these functions.
  54:Generated_Source\PSoC6\pdl\drivers\peripheral\sysclk/cy_sysclk.h **** *
  55:Generated_Source\PSoC6\pdl\drivers\peripheral\sysclk/cy_sysclk.h **** * LPActive and LPSleep power modes limit the maximum clock frequency allowed
  56:Generated_Source\PSoC6\pdl\drivers\peripheral\sysclk/cy_sysclk.h **** * on the device. Refer to the SysPm driver and the TRM for details.
  57:Generated_Source\PSoC6\pdl\drivers\peripheral\sysclk/cy_sysclk.h **** *
  58:Generated_Source\PSoC6\pdl\drivers\peripheral\sysclk/cy_sysclk.h **** * \section group_sysclk_more_information More Information
  59:Generated_Source\PSoC6\pdl\drivers\peripheral\sysclk/cy_sysclk.h **** * Refer to the technical reference manual (TRM) and the device datasheet.
  60:Generated_Source\PSoC6\pdl\drivers\peripheral\sysclk/cy_sysclk.h **** *
  61:Generated_Source\PSoC6\pdl\drivers\peripheral\sysclk/cy_sysclk.h **** * \section group_sysclk_MISRA MISRA-C Compliance
  62:Generated_Source\PSoC6\pdl\drivers\peripheral\sysclk/cy_sysclk.h **** * <table class="doxtable">
  63:Generated_Source\PSoC6\pdl\drivers\peripheral\sysclk/cy_sysclk.h **** *   <tr>
  64:Generated_Source\PSoC6\pdl\drivers\peripheral\sysclk/cy_sysclk.h **** *     <th>MISRA Rule</th>
  65:Generated_Source\PSoC6\pdl\drivers\peripheral\sysclk/cy_sysclk.h **** *     <th>Rule Class (Required/Advisory)</th>
  66:Generated_Source\PSoC6\pdl\drivers\peripheral\sysclk/cy_sysclk.h **** *     <th>Rule Description</th>
  67:Generated_Source\PSoC6\pdl\drivers\peripheral\sysclk/cy_sysclk.h **** *     <th>Description of Deviation(s)</th>
  68:Generated_Source\PSoC6\pdl\drivers\peripheral\sysclk/cy_sysclk.h **** *   </tr>
  69:Generated_Source\PSoC6\pdl\drivers\peripheral\sysclk/cy_sysclk.h **** *   <tr>
  70:Generated_Source\PSoC6\pdl\drivers\peripheral\sysclk/cy_sysclk.h **** *     <td>10.3</td>
  71:Generated_Source\PSoC6\pdl\drivers\peripheral\sysclk/cy_sysclk.h **** *     <td>R</td>
  72:Generated_Source\PSoC6\pdl\drivers\peripheral\sysclk/cy_sysclk.h **** *     <td>A composite expression of the "essentially unsigned" type is being
  73:Generated_Source\PSoC6\pdl\drivers\peripheral\sysclk/cy_sysclk.h **** *         cast to a different type category.</td>
  74:Generated_Source\PSoC6\pdl\drivers\peripheral\sysclk/cy_sysclk.h **** *     <td>The value got from the bitfield physically cannot exceed the enumeration
  75:Generated_Source\PSoC6\pdl\drivers\peripheral\sysclk/cy_sysclk.h **** *         that describes this bitfield. So, the code is safe by design.</td>
  76:Generated_Source\PSoC6\pdl\drivers\peripheral\sysclk/cy_sysclk.h **** *   </tr>
  77:Generated_Source\PSoC6\pdl\drivers\peripheral\sysclk/cy_sysclk.h **** *   <tr>
  78:Generated_Source\PSoC6\pdl\drivers\peripheral\sysclk/cy_sysclk.h **** *     <td>10.4</td>
  79:Generated_Source\PSoC6\pdl\drivers\peripheral\sysclk/cy_sysclk.h **** *     <td>R</td>
  80:Generated_Source\PSoC6\pdl\drivers\peripheral\sysclk/cy_sysclk.h **** *     <td>A composite floating point expression is being cast to double, or unsigned.</td>
  81:Generated_Source\PSoC6\pdl\drivers\peripheral\sysclk/cy_sysclk.h **** *     <td>Casting a floating-point calculation result to an integer.</td>
ARM GAS  C:\Users\mcfdo\AppData\Local\Temp\cc58ZVDP.s 			page 37


  82:Generated_Source\PSoC6\pdl\drivers\peripheral\sysclk/cy_sysclk.h **** *   </tr>
  83:Generated_Source\PSoC6\pdl\drivers\peripheral\sysclk/cy_sysclk.h **** *   <tr>
  84:Generated_Source\PSoC6\pdl\drivers\peripheral\sysclk/cy_sysclk.h **** *     <td>13.4</td>
  85:Generated_Source\PSoC6\pdl\drivers\peripheral\sysclk/cy_sysclk.h **** *     <td>R</td>
  86:Generated_Source\PSoC6\pdl\drivers\peripheral\sysclk/cy_sysclk.h **** *     <td>The controlling expression of a for statement shall not contain any objects of floating t
  87:Generated_Source\PSoC6\pdl\drivers\peripheral\sysclk/cy_sysclk.h **** *     <td>Scanning through a list of floating point values: only greater_than/less_then checks are 
  88:Generated_Source\PSoC6\pdl\drivers\peripheral\sysclk/cy_sysclk.h **** *         with floating point numbers, the loop counter is integer. </td>
  89:Generated_Source\PSoC6\pdl\drivers\peripheral\sysclk/cy_sysclk.h **** *   </tr>
  90:Generated_Source\PSoC6\pdl\drivers\peripheral\sysclk/cy_sysclk.h **** *   <tr>
  91:Generated_Source\PSoC6\pdl\drivers\peripheral\sysclk/cy_sysclk.h **** *     <td>16.7</td>
  92:Generated_Source\PSoC6\pdl\drivers\peripheral\sysclk/cy_sysclk.h **** *     <td>R</td>
  93:Generated_Source\PSoC6\pdl\drivers\peripheral\sysclk/cy_sysclk.h **** *     <td>The object addressed by the pointer parameter is not modified and so the pointer could be
  94:Generated_Source\PSoC6\pdl\drivers\peripheral\sysclk/cy_sysclk.h **** *         type 'pointer to const'.</td>
  95:Generated_Source\PSoC6\pdl\drivers\peripheral\sysclk/cy_sysclk.h **** *     <td>The callback function for system power management (SysPm) must be of generic callback typ
  96:Generated_Source\PSoC6\pdl\drivers\peripheral\sysclk/cy_sysclk.h **** *         contains non-const pointer parameter.</td>
  97:Generated_Source\PSoC6\pdl\drivers\peripheral\sysclk/cy_sysclk.h **** *   </tr>
  98:Generated_Source\PSoC6\pdl\drivers\peripheral\sysclk/cy_sysclk.h **** * </table>
  99:Generated_Source\PSoC6\pdl\drivers\peripheral\sysclk/cy_sysclk.h **** *
 100:Generated_Source\PSoC6\pdl\drivers\peripheral\sysclk/cy_sysclk.h **** * \section group_sysclk_changelog Changelog
 101:Generated_Source\PSoC6\pdl\drivers\peripheral\sysclk/cy_sysclk.h **** * <table class="doxtable">
 102:Generated_Source\PSoC6\pdl\drivers\peripheral\sysclk/cy_sysclk.h **** *   <tr><th>Version</th><th>Changes</th><th>Reason for Change</th></tr>
 103:Generated_Source\PSoC6\pdl\drivers\peripheral\sysclk/cy_sysclk.h **** *   <tr>
 104:Generated_Source\PSoC6\pdl\drivers\peripheral\sysclk/cy_sysclk.h **** *     <td rowspan="4">1.20</td>
 105:Generated_Source\PSoC6\pdl\drivers\peripheral\sysclk/cy_sysclk.h **** *     <td>Flattened the organization of the driver source code into the single 
 106:Generated_Source\PSoC6\pdl\drivers\peripheral\sysclk/cy_sysclk.h **** *         source directory and the single include directory.
 107:Generated_Source\PSoC6\pdl\drivers\peripheral\sysclk/cy_sysclk.h **** *     </td>
 108:Generated_Source\PSoC6\pdl\drivers\peripheral\sysclk/cy_sysclk.h **** *     <td>Driver library directory-structure simplification.</td>
 109:Generated_Source\PSoC6\pdl\drivers\peripheral\sysclk/cy_sysclk.h **** *   </tr>
 110:Generated_Source\PSoC6\pdl\drivers\peripheral\sysclk/cy_sysclk.h **** *   <tr>
 111:Generated_Source\PSoC6\pdl\drivers\peripheral\sysclk/cy_sysclk.h **** *     <td>Updated \ref Cy_SysClk_FllLocked function description</td>
 112:Generated_Source\PSoC6\pdl\drivers\peripheral\sysclk/cy_sysclk.h **** *     <td>The SRSS_ver1 HW details clarification</td>
 113:Generated_Source\PSoC6\pdl\drivers\peripheral\sysclk/cy_sysclk.h **** *   </tr>
 114:Generated_Source\PSoC6\pdl\drivers\peripheral\sysclk/cy_sysclk.h **** *   <tr>
 115:Generated_Source\PSoC6\pdl\drivers\peripheral\sysclk/cy_sysclk.h **** *     <td>Removed the following functions:
 116:Generated_Source\PSoC6\pdl\drivers\peripheral\sysclk/cy_sysclk.h **** *         - Cy_SysClk_FllLostLock
 117:Generated_Source\PSoC6\pdl\drivers\peripheral\sysclk/cy_sysclk.h **** *         - Cy_SysClk_WcoConfigureCsv
 118:Generated_Source\PSoC6\pdl\drivers\peripheral\sysclk/cy_sysclk.h **** *         - Cy_SysClk_ClkHfConfigureCsv
 119:Generated_Source\PSoC6\pdl\drivers\peripheral\sysclk/cy_sysclk.h **** *     </td>
 120:Generated_Source\PSoC6\pdl\drivers\peripheral\sysclk/cy_sysclk.h **** *     <td>No hardware support for the removed functions.</td>
 121:Generated_Source\PSoC6\pdl\drivers\peripheral\sysclk/cy_sysclk.h **** *   </tr>
 122:Generated_Source\PSoC6\pdl\drivers\peripheral\sysclk/cy_sysclk.h **** *   <tr>
 123:Generated_Source\PSoC6\pdl\drivers\peripheral\sysclk/cy_sysclk.h **** *     <td>Added register access layer. Use register access macros instead
 124:Generated_Source\PSoC6\pdl\drivers\peripheral\sysclk/cy_sysclk.h **** *         of direct register access using dereferenced pointers.</td>
 125:Generated_Source\PSoC6\pdl\drivers\peripheral\sysclk/cy_sysclk.h **** *     <td>Makes register access device-independent, so that the PDL does 
 126:Generated_Source\PSoC6\pdl\drivers\peripheral\sysclk/cy_sysclk.h **** *         not need to be recompiled for each supported part number.</td>
 127:Generated_Source\PSoC6\pdl\drivers\peripheral\sysclk/cy_sysclk.h **** *   </tr>
 128:Generated_Source\PSoC6\pdl\drivers\peripheral\sysclk/cy_sysclk.h **** *   <tr>
 129:Generated_Source\PSoC6\pdl\drivers\peripheral\sysclk/cy_sysclk.h **** *     <td>1.11</td>
 130:Generated_Source\PSoC6\pdl\drivers\peripheral\sysclk/cy_sysclk.h **** *     <td>Updated the following functions. Now they use a semaphore when 
 131:Generated_Source\PSoC6\pdl\drivers\peripheral\sysclk/cy_sysclk.h **** *         try to read the status or configure the SysClk measurement counters:
 132:Generated_Source\PSoC6\pdl\drivers\peripheral\sysclk/cy_sysclk.h **** *         * Cy_SysClk_StartClkMeasurementCounters()
 133:Generated_Source\PSoC6\pdl\drivers\peripheral\sysclk/cy_sysclk.h **** *         * Cy_SysClk_ClkMeasurementCountersGetFreq()
 134:Generated_Source\PSoC6\pdl\drivers\peripheral\sysclk/cy_sysclk.h **** *
 135:Generated_Source\PSoC6\pdl\drivers\peripheral\sysclk/cy_sysclk.h **** *         Now Cy_SysClk_ClkMeasurementCountersGetFreq() returns zero value,
 136:Generated_Source\PSoC6\pdl\drivers\peripheral\sysclk/cy_sysclk.h **** *         if during measurement device was in the Deep Sleep or partially
 137:Generated_Source\PSoC6\pdl\drivers\peripheral\sysclk/cy_sysclk.h **** *         blocking flash operation occurred </td>
 138:Generated_Source\PSoC6\pdl\drivers\peripheral\sysclk/cy_sysclk.h **** *     <td>Added arbiter mechanism for correct usage of the SysClk measurement 
ARM GAS  C:\Users\mcfdo\AppData\Local\Temp\cc58ZVDP.s 			page 38


 139:Generated_Source\PSoC6\pdl\drivers\peripheral\sysclk/cy_sysclk.h **** *         counters</td>
 140:Generated_Source\PSoC6\pdl\drivers\peripheral\sysclk/cy_sysclk.h **** *   </tr>
 141:Generated_Source\PSoC6\pdl\drivers\peripheral\sysclk/cy_sysclk.h **** *   <tr>
 142:Generated_Source\PSoC6\pdl\drivers\peripheral\sysclk/cy_sysclk.h **** *     <td>1.10.1</td>
 143:Generated_Source\PSoC6\pdl\drivers\peripheral\sysclk/cy_sysclk.h **** *     <td>Renamed Power Management section to Low Power Callback section</td>
 144:Generated_Source\PSoC6\pdl\drivers\peripheral\sysclk/cy_sysclk.h **** *     <td>Documentation update and clarification</td>
 145:Generated_Source\PSoC6\pdl\drivers\peripheral\sysclk/cy_sysclk.h **** *   </tr>
 146:Generated_Source\PSoC6\pdl\drivers\peripheral\sysclk/cy_sysclk.h **** *   <tr>
 147:Generated_Source\PSoC6\pdl\drivers\peripheral\sysclk/cy_sysclk.h **** *     <td rowspan="5">1.10</td>
 148:Generated_Source\PSoC6\pdl\drivers\peripheral\sysclk/cy_sysclk.h **** *     <td>Updated FLL parameter calculation</td>
 149:Generated_Source\PSoC6\pdl\drivers\peripheral\sysclk/cy_sysclk.h **** *     <td>Support low frequency sources</td>
 150:Generated_Source\PSoC6\pdl\drivers\peripheral\sysclk/cy_sysclk.h **** *   </tr>
 151:Generated_Source\PSoC6\pdl\drivers\peripheral\sysclk/cy_sysclk.h **** *   <tr>
 152:Generated_Source\PSoC6\pdl\drivers\peripheral\sysclk/cy_sysclk.h **** *     <td>Added Cy_SysClk_PiloSetTrim() and Cy_SysclkPiloGetTrim() functions</td>
 153:Generated_Source\PSoC6\pdl\drivers\peripheral\sysclk/cy_sysclk.h **** *     <td>Support PILO manual trims</td>
 154:Generated_Source\PSoC6\pdl\drivers\peripheral\sysclk/cy_sysclk.h **** *   </tr>
 155:Generated_Source\PSoC6\pdl\drivers\peripheral\sysclk/cy_sysclk.h **** *   <tr>
 156:Generated_Source\PSoC6\pdl\drivers\peripheral\sysclk/cy_sysclk.h **** *     <td>Made Cy_SysClk_FllLostLock() function dependent on SRSS v1</td>
 157:Generated_Source\PSoC6\pdl\drivers\peripheral\sysclk/cy_sysclk.h **** *     <td>Feature is not supported in SRSS v1</td>
 158:Generated_Source\PSoC6\pdl\drivers\peripheral\sysclk/cy_sysclk.h **** *   </tr>
 159:Generated_Source\PSoC6\pdl\drivers\peripheral\sysclk/cy_sysclk.h **** *   <tr>
 160:Generated_Source\PSoC6\pdl\drivers\peripheral\sysclk/cy_sysclk.h **** *     <td>Updated Cy_SysClk_DeepSleepCallback() to save/restore both FLL and PLL settings</td>
 161:Generated_Source\PSoC6\pdl\drivers\peripheral\sysclk/cy_sysclk.h **** *     <td>The function should return when the lock is established or a timeout has occurred</td>
 162:Generated_Source\PSoC6\pdl\drivers\peripheral\sysclk/cy_sysclk.h **** *   </tr>
 163:Generated_Source\PSoC6\pdl\drivers\peripheral\sysclk/cy_sysclk.h **** *   <tr>
 164:Generated_Source\PSoC6\pdl\drivers\peripheral\sysclk/cy_sysclk.h **** *     <td>General documentation updates</td>
 165:Generated_Source\PSoC6\pdl\drivers\peripheral\sysclk/cy_sysclk.h **** *     <td></td>
 166:Generated_Source\PSoC6\pdl\drivers\peripheral\sysclk/cy_sysclk.h **** *   </tr>
 167:Generated_Source\PSoC6\pdl\drivers\peripheral\sysclk/cy_sysclk.h **** *   <tr>
 168:Generated_Source\PSoC6\pdl\drivers\peripheral\sysclk/cy_sysclk.h **** *     <td>1.0</td>
 169:Generated_Source\PSoC6\pdl\drivers\peripheral\sysclk/cy_sysclk.h **** *     <td>Initial version</td>
 170:Generated_Source\PSoC6\pdl\drivers\peripheral\sysclk/cy_sysclk.h **** *     <td></td>
 171:Generated_Source\PSoC6\pdl\drivers\peripheral\sysclk/cy_sysclk.h **** *   </tr>
 172:Generated_Source\PSoC6\pdl\drivers\peripheral\sysclk/cy_sysclk.h **** * </table>
 173:Generated_Source\PSoC6\pdl\drivers\peripheral\sysclk/cy_sysclk.h **** *
 174:Generated_Source\PSoC6\pdl\drivers\peripheral\sysclk/cy_sysclk.h **** * \defgroup group_sysclk_macros           Macros
 175:Generated_Source\PSoC6\pdl\drivers\peripheral\sysclk/cy_sysclk.h **** * \{
 176:Generated_Source\PSoC6\pdl\drivers\peripheral\sysclk/cy_sysclk.h **** * \}
 177:Generated_Source\PSoC6\pdl\drivers\peripheral\sysclk/cy_sysclk.h **** * \defgroup group_sysclk_enums           General Enumerated Types
 178:Generated_Source\PSoC6\pdl\drivers\peripheral\sysclk/cy_sysclk.h **** * \{
 179:Generated_Source\PSoC6\pdl\drivers\peripheral\sysclk/cy_sysclk.h **** *   \defgroup group_sysclk_returns         Function return values
 180:Generated_Source\PSoC6\pdl\drivers\peripheral\sysclk/cy_sysclk.h **** * \}
 181:Generated_Source\PSoC6\pdl\drivers\peripheral\sysclk/cy_sysclk.h **** * \defgroup group_sysclk_eco             External Crystal Oscillator (ECO)
 182:Generated_Source\PSoC6\pdl\drivers\peripheral\sysclk/cy_sysclk.h **** * \{
 183:Generated_Source\PSoC6\pdl\drivers\peripheral\sysclk/cy_sysclk.h **** *   The External Crystal Oscillator (ECO) is a clock source that consists
 184:Generated_Source\PSoC6\pdl\drivers\peripheral\sysclk/cy_sysclk.h **** *   of an oscillator circuit that drives an external crystal through its
 185:Generated_Source\PSoC6\pdl\drivers\peripheral\sysclk/cy_sysclk.h **** *   dedicated ECO pins. The ECO is a source clock that can be used to
 186:Generated_Source\PSoC6\pdl\drivers\peripheral\sysclk/cy_sysclk.h **** *   source one or more clock paths (Refer to \ref group_sysclk_path_src).
 187:Generated_Source\PSoC6\pdl\drivers\peripheral\sysclk/cy_sysclk.h **** *   These clock paths can then source the processors and peripherals in
 188:Generated_Source\PSoC6\pdl\drivers\peripheral\sysclk/cy_sysclk.h **** *   the device.
 189:Generated_Source\PSoC6\pdl\drivers\peripheral\sysclk/cy_sysclk.h **** *
 190:Generated_Source\PSoC6\pdl\drivers\peripheral\sysclk/cy_sysclk.h **** *   The ECO relies on the presence of an external crystal. The pins
 191:Generated_Source\PSoC6\pdl\drivers\peripheral\sysclk/cy_sysclk.h **** *   connected to this crystal must be configured to operate in analog
 192:Generated_Source\PSoC6\pdl\drivers\peripheral\sysclk/cy_sysclk.h **** *   drive mode with HSIOM connection set to GPIO control (HSIOM_SEL_GPIO).
 193:Generated_Source\PSoC6\pdl\drivers\peripheral\sysclk/cy_sysclk.h **** *
 194:Generated_Source\PSoC6\pdl\drivers\peripheral\sysclk/cy_sysclk.h **** *   \defgroup group_sysclk_eco_funcs       Functions
 195:Generated_Source\PSoC6\pdl\drivers\peripheral\sysclk/cy_sysclk.h **** * \}
ARM GAS  C:\Users\mcfdo\AppData\Local\Temp\cc58ZVDP.s 			page 39


 196:Generated_Source\PSoC6\pdl\drivers\peripheral\sysclk/cy_sysclk.h **** * \defgroup group_sysclk_path_src           Clock Path Source
 197:Generated_Source\PSoC6\pdl\drivers\peripheral\sysclk/cy_sysclk.h **** * \{
 198:Generated_Source\PSoC6\pdl\drivers\peripheral\sysclk/cy_sysclk.h **** *   Clock paths are a series of multiplexers that allow a source clock
 199:Generated_Source\PSoC6\pdl\drivers\peripheral\sysclk/cy_sysclk.h **** *   to drive multiple clocking resources down the chain. These paths are
 200:Generated_Source\PSoC6\pdl\drivers\peripheral\sysclk/cy_sysclk.h **** *   used for active domain clocks that are not operational during chip 
 201:Generated_Source\PSoC6\pdl\drivers\peripheral\sysclk/cy_sysclk.h **** *   deep-sleep, hibernate and off modes. Illustrated below is a diagram
 202:Generated_Source\PSoC6\pdl\drivers\peripheral\sysclk/cy_sysclk.h **** *   of the clock paths for the PSoC 63 series, showing the first three
 203:Generated_Source\PSoC6\pdl\drivers\peripheral\sysclk/cy_sysclk.h **** *   clock paths. The source clocks for these paths are highlighted in
 204:Generated_Source\PSoC6\pdl\drivers\peripheral\sysclk/cy_sysclk.h **** *   the red box.
 205:Generated_Source\PSoC6\pdl\drivers\peripheral\sysclk/cy_sysclk.h **** *
 206:Generated_Source\PSoC6\pdl\drivers\peripheral\sysclk/cy_sysclk.h **** *   - IMO: 8 MHz Internal Main Oscillator (Default)
 207:Generated_Source\PSoC6\pdl\drivers\peripheral\sysclk/cy_sysclk.h **** *   - EXTCLK: External clock (signal brought in through dedicated pins)
 208:Generated_Source\PSoC6\pdl\drivers\peripheral\sysclk/cy_sysclk.h **** *   - ECO: External Crystal Oscillator (requires external crystal on dedicated pins)
 209:Generated_Source\PSoC6\pdl\drivers\peripheral\sysclk/cy_sysclk.h **** *   - ALTHF: Select on-chip signals (e.g. BLE ECO)
 210:Generated_Source\PSoC6\pdl\drivers\peripheral\sysclk/cy_sysclk.h **** *   - Digital Signal (DSI): Digital signal from a UDB source
 211:Generated_Source\PSoC6\pdl\drivers\peripheral\sysclk/cy_sysclk.h **** *
 212:Generated_Source\PSoC6\pdl\drivers\peripheral\sysclk/cy_sysclk.h **** *   Some clock paths such as path 0 and path 1 have additional resources
 213:Generated_Source\PSoC6\pdl\drivers\peripheral\sysclk/cy_sysclk.h **** *   that can be utilized to provide a higher frequency clock. For example, 
 214:Generated_Source\PSoC6\pdl\drivers\peripheral\sysclk/cy_sysclk.h **** *   path 0 source clock can be used as the reference clock for the FLL and 
 215:Generated_Source\PSoC6\pdl\drivers\peripheral\sysclk/cy_sysclk.h **** *   path 1 source clock can be used as the reference clock for the PLL.
 216:Generated_Source\PSoC6\pdl\drivers\peripheral\sysclk/cy_sysclk.h **** *
 217:Generated_Source\PSoC6\pdl\drivers\peripheral\sysclk/cy_sysclk.h **** *   ![](sysclk_path_source.png)
 218:Generated_Source\PSoC6\pdl\drivers\peripheral\sysclk/cy_sysclk.h **** *
 219:Generated_Source\PSoC6\pdl\drivers\peripheral\sysclk/cy_sysclk.h **** *   \note The PDL driver cannot configure a clock path to use Digital Signal
 220:Generated_Source\PSoC6\pdl\drivers\peripheral\sysclk/cy_sysclk.h **** *   Interconnect (DSI) outputs as sources. This must be done through DSI
 221:Generated_Source\PSoC6\pdl\drivers\peripheral\sysclk/cy_sysclk.h **** *   configuration tool such as PSoC Creator.
 222:Generated_Source\PSoC6\pdl\drivers\peripheral\sysclk/cy_sysclk.h **** *
 223:Generated_Source\PSoC6\pdl\drivers\peripheral\sysclk/cy_sysclk.h **** *   \defgroup group_sysclk_path_src_funcs     Functions
 224:Generated_Source\PSoC6\pdl\drivers\peripheral\sysclk/cy_sysclk.h **** *   \defgroup group_sysclk_path_src_enums     Enumerated Types
 225:Generated_Source\PSoC6\pdl\drivers\peripheral\sysclk/cy_sysclk.h **** * \}
 226:Generated_Source\PSoC6\pdl\drivers\peripheral\sysclk/cy_sysclk.h **** * \defgroup group_sysclk_fll             Frequency Locked Loop (FLL)
 227:Generated_Source\PSoC6\pdl\drivers\peripheral\sysclk/cy_sysclk.h **** * \{
 228:Generated_Source\PSoC6\pdl\drivers\peripheral\sysclk/cy_sysclk.h **** *   The FLL is a clock generation circuit that can be used to produce a
 229:Generated_Source\PSoC6\pdl\drivers\peripheral\sysclk/cy_sysclk.h **** *   higher frequency clock from a reference clock. The output clock exhibits
 230:Generated_Source\PSoC6\pdl\drivers\peripheral\sysclk/cy_sysclk.h **** *   some characteristics of the reference clock such as the accuracy of the
 231:Generated_Source\PSoC6\pdl\drivers\peripheral\sysclk/cy_sysclk.h **** *   source. However other attributes such as the clock phase are not preserved.
 232:Generated_Source\PSoC6\pdl\drivers\peripheral\sysclk/cy_sysclk.h **** *   The FLL is similar in purpose to a (Phase locked loop) PLL but they are
 233:Generated_Source\PSoC6\pdl\drivers\peripheral\sysclk/cy_sysclk.h **** *   not equivalent.
 234:Generated_Source\PSoC6\pdl\drivers\peripheral\sysclk/cy_sysclk.h **** *
 235:Generated_Source\PSoC6\pdl\drivers\peripheral\sysclk/cy_sysclk.h **** *   - They may have different frequency ranges.
 236:Generated_Source\PSoC6\pdl\drivers\peripheral\sysclk/cy_sysclk.h **** *   - The FLL starts up (locks) faster and consumes less current than the PLL.
 237:Generated_Source\PSoC6\pdl\drivers\peripheral\sysclk/cy_sysclk.h **** *   - The FLL accepts a source clock with lower frequency than PLL, such as the WCO (32 KHz). 
 238:Generated_Source\PSoC6\pdl\drivers\peripheral\sysclk/cy_sysclk.h **** *   - The FLL does not lock phase. The hardware consist of a counter with a
 239:Generated_Source\PSoC6\pdl\drivers\peripheral\sysclk/cy_sysclk.h **** *     current-controlled oscillator (CCO). The counter counts the number of output
 240:Generated_Source\PSoC6\pdl\drivers\peripheral\sysclk/cy_sysclk.h **** *     clock edges in a reference clock period and adjusts the CCO until the
 241:Generated_Source\PSoC6\pdl\drivers\peripheral\sysclk/cy_sysclk.h **** *     expected ratio is achieved (locked). After initial lock, the CCO is
 242:Generated_Source\PSoC6\pdl\drivers\peripheral\sysclk/cy_sysclk.h **** *     adjusted dynamically to keep the ratio within tolerance. The lock tolerance
 243:Generated_Source\PSoC6\pdl\drivers\peripheral\sysclk/cy_sysclk.h **** *     is user-adjustable.
 244:Generated_Source\PSoC6\pdl\drivers\peripheral\sysclk/cy_sysclk.h **** *   ![](sysclk_fll.png)
 245:Generated_Source\PSoC6\pdl\drivers\peripheral\sysclk/cy_sysclk.h **** *
 246:Generated_Source\PSoC6\pdl\drivers\peripheral\sysclk/cy_sysclk.h **** *   The SysClk driver supports two models for configuring the FLL. The first
 247:Generated_Source\PSoC6\pdl\drivers\peripheral\sysclk/cy_sysclk.h **** *   model is to call the Cy_SysClk_FllConfigure() function, which calculates the 
 248:Generated_Source\PSoC6\pdl\drivers\peripheral\sysclk/cy_sysclk.h **** *   necessary parameters for the FLL at run-time. This may be necessary for dynamic
 249:Generated_Source\PSoC6\pdl\drivers\peripheral\sysclk/cy_sysclk.h **** *   run-time changes to the FLL. However this method is slow as it needs to perform 
 250:Generated_Source\PSoC6\pdl\drivers\peripheral\sysclk/cy_sysclk.h **** *   the calculation before configuring the FLL. The other model is to call 
 251:Generated_Source\PSoC6\pdl\drivers\peripheral\sysclk/cy_sysclk.h **** *   Cy_SysClk_FllManualConfigure() function with pre-calculated parameter values. 
 252:Generated_Source\PSoC6\pdl\drivers\peripheral\sysclk/cy_sysclk.h **** *   This method is faster but requires prior knowledge of the necessary parameters.
ARM GAS  C:\Users\mcfdo\AppData\Local\Temp\cc58ZVDP.s 			page 40


 253:Generated_Source\PSoC6\pdl\drivers\peripheral\sysclk/cy_sysclk.h **** *   Consult the device TRM for the FLL calculation equations.
 254:Generated_Source\PSoC6\pdl\drivers\peripheral\sysclk/cy_sysclk.h **** *
 255:Generated_Source\PSoC6\pdl\drivers\peripheral\sysclk/cy_sysclk.h **** *   \defgroup group_sysclk_fll_funcs       Functions
 256:Generated_Source\PSoC6\pdl\drivers\peripheral\sysclk/cy_sysclk.h **** *   \defgroup group_sysclk_fll_structs     Data Structures
 257:Generated_Source\PSoC6\pdl\drivers\peripheral\sysclk/cy_sysclk.h **** *   \defgroup group_sysclk_fll_enums       Enumerated Types
 258:Generated_Source\PSoC6\pdl\drivers\peripheral\sysclk/cy_sysclk.h **** * \}
 259:Generated_Source\PSoC6\pdl\drivers\peripheral\sysclk/cy_sysclk.h **** * \defgroup group_sysclk_pll             Phase Locked Loop (PLL)
 260:Generated_Source\PSoC6\pdl\drivers\peripheral\sysclk/cy_sysclk.h **** * \{
 261:Generated_Source\PSoC6\pdl\drivers\peripheral\sysclk/cy_sysclk.h **** *   The PLL is a clock generation circuit that can be used to produce a
 262:Generated_Source\PSoC6\pdl\drivers\peripheral\sysclk/cy_sysclk.h **** *   higher frequency clock from a reference clock. The output clock exhibits
 263:Generated_Source\PSoC6\pdl\drivers\peripheral\sysclk/cy_sysclk.h **** *   characteristics of the reference clock such as the accuracy of the source
 264:Generated_Source\PSoC6\pdl\drivers\peripheral\sysclk/cy_sysclk.h **** *   and its phase. The PLL is similar in purpose to a (Frequency locked loop) FLL
 265:Generated_Source\PSoC6\pdl\drivers\peripheral\sysclk/cy_sysclk.h **** *   but they are not equivalent.
 266:Generated_Source\PSoC6\pdl\drivers\peripheral\sysclk/cy_sysclk.h **** *
 267:Generated_Source\PSoC6\pdl\drivers\peripheral\sysclk/cy_sysclk.h **** *   - They may have different frequency ranges.
 268:Generated_Source\PSoC6\pdl\drivers\peripheral\sysclk/cy_sysclk.h **** *   - The PLL starts up more slowly and consumes more current than the FLL.
 269:Generated_Source\PSoC6\pdl\drivers\peripheral\sysclk/cy_sysclk.h **** *   - The PLL requires a higher frequency source clock than PLL. 
 270:Generated_Source\PSoC6\pdl\drivers\peripheral\sysclk/cy_sysclk.h **** *   ![](sysclk_pll.png)
 271:Generated_Source\PSoC6\pdl\drivers\peripheral\sysclk/cy_sysclk.h **** *
 272:Generated_Source\PSoC6\pdl\drivers\peripheral\sysclk/cy_sysclk.h **** *   The SysClk driver supports two models for configuring the PLL. The first
 273:Generated_Source\PSoC6\pdl\drivers\peripheral\sysclk/cy_sysclk.h **** *   model is to call the Cy_SysClk_PllConfigure() function, which calculates the 
 274:Generated_Source\PSoC6\pdl\drivers\peripheral\sysclk/cy_sysclk.h **** *   necessary parameters for the PLL at run-time. This may be necessary for dynamic
 275:Generated_Source\PSoC6\pdl\drivers\peripheral\sysclk/cy_sysclk.h **** *   run-time changes to the PLL. However this method is slow as it needs to perform 
 276:Generated_Source\PSoC6\pdl\drivers\peripheral\sysclk/cy_sysclk.h **** *   the calculation before configuring the PLL. The other model is to call 
 277:Generated_Source\PSoC6\pdl\drivers\peripheral\sysclk/cy_sysclk.h **** *   Cy_SysClk_PllManualConfigure() function with pre-calculated parameter values. 
 278:Generated_Source\PSoC6\pdl\drivers\peripheral\sysclk/cy_sysclk.h **** *   This method is faster but requires prior knowledge of the necessary parameters.
 279:Generated_Source\PSoC6\pdl\drivers\peripheral\sysclk/cy_sysclk.h **** *   Consult the device TRM for the PLL calculation equations.
 280:Generated_Source\PSoC6\pdl\drivers\peripheral\sysclk/cy_sysclk.h **** *
 281:Generated_Source\PSoC6\pdl\drivers\peripheral\sysclk/cy_sysclk.h **** *   \defgroup group_sysclk_pll_funcs       Functions
 282:Generated_Source\PSoC6\pdl\drivers\peripheral\sysclk/cy_sysclk.h **** *   \defgroup group_sysclk_pll_structs     Data Structures
 283:Generated_Source\PSoC6\pdl\drivers\peripheral\sysclk/cy_sysclk.h **** * \}
 284:Generated_Source\PSoC6\pdl\drivers\peripheral\sysclk/cy_sysclk.h **** * \defgroup group_sysclk_ilo             Internal Low-Speed Oscillator (ILO)
 285:Generated_Source\PSoC6\pdl\drivers\peripheral\sysclk/cy_sysclk.h **** * \{
 286:Generated_Source\PSoC6\pdl\drivers\peripheral\sysclk/cy_sysclk.h **** *   The ILO operates with no external components and outputs a stable clock at
 287:Generated_Source\PSoC6\pdl\drivers\peripheral\sysclk/cy_sysclk.h **** *   32.768 kHz nominal. The ILO is relatively low power and low accuracy. It is 
 288:Generated_Source\PSoC6\pdl\drivers\peripheral\sysclk/cy_sysclk.h **** *   available in all power modes and can be used as a source for the Backup domain clock.
 289:Generated_Source\PSoC6\pdl\drivers\peripheral\sysclk/cy_sysclk.h **** *   ![](sysclk_backup.png)
 290:Generated_Source\PSoC6\pdl\drivers\peripheral\sysclk/cy_sysclk.h **** *
 291:Generated_Source\PSoC6\pdl\drivers\peripheral\sysclk/cy_sysclk.h **** *   To ensure the ILO remains active in Hibernate mode, and across power-on-reset
 292:Generated_Source\PSoC6\pdl\drivers\peripheral\sysclk/cy_sysclk.h **** *   (POR) or brown out detect (BOD), firmware must call Cy_SysClk_IloHibernateOn(). 
 293:Generated_Source\PSoC6\pdl\drivers\peripheral\sysclk/cy_sysclk.h **** *
 294:Generated_Source\PSoC6\pdl\drivers\peripheral\sysclk/cy_sysclk.h **** *   Additionally, the ILO clock can be trimmed to +/- 1.5% of nominal frequency using
 295:Generated_Source\PSoC6\pdl\drivers\peripheral\sysclk/cy_sysclk.h **** *   a higher precision clock source. Use the \ref group_sysclk_calclk API to measure 
 296:Generated_Source\PSoC6\pdl\drivers\peripheral\sysclk/cy_sysclk.h **** *   the current ILO frequency before trimming.
 297:Generated_Source\PSoC6\pdl\drivers\peripheral\sysclk/cy_sysclk.h **** *
 298:Generated_Source\PSoC6\pdl\drivers\peripheral\sysclk/cy_sysclk.h **** *   \note The ILO is always the source clock for the \ref group_wdt. Therefore:
 299:Generated_Source\PSoC6\pdl\drivers\peripheral\sysclk/cy_sysclk.h **** *   - The WDT must be unlocked when making an ILO function call in the PDL
 300:Generated_Source\PSoC6\pdl\drivers\peripheral\sysclk/cy_sysclk.h **** *   - It is recommended to always have the ILO enabled
 301:Generated_Source\PSoC6\pdl\drivers\peripheral\sysclk/cy_sysclk.h **** *
 302:Generated_Source\PSoC6\pdl\drivers\peripheral\sysclk/cy_sysclk.h **** *   \defgroup group_sysclk_ilo_funcs       Functions
 303:Generated_Source\PSoC6\pdl\drivers\peripheral\sysclk/cy_sysclk.h **** * \}
 304:Generated_Source\PSoC6\pdl\drivers\peripheral\sysclk/cy_sysclk.h **** * \defgroup group_sysclk_pilo            Precision Internal Low-Speed Oscillator (PILO)
 305:Generated_Source\PSoC6\pdl\drivers\peripheral\sysclk/cy_sysclk.h **** * \{
 306:Generated_Source\PSoC6\pdl\drivers\peripheral\sysclk/cy_sysclk.h **** *   PILO provides a higher accuracy 32.768 kHz clock than the \ref group_sysclk_ilo "ILO".
 307:Generated_Source\PSoC6\pdl\drivers\peripheral\sysclk/cy_sysclk.h **** *   When periodically calibrated using a high-accuracy clock such as the
 308:Generated_Source\PSoC6\pdl\drivers\peripheral\sysclk/cy_sysclk.h **** *   \ref group_sysclk_eco "ECO", the PILO can achieve 250 ppm accuracy of nominal frequency.
 309:Generated_Source\PSoC6\pdl\drivers\peripheral\sysclk/cy_sysclk.h **** *   The PILO is capable of operating in device Active, Sleep and Deep-Sleep power modes. 
ARM GAS  C:\Users\mcfdo\AppData\Local\Temp\cc58ZVDP.s 			page 41


 310:Generated_Source\PSoC6\pdl\drivers\peripheral\sysclk/cy_sysclk.h **** *   It is not available in Hibernate mode.
 311:Generated_Source\PSoC6\pdl\drivers\peripheral\sysclk/cy_sysclk.h **** *
 312:Generated_Source\PSoC6\pdl\drivers\peripheral\sysclk/cy_sysclk.h **** *   The PILO can be used as a source for the \ref group_sysclk_clk_lf. However,
 313:Generated_Source\PSoC6\pdl\drivers\peripheral\sysclk/cy_sysclk.h **** *   because PILO is disabled in Hibernate mode, RTC timers cannot operate in this mode
 314:Generated_Source\PSoC6\pdl\drivers\peripheral\sysclk/cy_sysclk.h **** *   when clocked using the PILO. Instead, either the \ref group_sysclk_ilo "ILO" or
 315:Generated_Source\PSoC6\pdl\drivers\peripheral\sysclk/cy_sysclk.h **** *   \ref group_sysclk_wco "WCO" should be used when hibernate operation is required. 
 316:Generated_Source\PSoC6\pdl\drivers\peripheral\sysclk/cy_sysclk.h **** *
 317:Generated_Source\PSoC6\pdl\drivers\peripheral\sysclk/cy_sysclk.h **** *   ![](sysclk_backup.png)
 318:Generated_Source\PSoC6\pdl\drivers\peripheral\sysclk/cy_sysclk.h **** *
 319:Generated_Source\PSoC6\pdl\drivers\peripheral\sysclk/cy_sysclk.h **** *   Periodic calibration to a high-accuracy clock (such as ECO) is required to
 320:Generated_Source\PSoC6\pdl\drivers\peripheral\sysclk/cy_sysclk.h **** *   maintain accuracy. The application should use the functions described in the 
 321:Generated_Source\PSoC6\pdl\drivers\peripheral\sysclk/cy_sysclk.h **** *   \ref group_sysclk_calclk API to measure the current PILO frequency before trimming.
 322:Generated_Source\PSoC6\pdl\drivers\peripheral\sysclk/cy_sysclk.h **** *
 323:Generated_Source\PSoC6\pdl\drivers\peripheral\sysclk/cy_sysclk.h **** *   \defgroup group_sysclk_pilo_funcs      Functions
 324:Generated_Source\PSoC6\pdl\drivers\peripheral\sysclk/cy_sysclk.h **** * \}
 325:Generated_Source\PSoC6\pdl\drivers\peripheral\sysclk/cy_sysclk.h **** * \defgroup group_sysclk_calclk          Clock Measurement
 326:Generated_Source\PSoC6\pdl\drivers\peripheral\sysclk/cy_sysclk.h **** * \{
 327:Generated_Source\PSoC6\pdl\drivers\peripheral\sysclk/cy_sysclk.h **** *   These functions measure the frequency of a specified clock relative to a
 328:Generated_Source\PSoC6\pdl\drivers\peripheral\sysclk/cy_sysclk.h **** *   reference clock. They are typically called in the following order:
 329:Generated_Source\PSoC6\pdl\drivers\peripheral\sysclk/cy_sysclk.h **** *
 330:Generated_Source\PSoC6\pdl\drivers\peripheral\sysclk/cy_sysclk.h **** *   1. Specify the measured clock, the count, and the reference clock
 331:Generated_Source\PSoC6\pdl\drivers\peripheral\sysclk/cy_sysclk.h **** *   2. Start the counters
 332:Generated_Source\PSoC6\pdl\drivers\peripheral\sysclk/cy_sysclk.h **** *   3. Wait for the measurement counter to finish counting
 333:Generated_Source\PSoC6\pdl\drivers\peripheral\sysclk/cy_sysclk.h **** *   4. Retrieve the measured frequency
 334:Generated_Source\PSoC6\pdl\drivers\peripheral\sysclk/cy_sysclk.h **** *
 335:Generated_Source\PSoC6\pdl\drivers\peripheral\sysclk/cy_sysclk.h **** *   \note These functions may also be used as part of a clock trimming
 336:Generated_Source\PSoC6\pdl\drivers\peripheral\sysclk/cy_sysclk.h **** *   process. Refer to the \ref group_sysclk_trim "Clock Trim" API.
 337:Generated_Source\PSoC6\pdl\drivers\peripheral\sysclk/cy_sysclk.h **** *
 338:Generated_Source\PSoC6\pdl\drivers\peripheral\sysclk/cy_sysclk.h **** *   \defgroup group_sysclk_calclk_funcs    Functions
 339:Generated_Source\PSoC6\pdl\drivers\peripheral\sysclk/cy_sysclk.h **** *   \defgroup group_sysclk_calclk_enums    Enumerated Types
 340:Generated_Source\PSoC6\pdl\drivers\peripheral\sysclk/cy_sysclk.h **** * \}
 341:Generated_Source\PSoC6\pdl\drivers\peripheral\sysclk/cy_sysclk.h **** * \defgroup group_sysclk_trim            Clock Trim (ILO, PILO)
 342:Generated_Source\PSoC6\pdl\drivers\peripheral\sysclk/cy_sysclk.h **** * \{
 343:Generated_Source\PSoC6\pdl\drivers\peripheral\sysclk/cy_sysclk.h **** *   These functions perform a single trim operation on the ILO or PILO. Each
 344:Generated_Source\PSoC6\pdl\drivers\peripheral\sysclk/cy_sysclk.h **** *   function's parameter is the actual frequency of the clock. To measure the
 345:Generated_Source\PSoC6\pdl\drivers\peripheral\sysclk/cy_sysclk.h **** *   frequency, use the functions described in the \ref group_sysclk_calclk API.
 346:Generated_Source\PSoC6\pdl\drivers\peripheral\sysclk/cy_sysclk.h **** *
 347:Generated_Source\PSoC6\pdl\drivers\peripheral\sysclk/cy_sysclk.h **** *   To trim the clock as close as possible to the target frequency, multiple
 348:Generated_Source\PSoC6\pdl\drivers\peripheral\sysclk/cy_sysclk.h **** *   calls to the trim function may be needed. A typical usage example is to:
 349:Generated_Source\PSoC6\pdl\drivers\peripheral\sysclk/cy_sysclk.h **** *   1. Call the clock measurement functions to get the actual frequency of the clock
 350:Generated_Source\PSoC6\pdl\drivers\peripheral\sysclk/cy_sysclk.h **** *   2. Call the trim function, passing in the measured frequency
 351:Generated_Source\PSoC6\pdl\drivers\peripheral\sysclk/cy_sysclk.h **** *   3. Repeat the above until the trim function reports that the clock is trimmed to within limits.
 352:Generated_Source\PSoC6\pdl\drivers\peripheral\sysclk/cy_sysclk.h **** *
 353:Generated_Source\PSoC6\pdl\drivers\peripheral\sysclk/cy_sysclk.h **** *   \defgroup group_sysclk_trim_funcs      Functions
 354:Generated_Source\PSoC6\pdl\drivers\peripheral\sysclk/cy_sysclk.h **** * \}
 355:Generated_Source\PSoC6\pdl\drivers\peripheral\sysclk/cy_sysclk.h **** * \defgroup group_sysclk_pm              Low Power Callback
 356:Generated_Source\PSoC6\pdl\drivers\peripheral\sysclk/cy_sysclk.h **** * \{
 357:Generated_Source\PSoC6\pdl\drivers\peripheral\sysclk/cy_sysclk.h **** *   Entering and exiting low power modes require compatible clock configurations
 358:Generated_Source\PSoC6\pdl\drivers\peripheral\sysclk/cy_sysclk.h **** *   to be set before entering low power and restored upon wake-up and exit. The
 359:Generated_Source\PSoC6\pdl\drivers\peripheral\sysclk/cy_sysclk.h **** *   SysClk driver provides a Cy_SysClk_DeepSleepCallback() function to support
 360:Generated_Source\PSoC6\pdl\drivers\peripheral\sysclk/cy_sysclk.h **** *   deep-sleep mode entry. 
 361:Generated_Source\PSoC6\pdl\drivers\peripheral\sysclk/cy_sysclk.h **** *
 362:Generated_Source\PSoC6\pdl\drivers\peripheral\sysclk/cy_sysclk.h **** *   This function can be called either by itself before initiating low-power mode
 363:Generated_Source\PSoC6\pdl\drivers\peripheral\sysclk/cy_sysclk.h **** *   entry or it can be used in conjunction with the SysPm driver as a registered 
 364:Generated_Source\PSoC6\pdl\drivers\peripheral\sysclk/cy_sysclk.h **** *   callback. To do so, register this function as a callback before calling 
 365:Generated_Source\PSoC6\pdl\drivers\peripheral\sysclk/cy_sysclk.h **** *   Cy_SysPm_DeepSleep(). Specify \ref CY_SYSPM_DEEPSLEEP as the callback type, 
 366:Generated_Source\PSoC6\pdl\drivers\peripheral\sysclk/cy_sysclk.h **** *   and call Cy_SysPm_RegisterCallback().
ARM GAS  C:\Users\mcfdo\AppData\Local\Temp\cc58ZVDP.s 			page 42


 367:Generated_Source\PSoC6\pdl\drivers\peripheral\sysclk/cy_sysclk.h **** *   
 368:Generated_Source\PSoC6\pdl\drivers\peripheral\sysclk/cy_sysclk.h **** *   \note If the FLL or PLL source is the ECO, this function must be called.
 369:Generated_Source\PSoC6\pdl\drivers\peripheral\sysclk/cy_sysclk.h **** *
 370:Generated_Source\PSoC6\pdl\drivers\peripheral\sysclk/cy_sysclk.h **** *   \defgroup group_sysclk_pm_funcs        Functions
 371:Generated_Source\PSoC6\pdl\drivers\peripheral\sysclk/cy_sysclk.h **** * \}
 372:Generated_Source\PSoC6\pdl\drivers\peripheral\sysclk/cy_sysclk.h **** * \defgroup group_sysclk_wco             Watch Crystal Oscillator (WCO)
 373:Generated_Source\PSoC6\pdl\drivers\peripheral\sysclk/cy_sysclk.h **** * \{
 374:Generated_Source\PSoC6\pdl\drivers\peripheral\sysclk/cy_sysclk.h **** *   The WCO is a highly accurate 32.768 kHz clock source capable of operating
 375:Generated_Source\PSoC6\pdl\drivers\peripheral\sysclk/cy_sysclk.h **** *   in all power modes (excluding the Off mode). It is the primary clock source for
 376:Generated_Source\PSoC6\pdl\drivers\peripheral\sysclk/cy_sysclk.h **** *   the backup domain clock, which is used by the real-time clock (RTC). The 
 377:Generated_Source\PSoC6\pdl\drivers\peripheral\sysclk/cy_sysclk.h **** *   WCO can also be used as a source for the low-frequency clock to support other
 378:Generated_Source\PSoC6\pdl\drivers\peripheral\sysclk/cy_sysclk.h **** *   low power mode peripherals.
 379:Generated_Source\PSoC6\pdl\drivers\peripheral\sysclk/cy_sysclk.h **** *
 380:Generated_Source\PSoC6\pdl\drivers\peripheral\sysclk/cy_sysclk.h **** *   ![](sysclk_backup.png)
 381:Generated_Source\PSoC6\pdl\drivers\peripheral\sysclk/cy_sysclk.h **** *
 382:Generated_Source\PSoC6\pdl\drivers\peripheral\sysclk/cy_sysclk.h **** *   The WCO requires the configuration of the dedicated WCO pins (SRSS_WCO_IN_PIN,
 383:Generated_Source\PSoC6\pdl\drivers\peripheral\sysclk/cy_sysclk.h **** *   SRSS_WCO_OUT_PIN). These must be configured as Analog Hi-Z drive modes and the
 384:Generated_Source\PSoC6\pdl\drivers\peripheral\sysclk/cy_sysclk.h **** *   HSIOM selection set to GPIO. The WCO can also be used in bypass mode, where
 385:Generated_Source\PSoC6\pdl\drivers\peripheral\sysclk/cy_sysclk.h **** *   an external 32.768 kHz square wave is brought in directly through the 
 386:Generated_Source\PSoC6\pdl\drivers\peripheral\sysclk/cy_sysclk.h **** *   SRSS_WCO_OUT_PIN pin.
 387:Generated_Source\PSoC6\pdl\drivers\peripheral\sysclk/cy_sysclk.h **** *
 388:Generated_Source\PSoC6\pdl\drivers\peripheral\sysclk/cy_sysclk.h **** *   Some devices support a built-in clock supervisor (CSV) in the WCO. The clock
 389:Generated_Source\PSoC6\pdl\drivers\peripheral\sysclk/cy_sysclk.h **** *   supervisor detects if the WCO has been lost; that is, the WCO is no longer 
 390:Generated_Source\PSoC6\pdl\drivers\peripheral\sysclk/cy_sysclk.h **** *   producing clock pulses. The CSV does this by checking to ensure there is at 
 391:Generated_Source\PSoC6\pdl\drivers\peripheral\sysclk/cy_sysclk.h **** *   least one WCO clock pulse within a certain time window. The ILO or PILO can be
 392:Generated_Source\PSoC6\pdl\drivers\peripheral\sysclk/cy_sysclk.h **** *   the supervising clock. Firmware can configure the CSV to trigger a fault,
 393:Generated_Source\PSoC6\pdl\drivers\peripheral\sysclk/cy_sysclk.h **** *   a reset, or both after specified cycles of the supervising clock.
 394:Generated_Source\PSoC6\pdl\drivers\peripheral\sysclk/cy_sysclk.h **** *
 395:Generated_Source\PSoC6\pdl\drivers\peripheral\sysclk/cy_sysclk.h **** *   \defgroup group_sysclk_wco_funcs       Functions
 396:Generated_Source\PSoC6\pdl\drivers\peripheral\sysclk/cy_sysclk.h **** *   \defgroup group_sysclk_wco_structs     Data Structures
 397:Generated_Source\PSoC6\pdl\drivers\peripheral\sysclk/cy_sysclk.h **** *   \defgroup group_sysclk_wco_enums       Enumerated Types
 398:Generated_Source\PSoC6\pdl\drivers\peripheral\sysclk/cy_sysclk.h **** * \}
 399:Generated_Source\PSoC6\pdl\drivers\peripheral\sysclk/cy_sysclk.h **** * \defgroup group_sysclk_clk_hf          High-Frequency Clocks
 400:Generated_Source\PSoC6\pdl\drivers\peripheral\sysclk/cy_sysclk.h **** * \{
 401:Generated_Source\PSoC6\pdl\drivers\peripheral\sysclk/cy_sysclk.h **** *   Multiple high frequency clocks (CLK_HF) are available in the device. For example,
 402:Generated_Source\PSoC6\pdl\drivers\peripheral\sysclk/cy_sysclk.h **** *   PSoC 63 series has five high-frequency root clocks. Each CLK_HF has a particular
 403:Generated_Source\PSoC6\pdl\drivers\peripheral\sysclk/cy_sysclk.h **** *   connection and chip-specific destination on the device.
 404:Generated_Source\PSoC6\pdl\drivers\peripheral\sysclk/cy_sysclk.h **** *
 405:Generated_Source\PSoC6\pdl\drivers\peripheral\sysclk/cy_sysclk.h **** *   |Name     |Description                                             |
 406:Generated_Source\PSoC6\pdl\drivers\peripheral\sysclk/cy_sysclk.h **** *   |:--------|:-------------------------------------------------------|
 407:Generated_Source\PSoC6\pdl\drivers\peripheral\sysclk/cy_sysclk.h **** *   |CLK_HF[0]| Root clock for CPUs, PERI, and AHB infrastructure      |
 408:Generated_Source\PSoC6\pdl\drivers\peripheral\sysclk/cy_sysclk.h **** *   |CLK_HF[1]| Root clock for the PDM/PCM and I2S audio subsystem     |
 409:Generated_Source\PSoC6\pdl\drivers\peripheral\sysclk/cy_sysclk.h **** *   |CLK_HF[2]| Root clock for the Serial Memory Interface subsystem   |
 410:Generated_Source\PSoC6\pdl\drivers\peripheral\sysclk/cy_sysclk.h **** *   |CLK_HF[3]| Root clock for USB communications                      |
 411:Generated_Source\PSoC6\pdl\drivers\peripheral\sysclk/cy_sysclk.h **** *   |CLK_HF[4]| Clock output on clk_ext pin (when used as an output)   |
 412:Generated_Source\PSoC6\pdl\drivers\peripheral\sysclk/cy_sysclk.h **** *
 413:Generated_Source\PSoC6\pdl\drivers\peripheral\sysclk/cy_sysclk.h **** *   ![](sysclk_hf.png)
 414:Generated_Source\PSoC6\pdl\drivers\peripheral\sysclk/cy_sysclk.h **** *
 415:Generated_Source\PSoC6\pdl\drivers\peripheral\sysclk/cy_sysclk.h **** *   Note this is a particular example. The actual tree may vary depending on the device series.
 416:Generated_Source\PSoC6\pdl\drivers\peripheral\sysclk/cy_sysclk.h **** *   Consult the Technical Reference Manual for your device for details.
 417:Generated_Source\PSoC6\pdl\drivers\peripheral\sysclk/cy_sysclk.h **** *   
 418:Generated_Source\PSoC6\pdl\drivers\peripheral\sysclk/cy_sysclk.h **** *   High frequency clocks are sourced by path clocks, which should be configured
 419:Generated_Source\PSoC6\pdl\drivers\peripheral\sysclk/cy_sysclk.h **** *   first. An exception to this rule is CLK_HF[0], which cannot be disabled. 
 420:Generated_Source\PSoC6\pdl\drivers\peripheral\sysclk/cy_sysclk.h **** *   This divided clock drives the core processors and the peripherals in the system.
 421:Generated_Source\PSoC6\pdl\drivers\peripheral\sysclk/cy_sysclk.h **** *   In order to update its clock source, CLK_HF[0] source must be selected without
 422:Generated_Source\PSoC6\pdl\drivers\peripheral\sysclk/cy_sysclk.h **** *   disabling the clock.
 423:Generated_Source\PSoC6\pdl\drivers\peripheral\sysclk/cy_sysclk.h **** *
ARM GAS  C:\Users\mcfdo\AppData\Local\Temp\cc58ZVDP.s 			page 43


 424:Generated_Source\PSoC6\pdl\drivers\peripheral\sysclk/cy_sysclk.h **** *   ![](sysclk_hf_dist.png)
 425:Generated_Source\PSoC6\pdl\drivers\peripheral\sysclk/cy_sysclk.h **** *
 426:Generated_Source\PSoC6\pdl\drivers\peripheral\sysclk/cy_sysclk.h **** *   Some devices support a clock supervisor (CSV) for each root clock. These
 427:Generated_Source\PSoC6\pdl\drivers\peripheral\sysclk/cy_sysclk.h **** *   can detect frequency loss, or monitor that the clock frequency stays within
 428:Generated_Source\PSoC6\pdl\drivers\peripheral\sysclk/cy_sysclk.h **** *   a specified range. The possible supervising clocks are IMO, ECO, or ALTHF. 
 429:Generated_Source\PSoC6\pdl\drivers\peripheral\sysclk/cy_sysclk.h **** *   Loss detection and frequency monitoring can be enabled or disabled independently.
 430:Generated_Source\PSoC6\pdl\drivers\peripheral\sysclk/cy_sysclk.h **** *   Each has its own programmable action that occurs on detection of an error.
 431:Generated_Source\PSoC6\pdl\drivers\peripheral\sysclk/cy_sysclk.h **** *
 432:Generated_Source\PSoC6\pdl\drivers\peripheral\sysclk/cy_sysclk.h **** *   \defgroup group_sysclk_clk_hf_funcs    Functions
 433:Generated_Source\PSoC6\pdl\drivers\peripheral\sysclk/cy_sysclk.h **** *   \defgroup group_sysclk_clk_hf_structs  Data Structures
 434:Generated_Source\PSoC6\pdl\drivers\peripheral\sysclk/cy_sysclk.h **** *   \defgroup group_sysclk_clk_hf_enums    Enumerated Types
 435:Generated_Source\PSoC6\pdl\drivers\peripheral\sysclk/cy_sysclk.h **** * \}
 436:Generated_Source\PSoC6\pdl\drivers\peripheral\sysclk/cy_sysclk.h **** * \defgroup group_sysclk_clk_fast        Fast Clock
 437:Generated_Source\PSoC6\pdl\drivers\peripheral\sysclk/cy_sysclk.h **** * \{
 438:Generated_Source\PSoC6\pdl\drivers\peripheral\sysclk/cy_sysclk.h **** *   The fast clock drives the "fast" processor (e.g. Cortex-M4 processor in PSoC 6).
 439:Generated_Source\PSoC6\pdl\drivers\peripheral\sysclk/cy_sysclk.h **** *   This clock is sourced by CLK_HF[0] (\ref group_sysclk_clk_hf "HF Clocks").
 440:Generated_Source\PSoC6\pdl\drivers\peripheral\sysclk/cy_sysclk.h **** *   A divider value of 1~256 can be used to further divide the CLK_HF[0] to a
 441:Generated_Source\PSoC6\pdl\drivers\peripheral\sysclk/cy_sysclk.h **** *   desired clock speed for the processor.
 442:Generated_Source\PSoC6\pdl\drivers\peripheral\sysclk/cy_sysclk.h **** *
 443:Generated_Source\PSoC6\pdl\drivers\peripheral\sysclk/cy_sysclk.h **** *   ![](sysclk_fast.png)
 444:Generated_Source\PSoC6\pdl\drivers\peripheral\sysclk/cy_sysclk.h **** *
 445:Generated_Source\PSoC6\pdl\drivers\peripheral\sysclk/cy_sysclk.h **** *   \defgroup group_sysclk_clk_fast_funcs  Functions
 446:Generated_Source\PSoC6\pdl\drivers\peripheral\sysclk/cy_sysclk.h **** * \}
 447:Generated_Source\PSoC6\pdl\drivers\peripheral\sysclk/cy_sysclk.h **** * \defgroup group_sysclk_clk_peri        Peripheral Clock
 448:Generated_Source\PSoC6\pdl\drivers\peripheral\sysclk/cy_sysclk.h **** * \{
 449:Generated_Source\PSoC6\pdl\drivers\peripheral\sysclk/cy_sysclk.h **** *   The peripheral clock is a divided clock of CLK_HF0 (\ref group_sysclk_clk_hf "HF Clocks").
 450:Generated_Source\PSoC6\pdl\drivers\peripheral\sysclk/cy_sysclk.h **** *   It is the source clock for the \ref group_sysclk_clk_slow, and most active domain
 451:Generated_Source\PSoC6\pdl\drivers\peripheral\sysclk/cy_sysclk.h **** *   peripheral clocks (\ref group_sysclk_clk_peripheral). A divider value of 1~256 
 452:Generated_Source\PSoC6\pdl\drivers\peripheral\sysclk/cy_sysclk.h **** *   can be used to further divide the CLK_HF[0] to a desired clock speed for the peripherals.
 453:Generated_Source\PSoC6\pdl\drivers\peripheral\sysclk/cy_sysclk.h **** *
 454:Generated_Source\PSoC6\pdl\drivers\peripheral\sysclk/cy_sysclk.h **** *   ![](sysclk_peri.png)
 455:Generated_Source\PSoC6\pdl\drivers\peripheral\sysclk/cy_sysclk.h **** *
 456:Generated_Source\PSoC6\pdl\drivers\peripheral\sysclk/cy_sysclk.h **** *   \defgroup group_sysclk_clk_peri_funcs  Functions
 457:Generated_Source\PSoC6\pdl\drivers\peripheral\sysclk/cy_sysclk.h **** * \}
 458:Generated_Source\PSoC6\pdl\drivers\peripheral\sysclk/cy_sysclk.h **** * \defgroup group_sysclk_clk_peripheral  Peripherals Clock Dividers
 459:Generated_Source\PSoC6\pdl\drivers\peripheral\sysclk/cy_sysclk.h **** * \{
 460:Generated_Source\PSoC6\pdl\drivers\peripheral\sysclk/cy_sysclk.h **** *   There are multiple peripheral clock dividers that, in effect, create 
 461:Generated_Source\PSoC6\pdl\drivers\peripheral\sysclk/cy_sysclk.h **** *   multiple separate peripheral clocks. The available dividers vary per device 
 462:Generated_Source\PSoC6\pdl\drivers\peripheral\sysclk/cy_sysclk.h **** *   series. As an example, for the PSoC 63 series there are 29 dividers:
 463:Generated_Source\PSoC6\pdl\drivers\peripheral\sysclk/cy_sysclk.h **** *
 464:Generated_Source\PSoC6\pdl\drivers\peripheral\sysclk/cy_sysclk.h **** *   - eight 8-bit dividers
 465:Generated_Source\PSoC6\pdl\drivers\peripheral\sysclk/cy_sysclk.h **** *   - sixteen 16-bit dividers
 466:Generated_Source\PSoC6\pdl\drivers\peripheral\sysclk/cy_sysclk.h **** *   - four fractional 16.5-bit dividers (16 integer bits, 5 fractional bits)
 467:Generated_Source\PSoC6\pdl\drivers\peripheral\sysclk/cy_sysclk.h **** *   - one fractional 24.5-bit divider (24 integer bits, 5 fractional bits)
 468:Generated_Source\PSoC6\pdl\drivers\peripheral\sysclk/cy_sysclk.h **** *
 469:Generated_Source\PSoC6\pdl\drivers\peripheral\sysclk/cy_sysclk.h **** *
 470:Generated_Source\PSoC6\pdl\drivers\peripheral\sysclk/cy_sysclk.h **** *   The 8-bit and 16-bit dividers are integer dividers. A divider value of 1 
 471:Generated_Source\PSoC6\pdl\drivers\peripheral\sysclk/cy_sysclk.h **** *   means the output frequency matches the input frequency (that is, there is
 472:Generated_Source\PSoC6\pdl\drivers\peripheral\sysclk/cy_sysclk.h **** *   no change). Otherwise the frequency is divided by the value of the divider.
 473:Generated_Source\PSoC6\pdl\drivers\peripheral\sysclk/cy_sysclk.h **** *   For example, if the input frequency is 50 MHz, and the divider is value 10,
 474:Generated_Source\PSoC6\pdl\drivers\peripheral\sysclk/cy_sysclk.h **** *   the output frequency is 5 MHz.
 475:Generated_Source\PSoC6\pdl\drivers\peripheral\sysclk/cy_sysclk.h **** *
 476:Generated_Source\PSoC6\pdl\drivers\peripheral\sysclk/cy_sysclk.h **** *   The five fractional bits supports further precision in 1/32nd increments. For
 477:Generated_Source\PSoC6\pdl\drivers\peripheral\sysclk/cy_sysclk.h **** *   example, a divider with an integer value of 3 and a fractional value of
 478:Generated_Source\PSoC6\pdl\drivers\peripheral\sysclk/cy_sysclk.h **** *   4 (4/32) results in a divider of 3.125. Fractional dividers are useful when
 479:Generated_Source\PSoC6\pdl\drivers\peripheral\sysclk/cy_sysclk.h **** *   a high-precision clock is required, for example, for a UART/SPI serial
 480:Generated_Source\PSoC6\pdl\drivers\peripheral\sysclk/cy_sysclk.h **** *   interface.
ARM GAS  C:\Users\mcfdo\AppData\Local\Temp\cc58ZVDP.s 			page 44


 481:Generated_Source\PSoC6\pdl\drivers\peripheral\sysclk/cy_sysclk.h **** *
 482:Generated_Source\PSoC6\pdl\drivers\peripheral\sysclk/cy_sysclk.h **** *   ![](sysclk_peri_divs.png)
 483:Generated_Source\PSoC6\pdl\drivers\peripheral\sysclk/cy_sysclk.h **** *
 484:Generated_Source\PSoC6\pdl\drivers\peripheral\sysclk/cy_sysclk.h **** *   Each peripheral can connect to any one of the programmable dividers. A
 485:Generated_Source\PSoC6\pdl\drivers\peripheral\sysclk/cy_sysclk.h **** *   particular peripheral clock divider can drive multiple peripherals.
 486:Generated_Source\PSoC6\pdl\drivers\peripheral\sysclk/cy_sysclk.h **** *   
 487:Generated_Source\PSoC6\pdl\drivers\peripheral\sysclk/cy_sysclk.h **** *   The SysClk driver also supports phase aligning two peripheral clock dividers using
 488:Generated_Source\PSoC6\pdl\drivers\peripheral\sysclk/cy_sysclk.h **** *   Cy_SysClk_PeriphEnablePhaseAlignDivider(). Alignment works for both integer
 489:Generated_Source\PSoC6\pdl\drivers\peripheral\sysclk/cy_sysclk.h **** *   and fractional dividers. The divider to which a second divider is aligned
 490:Generated_Source\PSoC6\pdl\drivers\peripheral\sysclk/cy_sysclk.h **** *   must already be enabled.
 491:Generated_Source\PSoC6\pdl\drivers\peripheral\sysclk/cy_sysclk.h **** *
 492:Generated_Source\PSoC6\pdl\drivers\peripheral\sysclk/cy_sysclk.h **** *   \defgroup group_sysclk_clk_peripheral_funcs Functions
 493:Generated_Source\PSoC6\pdl\drivers\peripheral\sysclk/cy_sysclk.h **** *   \defgroup group_sysclk_clk_peripheral_enums Enumerated Types
 494:Generated_Source\PSoC6\pdl\drivers\peripheral\sysclk/cy_sysclk.h **** * \}
 495:Generated_Source\PSoC6\pdl\drivers\peripheral\sysclk/cy_sysclk.h **** * \defgroup group_sysclk_clk_slow        Slow Clock
 496:Generated_Source\PSoC6\pdl\drivers\peripheral\sysclk/cy_sysclk.h **** * \{
 497:Generated_Source\PSoC6\pdl\drivers\peripheral\sysclk/cy_sysclk.h **** *   The slow clock is the source clock for the "slow" processor (e.g. Cortex-M0+ in PSoC 6).
 498:Generated_Source\PSoC6\pdl\drivers\peripheral\sysclk/cy_sysclk.h **** *   This clock is a divided version of the \ref group_sysclk_clk_peri, which in turn is 
 499:Generated_Source\PSoC6\pdl\drivers\peripheral\sysclk/cy_sysclk.h **** *   a divided version of CLK_HF[0] (\ref group_sysclk_clk_hf "HF Clocks"). A divider 
 500:Generated_Source\PSoC6\pdl\drivers\peripheral\sysclk/cy_sysclk.h **** *   value of 1~256 can be used to further divide the Peri clock to a desired clock speed
 501:Generated_Source\PSoC6\pdl\drivers\peripheral\sysclk/cy_sysclk.h **** *   for the processor.
 502:Generated_Source\PSoC6\pdl\drivers\peripheral\sysclk/cy_sysclk.h **** *
 503:Generated_Source\PSoC6\pdl\drivers\peripheral\sysclk/cy_sysclk.h **** *   ![](sysclk_slow.png)
 504:Generated_Source\PSoC6\pdl\drivers\peripheral\sysclk/cy_sysclk.h **** *
 505:Generated_Source\PSoC6\pdl\drivers\peripheral\sysclk/cy_sysclk.h **** *   \defgroup group_sysclk_clk_slow_funcs  Functions
 506:Generated_Source\PSoC6\pdl\drivers\peripheral\sysclk/cy_sysclk.h **** * \}
 507:Generated_Source\PSoC6\pdl\drivers\peripheral\sysclk/cy_sysclk.h **** * \defgroup group_sysclk_clk_lf          Low-Frequency Clock
 508:Generated_Source\PSoC6\pdl\drivers\peripheral\sysclk/cy_sysclk.h **** * \{
 509:Generated_Source\PSoC6\pdl\drivers\peripheral\sysclk/cy_sysclk.h **** *   The low-frequency clock is the source clock for the \ref group_mcwdt
 510:Generated_Source\PSoC6\pdl\drivers\peripheral\sysclk/cy_sysclk.h **** *   and can be the source clock for \ref group_sysclk_clk_bak, which drives the
 511:Generated_Source\PSoC6\pdl\drivers\peripheral\sysclk/cy_sysclk.h **** *   \ref group_rtc.
 512:Generated_Source\PSoC6\pdl\drivers\peripheral\sysclk/cy_sysclk.h **** *   
 513:Generated_Source\PSoC6\pdl\drivers\peripheral\sysclk/cy_sysclk.h **** *   The low-frequency clock has three possible source clocks:
 514:Generated_Source\PSoC6\pdl\drivers\peripheral\sysclk/cy_sysclk.h **** *   \ref group_sysclk_ilo "ILO", \ref group_sysclk_pilo "PILO", and
 515:Generated_Source\PSoC6\pdl\drivers\peripheral\sysclk/cy_sysclk.h **** *   \ref group_sysclk_wco "WCO".
 516:Generated_Source\PSoC6\pdl\drivers\peripheral\sysclk/cy_sysclk.h **** *
 517:Generated_Source\PSoC6\pdl\drivers\peripheral\sysclk/cy_sysclk.h **** *   ![](sysclk_lf.png)
 518:Generated_Source\PSoC6\pdl\drivers\peripheral\sysclk/cy_sysclk.h **** *
 519:Generated_Source\PSoC6\pdl\drivers\peripheral\sysclk/cy_sysclk.h **** *   \defgroup group_sysclk_clk_lf_funcs    Functions
 520:Generated_Source\PSoC6\pdl\drivers\peripheral\sysclk/cy_sysclk.h **** *   \defgroup group_sysclk_clk_lf_enums    Enumerated Types
 521:Generated_Source\PSoC6\pdl\drivers\peripheral\sysclk/cy_sysclk.h **** * \}
 522:Generated_Source\PSoC6\pdl\drivers\peripheral\sysclk/cy_sysclk.h **** * \defgroup group_sysclk_clk_timer       Timer Clock
 523:Generated_Source\PSoC6\pdl\drivers\peripheral\sysclk/cy_sysclk.h **** * \{
 524:Generated_Source\PSoC6\pdl\drivers\peripheral\sysclk/cy_sysclk.h **** *   The timer clock can be a source for the alternative clock driving 
 525:Generated_Source\PSoC6\pdl\drivers\peripheral\sysclk/cy_sysclk.h **** *   the \ref group_arm_system_timer. It can also be used as a reference clock 
 526:Generated_Source\PSoC6\pdl\drivers\peripheral\sysclk/cy_sysclk.h **** *   for a counter in the \ref group_energy_profiler "Energy Profiler".
 527:Generated_Source\PSoC6\pdl\drivers\peripheral\sysclk/cy_sysclk.h **** *   
 528:Generated_Source\PSoC6\pdl\drivers\peripheral\sysclk/cy_sysclk.h **** *   The timer clock is a divided clock of either the IMO or CLK_HF[0]
 529:Generated_Source\PSoC6\pdl\drivers\peripheral\sysclk/cy_sysclk.h **** *   (\ref group_sysclk_clk_hf "HF Clocks").
 530:Generated_Source\PSoC6\pdl\drivers\peripheral\sysclk/cy_sysclk.h **** *
 531:Generated_Source\PSoC6\pdl\drivers\peripheral\sysclk/cy_sysclk.h **** *   \defgroup group_sysclk_clk_timer_funcs Functions
 532:Generated_Source\PSoC6\pdl\drivers\peripheral\sysclk/cy_sysclk.h **** *   \defgroup group_sysclk_clk_timer_enums Enumerated Types
 533:Generated_Source\PSoC6\pdl\drivers\peripheral\sysclk/cy_sysclk.h **** * \}
 534:Generated_Source\PSoC6\pdl\drivers\peripheral\sysclk/cy_sysclk.h **** * \defgroup group_sysclk_clk_pump        Pump Clock
 535:Generated_Source\PSoC6\pdl\drivers\peripheral\sysclk/cy_sysclk.h **** * \{
 536:Generated_Source\PSoC6\pdl\drivers\peripheral\sysclk/cy_sysclk.h **** *   The pump clock is a clock source used to provide analog precision in low voltage
 537:Generated_Source\PSoC6\pdl\drivers\peripheral\sysclk/cy_sysclk.h **** *   applications. Depending on the usage scenario, it may be required to drive the
ARM GAS  C:\Users\mcfdo\AppData\Local\Temp\cc58ZVDP.s 			page 45


 538:Generated_Source\PSoC6\pdl\drivers\peripheral\sysclk/cy_sysclk.h **** *   internal voltage pump for the Continuous Time Block mini (CTBm) in the analog 
 539:Generated_Source\PSoC6\pdl\drivers\peripheral\sysclk/cy_sysclk.h **** *   subsystem. The pump clock is a divided clock of one of the clock paths 
 540:Generated_Source\PSoC6\pdl\drivers\peripheral\sysclk/cy_sysclk.h **** *   (\ref group_sysclk_path_src).
 541:Generated_Source\PSoC6\pdl\drivers\peripheral\sysclk/cy_sysclk.h **** *
 542:Generated_Source\PSoC6\pdl\drivers\peripheral\sysclk/cy_sysclk.h **** *   \defgroup group_sysclk_clk_pump_funcs  Functions
 543:Generated_Source\PSoC6\pdl\drivers\peripheral\sysclk/cy_sysclk.h **** *   \defgroup group_sysclk_clk_pump_enums  Enumerated Types
 544:Generated_Source\PSoC6\pdl\drivers\peripheral\sysclk/cy_sysclk.h **** * \}
 545:Generated_Source\PSoC6\pdl\drivers\peripheral\sysclk/cy_sysclk.h **** * \defgroup group_sysclk_clk_bak         Backup Domain Clock
 546:Generated_Source\PSoC6\pdl\drivers\peripheral\sysclk/cy_sysclk.h **** * \{
 547:Generated_Source\PSoC6\pdl\drivers\peripheral\sysclk/cy_sysclk.h **** *   The backup domain clock drives the \ref group_rtc.
 548:Generated_Source\PSoC6\pdl\drivers\peripheral\sysclk/cy_sysclk.h **** *   This clock has two possible source clocks: \ref group_sysclk_wco "WCO"
 549:Generated_Source\PSoC6\pdl\drivers\peripheral\sysclk/cy_sysclk.h **** *   or the \ref group_sysclk_clk_lf. In turn the low frequency clock is sourced by
 550:Generated_Source\PSoC6\pdl\drivers\peripheral\sysclk/cy_sysclk.h **** *   \ref group_sysclk_ilo "ILO", \ref group_sysclk_pilo "PILO", or
 551:Generated_Source\PSoC6\pdl\drivers\peripheral\sysclk/cy_sysclk.h **** *   \ref group_sysclk_wco "WCO". Typically the ILO is not suitable as an RTC source,
 552:Generated_Source\PSoC6\pdl\drivers\peripheral\sysclk/cy_sysclk.h **** *   because of its low accuracy. However the ILO does operate in hibernate mode and
 553:Generated_Source\PSoC6\pdl\drivers\peripheral\sysclk/cy_sysclk.h **** *   may be used as an alternative to the WCO with a tradeoff in precision.
 554:Generated_Source\PSoC6\pdl\drivers\peripheral\sysclk/cy_sysclk.h **** *
 555:Generated_Source\PSoC6\pdl\drivers\peripheral\sysclk/cy_sysclk.h **** *   \defgroup group_sysclk_clk_bak_funcs   Functions
 556:Generated_Source\PSoC6\pdl\drivers\peripheral\sysclk/cy_sysclk.h **** *   \defgroup group_sysclk_clk_bak_enums   Enumerated Types
 557:Generated_Source\PSoC6\pdl\drivers\peripheral\sysclk/cy_sysclk.h **** * \}
 558:Generated_Source\PSoC6\pdl\drivers\peripheral\sysclk/cy_sysclk.h **** */
 559:Generated_Source\PSoC6\pdl\drivers\peripheral\sysclk/cy_sysclk.h **** 
 560:Generated_Source\PSoC6\pdl\drivers\peripheral\sysclk/cy_sysclk.h **** #if !defined(CY_SYSCLK_H)
 561:Generated_Source\PSoC6\pdl\drivers\peripheral\sysclk/cy_sysclk.h **** #define CY_SYSCLK_H
 562:Generated_Source\PSoC6\pdl\drivers\peripheral\sysclk/cy_sysclk.h **** 
 563:Generated_Source\PSoC6\pdl\drivers\peripheral\sysclk/cy_sysclk.h **** #include <stdbool.h>
 564:Generated_Source\PSoC6\pdl\drivers\peripheral\sysclk/cy_sysclk.h **** #include "cy_device.h"
 565:Generated_Source\PSoC6\pdl\drivers\peripheral\sysclk/cy_sysclk.h **** #include "cy_device_headers.h"
 566:Generated_Source\PSoC6\pdl\drivers\peripheral\sysclk/cy_sysclk.h **** #include "cy_syslib.h"
 567:Generated_Source\PSoC6\pdl\drivers\peripheral\sysclk/cy_sysclk.h **** #include "cy_syspm.h"
 568:Generated_Source\PSoC6\pdl\drivers\peripheral\sysclk/cy_sysclk.h **** 
 569:Generated_Source\PSoC6\pdl\drivers\peripheral\sysclk/cy_sysclk.h **** 
 570:Generated_Source\PSoC6\pdl\drivers\peripheral\sysclk/cy_sysclk.h **** #if defined(__cplusplus)
 571:Generated_Source\PSoC6\pdl\drivers\peripheral\sysclk/cy_sysclk.h **** extern "C" {
 572:Generated_Source\PSoC6\pdl\drivers\peripheral\sysclk/cy_sysclk.h **** #endif /* __cplusplus */
 573:Generated_Source\PSoC6\pdl\drivers\peripheral\sysclk/cy_sysclk.h **** 
 574:Generated_Source\PSoC6\pdl\drivers\peripheral\sysclk/cy_sysclk.h **** /**
 575:Generated_Source\PSoC6\pdl\drivers\peripheral\sysclk/cy_sysclk.h **** * \addtogroup group_sysclk_macros
 576:Generated_Source\PSoC6\pdl\drivers\peripheral\sysclk/cy_sysclk.h **** * \{
 577:Generated_Source\PSoC6\pdl\drivers\peripheral\sysclk/cy_sysclk.h **** */
 578:Generated_Source\PSoC6\pdl\drivers\peripheral\sysclk/cy_sysclk.h **** /** Driver major version */
 579:Generated_Source\PSoC6\pdl\drivers\peripheral\sysclk/cy_sysclk.h **** #define  CY_SYSCLK_DRV_VERSION_MAJOR   1
 580:Generated_Source\PSoC6\pdl\drivers\peripheral\sysclk/cy_sysclk.h **** /** Driver minor version */
 581:Generated_Source\PSoC6\pdl\drivers\peripheral\sysclk/cy_sysclk.h **** #define  CY_SYSCLK_DRV_VERSION_MINOR   20
 582:Generated_Source\PSoC6\pdl\drivers\peripheral\sysclk/cy_sysclk.h **** /** Sysclk driver identifier */
 583:Generated_Source\PSoC6\pdl\drivers\peripheral\sysclk/cy_sysclk.h **** #define CY_SYSCLK_ID   CY_PDL_DRV_ID(0x12U)
 584:Generated_Source\PSoC6\pdl\drivers\peripheral\sysclk/cy_sysclk.h **** 
 585:Generated_Source\PSoC6\pdl\drivers\peripheral\sysclk/cy_sysclk.h **** /** \} group_sysclk_macros */
 586:Generated_Source\PSoC6\pdl\drivers\peripheral\sysclk/cy_sysclk.h **** 
 587:Generated_Source\PSoC6\pdl\drivers\peripheral\sysclk/cy_sysclk.h **** /**
 588:Generated_Source\PSoC6\pdl\drivers\peripheral\sysclk/cy_sysclk.h **** * \addtogroup group_sysclk_returns
 589:Generated_Source\PSoC6\pdl\drivers\peripheral\sysclk/cy_sysclk.h **** * \{
 590:Generated_Source\PSoC6\pdl\drivers\peripheral\sysclk/cy_sysclk.h **** */
 591:Generated_Source\PSoC6\pdl\drivers\peripheral\sysclk/cy_sysclk.h **** /** Defines general-purpose function return values. */
 592:Generated_Source\PSoC6\pdl\drivers\peripheral\sysclk/cy_sysclk.h **** typedef enum
 593:Generated_Source\PSoC6\pdl\drivers\peripheral\sysclk/cy_sysclk.h **** {
 594:Generated_Source\PSoC6\pdl\drivers\peripheral\sysclk/cy_sysclk.h ****     CY_SYSCLK_SUCCESS       = 0u, /**< Command completed with no errors */
ARM GAS  C:\Users\mcfdo\AppData\Local\Temp\cc58ZVDP.s 			page 46


 595:Generated_Source\PSoC6\pdl\drivers\peripheral\sysclk/cy_sysclk.h ****     CY_SYSCLK_BAD_PARAM     = (CY_SYSCLK_ID | CY_PDL_STATUS_ERROR | 1U), /**< Invalid function inpu
 596:Generated_Source\PSoC6\pdl\drivers\peripheral\sysclk/cy_sysclk.h ****     CY_SYSCLK_TIMEOUT       = (CY_SYSCLK_ID | CY_PDL_STATUS_ERROR | 2U), /**< Timeout occurred */
 597:Generated_Source\PSoC6\pdl\drivers\peripheral\sysclk/cy_sysclk.h ****     CY_SYSCLK_INVALID_STATE = (CY_SYSCLK_ID | CY_PDL_STATUS_ERROR | 3U)  /**< Clock is in an invali
 598:Generated_Source\PSoC6\pdl\drivers\peripheral\sysclk/cy_sysclk.h **** } cy_en_sysclk_status_t;
 599:Generated_Source\PSoC6\pdl\drivers\peripheral\sysclk/cy_sysclk.h **** /** \} group_sysclk_returns */
 600:Generated_Source\PSoC6\pdl\drivers\peripheral\sysclk/cy_sysclk.h **** 
 601:Generated_Source\PSoC6\pdl\drivers\peripheral\sysclk/cy_sysclk.h **** /** \cond INTERNAL */
 602:Generated_Source\PSoC6\pdl\drivers\peripheral\sysclk/cy_sysclk.h **** /* Calculate a / b with rounding to the nearest integer. a and b must have the same sign. */
 603:Generated_Source\PSoC6\pdl\drivers\peripheral\sysclk/cy_sysclk.h **** #define CY_SYSCLK_DIV_ROUND(a, b) (((a) + ((b) / 2u)) / (b))
 604:Generated_Source\PSoC6\pdl\drivers\peripheral\sysclk/cy_sysclk.h **** /* Calculate a / b with rounding up if remainder != 0. a and b must both be positive. */
 605:Generated_Source\PSoC6\pdl\drivers\peripheral\sysclk/cy_sysclk.h **** #define CY_SYSCLK_DIV_ROUNDUP(a, b) ((((a) - 1U) / (b)) + 1U)
 606:Generated_Source\PSoC6\pdl\drivers\peripheral\sysclk/cy_sysclk.h **** /** \endcond */
 607:Generated_Source\PSoC6\pdl\drivers\peripheral\sysclk/cy_sysclk.h **** 
 608:Generated_Source\PSoC6\pdl\drivers\peripheral\sysclk/cy_sysclk.h **** 
 609:Generated_Source\PSoC6\pdl\drivers\peripheral\sysclk/cy_sysclk.h **** /* ========================================================================== */
 610:Generated_Source\PSoC6\pdl\drivers\peripheral\sysclk/cy_sysclk.h **** /* ===========================    ECO SECTION    ============================ */
 611:Generated_Source\PSoC6\pdl\drivers\peripheral\sysclk/cy_sysclk.h **** /* ========================================================================== */
 612:Generated_Source\PSoC6\pdl\drivers\peripheral\sysclk/cy_sysclk.h **** 
 613:Generated_Source\PSoC6\pdl\drivers\peripheral\sysclk/cy_sysclk.h **** /**
 614:Generated_Source\PSoC6\pdl\drivers\peripheral\sysclk/cy_sysclk.h **** * \addtogroup group_sysclk_macros
 615:Generated_Source\PSoC6\pdl\drivers\peripheral\sysclk/cy_sysclk.h **** * \{
 616:Generated_Source\PSoC6\pdl\drivers\peripheral\sysclk/cy_sysclk.h **** */
 617:Generated_Source\PSoC6\pdl\drivers\peripheral\sysclk/cy_sysclk.h **** 
 618:Generated_Source\PSoC6\pdl\drivers\peripheral\sysclk/cy_sysclk.h **** /**
 619:Generated_Source\PSoC6\pdl\drivers\peripheral\sysclk/cy_sysclk.h **** * \defgroup group_sysclk_ecostatus ECO status
 620:Generated_Source\PSoC6\pdl\drivers\peripheral\sysclk/cy_sysclk.h **** * \{
 621:Generated_Source\PSoC6\pdl\drivers\peripheral\sysclk/cy_sysclk.h **** * Constants used for expressing ECO status.
 622:Generated_Source\PSoC6\pdl\drivers\peripheral\sysclk/cy_sysclk.h **** */
 623:Generated_Source\PSoC6\pdl\drivers\peripheral\sysclk/cy_sysclk.h **** #define CY_SYSCLK_ECOSTAT_AMPLITUDE  0UL /**< \brief ECO does not have sufficient amplitude */
 624:Generated_Source\PSoC6\pdl\drivers\peripheral\sysclk/cy_sysclk.h **** #define CY_SYSCLK_ECOSTAT_INACCURATE 1UL /**< \brief ECO may not be meeting accuracy and duty cycle
 625:Generated_Source\PSoC6\pdl\drivers\peripheral\sysclk/cy_sysclk.h **** #define CY_SYSCLK_ECOSTAT_STABLE     2UL /**< \brief ECO has fully stabilized */
 626:Generated_Source\PSoC6\pdl\drivers\peripheral\sysclk/cy_sysclk.h **** /** \} */
 627:Generated_Source\PSoC6\pdl\drivers\peripheral\sysclk/cy_sysclk.h **** 
 628:Generated_Source\PSoC6\pdl\drivers\peripheral\sysclk/cy_sysclk.h **** /** \} group_sysclk_macros */
 629:Generated_Source\PSoC6\pdl\drivers\peripheral\sysclk/cy_sysclk.h **** 
 630:Generated_Source\PSoC6\pdl\drivers\peripheral\sysclk/cy_sysclk.h **** 
 631:Generated_Source\PSoC6\pdl\drivers\peripheral\sysclk/cy_sysclk.h **** /**
 632:Generated_Source\PSoC6\pdl\drivers\peripheral\sysclk/cy_sysclk.h **** * \addtogroup group_sysclk_eco_funcs
 633:Generated_Source\PSoC6\pdl\drivers\peripheral\sysclk/cy_sysclk.h **** * \{
 634:Generated_Source\PSoC6\pdl\drivers\peripheral\sysclk/cy_sysclk.h **** */
 635:Generated_Source\PSoC6\pdl\drivers\peripheral\sysclk/cy_sysclk.h **** cy_en_sysclk_status_t Cy_SysClk_EcoConfigure(uint32_t freq, uint32_t cLoad, uint32_t esr, uint32_t 
 636:Generated_Source\PSoC6\pdl\drivers\peripheral\sysclk/cy_sysclk.h **** cy_en_sysclk_status_t Cy_SysClk_EcoEnable(uint32_t timeoutus);
 637:Generated_Source\PSoC6\pdl\drivers\peripheral\sysclk/cy_sysclk.h **** __STATIC_INLINE void Cy_SysClk_EcoDisable(void);
 638:Generated_Source\PSoC6\pdl\drivers\peripheral\sysclk/cy_sysclk.h **** __STATIC_INLINE uint32_t Cy_SysClk_EcoGetStatus(void);
 639:Generated_Source\PSoC6\pdl\drivers\peripheral\sysclk/cy_sysclk.h **** 
 640:Generated_Source\PSoC6\pdl\drivers\peripheral\sysclk/cy_sysclk.h **** /*******************************************************************************
 641:Generated_Source\PSoC6\pdl\drivers\peripheral\sysclk/cy_sysclk.h **** * Function Name: Cy_SysClk_EcoDisable
 642:Generated_Source\PSoC6\pdl\drivers\peripheral\sysclk/cy_sysclk.h **** ****************************************************************************//**
 643:Generated_Source\PSoC6\pdl\drivers\peripheral\sysclk/cy_sysclk.h **** *
 644:Generated_Source\PSoC6\pdl\drivers\peripheral\sysclk/cy_sysclk.h **** * Disables the external crystal oscillator (ECO). This function should not be
 645:Generated_Source\PSoC6\pdl\drivers\peripheral\sysclk/cy_sysclk.h **** * called if the ECO is sourcing clkHf[0].
 646:Generated_Source\PSoC6\pdl\drivers\peripheral\sysclk/cy_sysclk.h **** *
 647:Generated_Source\PSoC6\pdl\drivers\peripheral\sysclk/cy_sysclk.h **** * \funcusage
 648:Generated_Source\PSoC6\pdl\drivers\peripheral\sysclk/cy_sysclk.h **** * \snippet sysclk/1.20/snippet/main.c snippet_Cy_SysClk_EcoDisable
 649:Generated_Source\PSoC6\pdl\drivers\peripheral\sysclk/cy_sysclk.h **** *
 650:Generated_Source\PSoC6\pdl\drivers\peripheral\sysclk/cy_sysclk.h **** *******************************************************************************/
 651:Generated_Source\PSoC6\pdl\drivers\peripheral\sysclk/cy_sysclk.h **** __STATIC_INLINE void Cy_SysClk_EcoDisable(void)
ARM GAS  C:\Users\mcfdo\AppData\Local\Temp\cc58ZVDP.s 			page 47


 652:Generated_Source\PSoC6\pdl\drivers\peripheral\sysclk/cy_sysclk.h **** {
 653:Generated_Source\PSoC6\pdl\drivers\peripheral\sysclk/cy_sysclk.h ****     SRSS_CLK_ECO_CONFIG &= (uint32_t)~_VAL2FLD(SRSS_CLK_ECO_CONFIG_ECO_EN, 1U); /* 0 = disable */
 654:Generated_Source\PSoC6\pdl\drivers\peripheral\sysclk/cy_sysclk.h **** }
 655:Generated_Source\PSoC6\pdl\drivers\peripheral\sysclk/cy_sysclk.h **** 
 656:Generated_Source\PSoC6\pdl\drivers\peripheral\sysclk/cy_sysclk.h **** /*******************************************************************************
 657:Generated_Source\PSoC6\pdl\drivers\peripheral\sysclk/cy_sysclk.h **** * Function Name: Cy_SysClk_EcoGetStatus
 658:Generated_Source\PSoC6\pdl\drivers\peripheral\sysclk/cy_sysclk.h **** ****************************************************************************//**
 659:Generated_Source\PSoC6\pdl\drivers\peripheral\sysclk/cy_sysclk.h **** *
 660:Generated_Source\PSoC6\pdl\drivers\peripheral\sysclk/cy_sysclk.h **** * Reports the current status of the external crystal oscillator (ECO).
 661:Generated_Source\PSoC6\pdl\drivers\peripheral\sysclk/cy_sysclk.h **** *
 662:Generated_Source\PSoC6\pdl\drivers\peripheral\sysclk/cy_sysclk.h **** * \return
 663:Generated_Source\PSoC6\pdl\drivers\peripheral\sysclk/cy_sysclk.h **** * CY_SYSCLK_ECOSTAT_AMPLITUDE = ECO does not have sufficient amplitude<br>
 664:Generated_Source\PSoC6\pdl\drivers\peripheral\sysclk/cy_sysclk.h **** * CY_SYSCLK_ECOSTAT_INACCURATE = ECO has sufficient amplitude but may not be meeting accuracy and d
 665:Generated_Source\PSoC6\pdl\drivers\peripheral\sysclk/cy_sysclk.h **** * CY_SYSCLK_ECOSTAT_STABLE = ECO has fully stabilized
 666:Generated_Source\PSoC6\pdl\drivers\peripheral\sysclk/cy_sysclk.h **** *
 667:Generated_Source\PSoC6\pdl\drivers\peripheral\sysclk/cy_sysclk.h **** * \funcusage
 668:Generated_Source\PSoC6\pdl\drivers\peripheral\sysclk/cy_sysclk.h **** * \snippet sysclk/1.20/snippet/main.c snippet_Cy_SysClk_EcoGetStatus
 669:Generated_Source\PSoC6\pdl\drivers\peripheral\sysclk/cy_sysclk.h **** *
 670:Generated_Source\PSoC6\pdl\drivers\peripheral\sysclk/cy_sysclk.h **** *******************************************************************************/
 671:Generated_Source\PSoC6\pdl\drivers\peripheral\sysclk/cy_sysclk.h **** __STATIC_INLINE uint32_t Cy_SysClk_EcoGetStatus(void)
 672:Generated_Source\PSoC6\pdl\drivers\peripheral\sysclk/cy_sysclk.h **** {
 673:Generated_Source\PSoC6\pdl\drivers\peripheral\sysclk/cy_sysclk.h ****     uint32_t retVal = (SRSS_CLK_ECO_STATUS & (SRSS_CLK_ECO_STATUS_ECO_OK_Msk | SRSS_CLK_ECO_STATUS_
 674:Generated_Source\PSoC6\pdl\drivers\peripheral\sysclk/cy_sysclk.h ****     /* if ECO is not ready, just report the ECO_OK bit. Otherwise report 2 = ECO ready */
 675:Generated_Source\PSoC6\pdl\drivers\peripheral\sysclk/cy_sysclk.h ****     return ((0UL == (retVal & SRSS_CLK_ECO_STATUS_ECO_READY_Msk)) ? retVal : CY_SYSCLK_ECOSTAT_STAB
 676:Generated_Source\PSoC6\pdl\drivers\peripheral\sysclk/cy_sysclk.h **** }
 677:Generated_Source\PSoC6\pdl\drivers\peripheral\sysclk/cy_sysclk.h **** /** \} group_sysclk_eco_funcs */
 678:Generated_Source\PSoC6\pdl\drivers\peripheral\sysclk/cy_sysclk.h **** 
 679:Generated_Source\PSoC6\pdl\drivers\peripheral\sysclk/cy_sysclk.h **** 
 680:Generated_Source\PSoC6\pdl\drivers\peripheral\sysclk/cy_sysclk.h **** /* ========================================================================== */
 681:Generated_Source\PSoC6\pdl\drivers\peripheral\sysclk/cy_sysclk.h **** /* ====================    INPUT MULTIPLEXER SECTION    ===================== */
 682:Generated_Source\PSoC6\pdl\drivers\peripheral\sysclk/cy_sysclk.h **** /* ========================================================================== */
 683:Generated_Source\PSoC6\pdl\drivers\peripheral\sysclk/cy_sysclk.h **** /**
 684:Generated_Source\PSoC6\pdl\drivers\peripheral\sysclk/cy_sysclk.h **** * \addtogroup group_sysclk_path_src_enums
 685:Generated_Source\PSoC6\pdl\drivers\peripheral\sysclk/cy_sysclk.h **** * \{
 686:Generated_Source\PSoC6\pdl\drivers\peripheral\sysclk/cy_sysclk.h **** */
 687:Generated_Source\PSoC6\pdl\drivers\peripheral\sysclk/cy_sysclk.h **** /**
 688:Generated_Source\PSoC6\pdl\drivers\peripheral\sysclk/cy_sysclk.h **** *   Input multiplexer clock sources
 689:Generated_Source\PSoC6\pdl\drivers\peripheral\sysclk/cy_sysclk.h **** */
 690:Generated_Source\PSoC6\pdl\drivers\peripheral\sysclk/cy_sysclk.h **** typedef enum
 691:Generated_Source\PSoC6\pdl\drivers\peripheral\sysclk/cy_sysclk.h **** {
 692:Generated_Source\PSoC6\pdl\drivers\peripheral\sysclk/cy_sysclk.h ****     CY_SYSCLK_CLKPATH_IN_IMO    =     0U, /**< Select the IMO as the output of the path mux */
 693:Generated_Source\PSoC6\pdl\drivers\peripheral\sysclk/cy_sysclk.h ****     CY_SYSCLK_CLKPATH_IN_EXT    =     1U, /**< Select the EXT as the output of the path mux */
 694:Generated_Source\PSoC6\pdl\drivers\peripheral\sysclk/cy_sysclk.h ****     CY_SYSCLK_CLKPATH_IN_ECO    =     2U, /**< Select the ECO as the output of the path mux */
 695:Generated_Source\PSoC6\pdl\drivers\peripheral\sysclk/cy_sysclk.h ****     CY_SYSCLK_CLKPATH_IN_ALTHF  =     3U, /**< Select the ALTHF as the output of the path mux.
 696:Generated_Source\PSoC6\pdl\drivers\peripheral\sysclk/cy_sysclk.h ****                                            *   Make sure the ALTHF clock source is available on use
 697:Generated_Source\PSoC6\pdl\drivers\peripheral\sysclk/cy_sysclk.h ****                                            */
 698:Generated_Source\PSoC6\pdl\drivers\peripheral\sysclk/cy_sysclk.h ****     CY_SYSCLK_CLKPATH_IN_DSIMUX =     4U, /**< Select the DSI MUX output as the output of the path 
 699:Generated_Source\PSoC6\pdl\drivers\peripheral\sysclk/cy_sysclk.h ****     CY_SYSCLK_CLKPATH_IN_DSI    = 0x100U, /**< Select a DSI signal (0 - 15) as the output of the DS
 700:Generated_Source\PSoC6\pdl\drivers\peripheral\sysclk/cy_sysclk.h ****                                            *   Make sure the DSI clock sources are available on use
 701:Generated_Source\PSoC6\pdl\drivers\peripheral\sysclk/cy_sysclk.h ****                                            */
 702:Generated_Source\PSoC6\pdl\drivers\peripheral\sysclk/cy_sysclk.h ****     CY_SYSCLK_CLKPATH_IN_ILO    = 0x110U, /**< Select the ILO (16) as the output of the DSI mux and
 703:Generated_Source\PSoC6\pdl\drivers\peripheral\sysclk/cy_sysclk.h ****     CY_SYSCLK_CLKPATH_IN_WCO    = 0x111U, /**< Select the WCO (17) as the output of the DSI mux and
 704:Generated_Source\PSoC6\pdl\drivers\peripheral\sysclk/cy_sysclk.h ****     CY_SYSCLK_CLKPATH_IN_ALTLF  = 0x112U, /**< Select the ALTLF (18) as the output of the DSI mux a
 705:Generated_Source\PSoC6\pdl\drivers\peripheral\sysclk/cy_sysclk.h ****                                            *   Make sure the ALTLF clock sources in available on us
 706:Generated_Source\PSoC6\pdl\drivers\peripheral\sysclk/cy_sysclk.h ****                                            */
 707:Generated_Source\PSoC6\pdl\drivers\peripheral\sysclk/cy_sysclk.h ****     CY_SYSCLK_CLKPATH_IN_PILO   = 0x113U  /**< Select the PILO (19) as the output of the DSI mux an
 708:Generated_Source\PSoC6\pdl\drivers\peripheral\sysclk/cy_sysclk.h ****                                            *   Make sure the PILO clock sources in available on use
ARM GAS  C:\Users\mcfdo\AppData\Local\Temp\cc58ZVDP.s 			page 48


 709:Generated_Source\PSoC6\pdl\drivers\peripheral\sysclk/cy_sysclk.h ****                                            */
 710:Generated_Source\PSoC6\pdl\drivers\peripheral\sysclk/cy_sysclk.h **** } cy_en_clkpath_in_sources_t;
 711:Generated_Source\PSoC6\pdl\drivers\peripheral\sysclk/cy_sysclk.h **** /** \} group_sysclk_path_src_enums */
 712:Generated_Source\PSoC6\pdl\drivers\peripheral\sysclk/cy_sysclk.h **** 
 713:Generated_Source\PSoC6\pdl\drivers\peripheral\sysclk/cy_sysclk.h **** /**
 714:Generated_Source\PSoC6\pdl\drivers\peripheral\sysclk/cy_sysclk.h **** * \addtogroup group_sysclk_path_src_funcs
 715:Generated_Source\PSoC6\pdl\drivers\peripheral\sysclk/cy_sysclk.h **** * \{
 716:Generated_Source\PSoC6\pdl\drivers\peripheral\sysclk/cy_sysclk.h **** */
 717:Generated_Source\PSoC6\pdl\drivers\peripheral\sysclk/cy_sysclk.h **** cy_en_sysclk_status_t Cy_SysClk_ClkPathSetSource(uint32_t clkPath, cy_en_clkpath_in_sources_t sourc
 718:Generated_Source\PSoC6\pdl\drivers\peripheral\sysclk/cy_sysclk.h **** cy_en_clkpath_in_sources_t Cy_SysClk_ClkPathGetSource(uint32_t clkPath);
 719:Generated_Source\PSoC6\pdl\drivers\peripheral\sysclk/cy_sysclk.h **** /** \} group_sysclk_path_src_funcs */
 720:Generated_Source\PSoC6\pdl\drivers\peripheral\sysclk/cy_sysclk.h **** 
 721:Generated_Source\PSoC6\pdl\drivers\peripheral\sysclk/cy_sysclk.h **** 
 722:Generated_Source\PSoC6\pdl\drivers\peripheral\sysclk/cy_sysclk.h **** /* ========================================================================== */
 723:Generated_Source\PSoC6\pdl\drivers\peripheral\sysclk/cy_sysclk.h **** /* ===========================    FLL SECTION    ============================ */
 724:Generated_Source\PSoC6\pdl\drivers\peripheral\sysclk/cy_sysclk.h **** /* ========================================================================== */
 725:Generated_Source\PSoC6\pdl\drivers\peripheral\sysclk/cy_sysclk.h **** /**
 726:Generated_Source\PSoC6\pdl\drivers\peripheral\sysclk/cy_sysclk.h **** * \addtogroup group_sysclk_fll_enums
 727:Generated_Source\PSoC6\pdl\drivers\peripheral\sysclk/cy_sysclk.h **** * \{
 728:Generated_Source\PSoC6\pdl\drivers\peripheral\sysclk/cy_sysclk.h **** */
 729:Generated_Source\PSoC6\pdl\drivers\peripheral\sysclk/cy_sysclk.h **** /** FLL and PLL output mode.
 730:Generated_Source\PSoC6\pdl\drivers\peripheral\sysclk/cy_sysclk.h **** * See registers CLK_FLL_CONFIG3 and CLK_PLL_CONFIG0, bits BYPASS_SEL.
 731:Generated_Source\PSoC6\pdl\drivers\peripheral\sysclk/cy_sysclk.h **** */
 732:Generated_Source\PSoC6\pdl\drivers\peripheral\sysclk/cy_sysclk.h **** typedef enum
 733:Generated_Source\PSoC6\pdl\drivers\peripheral\sysclk/cy_sysclk.h **** {
 734:Generated_Source\PSoC6\pdl\drivers\peripheral\sysclk/cy_sysclk.h ****     CY_SYSCLK_FLLPLL_OUTPUT_AUTO   = 0U, /**< Output FLL/PLL input source when not locked, and FLL/
 735:Generated_Source\PSoC6\pdl\drivers\peripheral\sysclk/cy_sysclk.h ****     CY_SYSCLK_FLLPLL_OUTPUT_AUTO1  = 1U, /**< Same as AUTO */
 736:Generated_Source\PSoC6\pdl\drivers\peripheral\sysclk/cy_sysclk.h ****     CY_SYSCLK_FLLPLL_OUTPUT_INPUT  = 2U, /**< Output FLL/PLL input source regardless of lock status
 737:Generated_Source\PSoC6\pdl\drivers\peripheral\sysclk/cy_sysclk.h ****     CY_SYSCLK_FLLPLL_OUTPUT_OUTPUT = 3U  /**< Output FLL/PLL output regardless of lock status. This
 738:Generated_Source\PSoC6\pdl\drivers\peripheral\sysclk/cy_sysclk.h **** } cy_en_fll_pll_output_mode_t;
 739:Generated_Source\PSoC6\pdl\drivers\peripheral\sysclk/cy_sysclk.h **** 
 740:Generated_Source\PSoC6\pdl\drivers\peripheral\sysclk/cy_sysclk.h **** /** FLL current-controlled oscillator (CCO) frequency ranges.
 741:Generated_Source\PSoC6\pdl\drivers\peripheral\sysclk/cy_sysclk.h **** * See register CLK_FLL_CONFIG4, bits CCO_RANGE.
 742:Generated_Source\PSoC6\pdl\drivers\peripheral\sysclk/cy_sysclk.h **** */
 743:Generated_Source\PSoC6\pdl\drivers\peripheral\sysclk/cy_sysclk.h **** typedef enum
 744:Generated_Source\PSoC6\pdl\drivers\peripheral\sysclk/cy_sysclk.h **** {
 745:Generated_Source\PSoC6\pdl\drivers\peripheral\sysclk/cy_sysclk.h ****     CY_SYSCLK_FLL_CCO_RANGE0, /**< Target frequency is in range  48 -  64 MHz. */
 746:Generated_Source\PSoC6\pdl\drivers\peripheral\sysclk/cy_sysclk.h ****     CY_SYSCLK_FLL_CCO_RANGE1, /**< Target frequency is in range  64 -  85 MHz. */
 747:Generated_Source\PSoC6\pdl\drivers\peripheral\sysclk/cy_sysclk.h ****     CY_SYSCLK_FLL_CCO_RANGE2, /**< Target frequency is in range  85 - 113 MHz. */
 748:Generated_Source\PSoC6\pdl\drivers\peripheral\sysclk/cy_sysclk.h ****     CY_SYSCLK_FLL_CCO_RANGE3, /**< Target frequency is in range 113 - 150 MHz. */
 749:Generated_Source\PSoC6\pdl\drivers\peripheral\sysclk/cy_sysclk.h ****     CY_SYSCLK_FLL_CCO_RANGE4  /**< Target frequency is in range 150 - 200 MHz. */
 750:Generated_Source\PSoC6\pdl\drivers\peripheral\sysclk/cy_sysclk.h **** } cy_en_fll_cco_ranges_t;
 751:Generated_Source\PSoC6\pdl\drivers\peripheral\sysclk/cy_sysclk.h **** /** \} group_sysclk_fll_enums */
 752:Generated_Source\PSoC6\pdl\drivers\peripheral\sysclk/cy_sysclk.h **** 
 753:Generated_Source\PSoC6\pdl\drivers\peripheral\sysclk/cy_sysclk.h **** /**
 754:Generated_Source\PSoC6\pdl\drivers\peripheral\sysclk/cy_sysclk.h **** * \addtogroup group_sysclk_fll_structs
 755:Generated_Source\PSoC6\pdl\drivers\peripheral\sysclk/cy_sysclk.h **** * \{
 756:Generated_Source\PSoC6\pdl\drivers\peripheral\sysclk/cy_sysclk.h **** */
 757:Generated_Source\PSoC6\pdl\drivers\peripheral\sysclk/cy_sysclk.h **** /** Structure containing information for manual configuration of FLL.
 758:Generated_Source\PSoC6\pdl\drivers\peripheral\sysclk/cy_sysclk.h **** */
 759:Generated_Source\PSoC6\pdl\drivers\peripheral\sysclk/cy_sysclk.h **** typedef struct
 760:Generated_Source\PSoC6\pdl\drivers\peripheral\sysclk/cy_sysclk.h **** {
 761:Generated_Source\PSoC6\pdl\drivers\peripheral\sysclk/cy_sysclk.h ****     uint32_t                    fllMult;         /**< CLK_FLL_CONFIG  register, FLL_MULT bits */
 762:Generated_Source\PSoC6\pdl\drivers\peripheral\sysclk/cy_sysclk.h ****     uint16_t                    refDiv;          /**< CLK_FLL_CONFIG2 register, FLL_REF_DIV bits */
 763:Generated_Source\PSoC6\pdl\drivers\peripheral\sysclk/cy_sysclk.h ****     cy_en_fll_cco_ranges_t      ccoRange;        /**< CLK_FLL_CONFIG4 register, CCO_RANGE bits */
 764:Generated_Source\PSoC6\pdl\drivers\peripheral\sysclk/cy_sysclk.h ****     bool                        enableOutputDiv; /**< CLK_FLL_CONFIG  register, FLL_OUTPUT_DIV bit 
 765:Generated_Source\PSoC6\pdl\drivers\peripheral\sysclk/cy_sysclk.h ****     uint16_t                    lockTolerance;   /**< CLK_FLL_CONFIG2 register, LOCK_TOL bits */
ARM GAS  C:\Users\mcfdo\AppData\Local\Temp\cc58ZVDP.s 			page 49


 766:Generated_Source\PSoC6\pdl\drivers\peripheral\sysclk/cy_sysclk.h ****     uint8_t                     igain;           /**< CLK_FLL_CONFIG3 register, FLL_LF_IGAIN bits *
 767:Generated_Source\PSoC6\pdl\drivers\peripheral\sysclk/cy_sysclk.h ****     uint8_t                     pgain;           /**< CLK_FLL_CONFIG3 register, FLL_LF_PGAIN bits *
 768:Generated_Source\PSoC6\pdl\drivers\peripheral\sysclk/cy_sysclk.h ****     uint16_t                    settlingCount;   /**< CLK_FLL_CONFIG3 register, SETTLING_COUNT bits
 769:Generated_Source\PSoC6\pdl\drivers\peripheral\sysclk/cy_sysclk.h ****     cy_en_fll_pll_output_mode_t outputMode;      /**< CLK_FLL_CONFIG3 register, BYPASS_SEL bits */
 770:Generated_Source\PSoC6\pdl\drivers\peripheral\sysclk/cy_sysclk.h ****     uint16_t                    cco_Freq;        /**< CLK_FLL_CONFIG4 register, CCO_FREQ bits */
 771:Generated_Source\PSoC6\pdl\drivers\peripheral\sysclk/cy_sysclk.h **** } cy_stc_fll_manual_config_t;
 772:Generated_Source\PSoC6\pdl\drivers\peripheral\sysclk/cy_sysclk.h **** /** \} group_sysclk_fll_structs */
 773:Generated_Source\PSoC6\pdl\drivers\peripheral\sysclk/cy_sysclk.h **** 
 774:Generated_Source\PSoC6\pdl\drivers\peripheral\sysclk/cy_sysclk.h **** /**
 775:Generated_Source\PSoC6\pdl\drivers\peripheral\sysclk/cy_sysclk.h **** * \addtogroup group_sysclk_fll_funcs
 776:Generated_Source\PSoC6\pdl\drivers\peripheral\sysclk/cy_sysclk.h **** * \{
 777:Generated_Source\PSoC6\pdl\drivers\peripheral\sysclk/cy_sysclk.h **** */
 778:Generated_Source\PSoC6\pdl\drivers\peripheral\sysclk/cy_sysclk.h **** cy_en_sysclk_status_t Cy_SysClk_FllConfigure(uint32_t inputFreq, uint32_t outputFreq, cy_en_fll_pll
 779:Generated_Source\PSoC6\pdl\drivers\peripheral\sysclk/cy_sysclk.h **** cy_en_sysclk_status_t Cy_SysClk_FllManualConfigure(const cy_stc_fll_manual_config_t *config);
 780:Generated_Source\PSoC6\pdl\drivers\peripheral\sysclk/cy_sysclk.h **** void Cy_SysClk_FllGetConfiguration(cy_stc_fll_manual_config_t *config);
 781:Generated_Source\PSoC6\pdl\drivers\peripheral\sysclk/cy_sysclk.h **** cy_en_sysclk_status_t Cy_SysClk_FllEnable(uint32_t timeoutus);
 782:Generated_Source\PSoC6\pdl\drivers\peripheral\sysclk/cy_sysclk.h **** __STATIC_INLINE bool Cy_SysClk_FllLocked(void);
 783:Generated_Source\PSoC6\pdl\drivers\peripheral\sysclk/cy_sysclk.h **** __STATIC_INLINE cy_en_sysclk_status_t Cy_SysClk_FllDisable(void);
 784:Generated_Source\PSoC6\pdl\drivers\peripheral\sysclk/cy_sysclk.h **** 
 785:Generated_Source\PSoC6\pdl\drivers\peripheral\sysclk/cy_sysclk.h **** /*******************************************************************************
 786:Generated_Source\PSoC6\pdl\drivers\peripheral\sysclk/cy_sysclk.h **** * Function Name: Cy_SysClk_FllLocked
 787:Generated_Source\PSoC6\pdl\drivers\peripheral\sysclk/cy_sysclk.h **** ****************************************************************************//**
 788:Generated_Source\PSoC6\pdl\drivers\peripheral\sysclk/cy_sysclk.h **** *
 789:Generated_Source\PSoC6\pdl\drivers\peripheral\sysclk/cy_sysclk.h **** * Reports whether the FLL is locked first time during FLL starting.
 790:Generated_Source\PSoC6\pdl\drivers\peripheral\sysclk/cy_sysclk.h **** * Intended to be used with \ref Cy_SysClk_FllEnable with zero timeout.
 791:Generated_Source\PSoC6\pdl\drivers\peripheral\sysclk/cy_sysclk.h **** *
 792:Generated_Source\PSoC6\pdl\drivers\peripheral\sysclk/cy_sysclk.h **** * \return 
 793:Generated_Source\PSoC6\pdl\drivers\peripheral\sysclk/cy_sysclk.h **** * false = not locked<br>
 794:Generated_Source\PSoC6\pdl\drivers\peripheral\sysclk/cy_sysclk.h **** * true = locked
 795:Generated_Source\PSoC6\pdl\drivers\peripheral\sysclk/cy_sysclk.h **** *
 796:Generated_Source\PSoC6\pdl\drivers\peripheral\sysclk/cy_sysclk.h **** * \note
 797:Generated_Source\PSoC6\pdl\drivers\peripheral\sysclk/cy_sysclk.h **** * The unlock occurrence may appear during FLL normal operation, so this function 
 798:Generated_Source\PSoC6\pdl\drivers\peripheral\sysclk/cy_sysclk.h **** * is not recommended to check the FLL normal operation stability.
 799:Generated_Source\PSoC6\pdl\drivers\peripheral\sysclk/cy_sysclk.h **** *
 800:Generated_Source\PSoC6\pdl\drivers\peripheral\sysclk/cy_sysclk.h **** * \funcusage
 801:Generated_Source\PSoC6\pdl\drivers\peripheral\sysclk/cy_sysclk.h **** * \snippet sysclk/1.20/snippet/main.c snippet_Cy_SysClk_FllLocked
 802:Generated_Source\PSoC6\pdl\drivers\peripheral\sysclk/cy_sysclk.h **** *
 803:Generated_Source\PSoC6\pdl\drivers\peripheral\sysclk/cy_sysclk.h **** *******************************************************************************/
 804:Generated_Source\PSoC6\pdl\drivers\peripheral\sysclk/cy_sysclk.h **** __STATIC_INLINE bool Cy_SysClk_FllLocked(void)
 805:Generated_Source\PSoC6\pdl\drivers\peripheral\sysclk/cy_sysclk.h **** {
 806:Generated_Source\PSoC6\pdl\drivers\peripheral\sysclk/cy_sysclk.h ****     return (_FLD2BOOL(SRSS_CLK_FLL_STATUS_LOCKED, SRSS_CLK_FLL_STATUS));
 1199              		.loc 2 806 0
 1200 0050 1A4E     		ldr	r6, .L160
 1201              	.L132:
 1202 0052 D6F89035 		ldr	r3, [r6, #1424]
 1203              	.LBE38:
 1204              	.LBE37:
 642:Generated_Source\PSoC6\pdl\drivers\peripheral\sysclk/cy_sysclk.c ****     }
 643:Generated_Source\PSoC6\pdl\drivers\peripheral\sysclk/cy_sysclk.c **** 
 644:Generated_Source\PSoC6\pdl\drivers\peripheral\sysclk/cy_sysclk.c ****     /* now do the timeout wait for FLL_STATUS, bit LOCKED */
 645:Generated_Source\PSoC6\pdl\drivers\peripheral\sysclk/cy_sysclk.c ****     for (; (!Cy_SysClk_FllLocked()) && /* if locked == 0 */
 1205              		.loc 1 645 0
 1206 0056 13F0010F 		tst	r3, #1
 1207 005a 184B     		ldr	r3, .L160
 1208 005c 05D1     		bne	.L133
 1209              		.loc 1 645 0 is_stmt 0 discriminator 1
 1210 005e 3DB1     		cbz	r5, .L158
ARM GAS  C:\Users\mcfdo\AppData\Local\Temp\cc58ZVDP.s 			page 50


 646:Generated_Source\PSoC6\pdl\drivers\peripheral\sysclk/cy_sysclk.c ****            (0UL != timeoutus);
 647:Generated_Source\PSoC6\pdl\drivers\peripheral\sysclk/cy_sysclk.c ****          timeoutus--)
 648:Generated_Source\PSoC6\pdl\drivers\peripheral\sysclk/cy_sysclk.c ****     {
 649:Generated_Source\PSoC6\pdl\drivers\peripheral\sysclk/cy_sysclk.c ****         Cy_SysLib_DelayUs(1U);
 1211              		.loc 1 649 0 is_stmt 1
 1212 0060 0120     		movs	r0, #1
 1213 0062 FFF7FEFF 		bl	Cy_SysLib_DelayUs
 1214              	.LVL95:
 647:Generated_Source\PSoC6\pdl\drivers\peripheral\sysclk/cy_sysclk.c ****     {
 1215              		.loc 1 647 0
 1216 0066 013D     		subs	r5, r5, #1
 1217              	.LVL96:
 1218 0068 F3E7     		b	.L132
 1219              	.L133:
 650:Generated_Source\PSoC6\pdl\drivers\peripheral\sysclk/cy_sysclk.c ****     }
 651:Generated_Source\PSoC6\pdl\drivers\peripheral\sysclk/cy_sysclk.c **** 
 652:Generated_Source\PSoC6\pdl\drivers\peripheral\sysclk/cy_sysclk.c ****     if (zeroTimeout || (0UL != timeoutus))
 1220              		.loc 1 652 0
 1221 006a 1CB1     		cbz	r4, .L136
 1222              		.loc 1 652 0 is_stmt 0 discriminator 1
 1223 006c 15B9     		cbnz	r5, .L136
 1224 006e 0DE0     		b	.L137
 1225              	.L158:
 1226              		.loc 1 652 0
 1227 0070 64B9     		cbnz	r4, .L137
 1228 0072 2546     		mov	r5, r4
 1229              	.LVL97:
 1230              	.L136:
 653:Generated_Source\PSoC6\pdl\drivers\peripheral\sysclk/cy_sysclk.c ****     { 
 654:Generated_Source\PSoC6\pdl\drivers\peripheral\sysclk/cy_sysclk.c ****         /* Set the FLL bypass mode to FLL_OUT (ignoring lock indicator). */
 655:Generated_Source\PSoC6\pdl\drivers\peripheral\sysclk/cy_sysclk.c ****         CY_REG32_CLR_SET(SRSS_CLK_FLL_CONFIG3, SRSS_CLK_FLL_CONFIG3_BYPASS_SEL, CY_SYSCLK_FLLPLL_OU
 1231              		.loc 1 655 0 is_stmt 1
 1232 0074 D3F88825 		ldr	r2, [r3, #1416]
 1233 0078 42F04052 		orr	r2, r2, #805306368
 1234 007c C3F88825 		str	r2, [r3, #1416]
 656:Generated_Source\PSoC6\pdl\drivers\peripheral\sysclk/cy_sysclk.c ****     }
 657:Generated_Source\PSoC6\pdl\drivers\peripheral\sysclk/cy_sysclk.c ****     else
 658:Generated_Source\PSoC6\pdl\drivers\peripheral\sysclk/cy_sysclk.c ****     {
 659:Generated_Source\PSoC6\pdl\drivers\peripheral\sysclk/cy_sysclk.c ****         /* If lock doesn't occur, FLL is stopped. */
 660:Generated_Source\PSoC6\pdl\drivers\peripheral\sysclk/cy_sysclk.c ****         (void)Cy_SysClk_FllDisable();
 661:Generated_Source\PSoC6\pdl\drivers\peripheral\sysclk/cy_sysclk.c ****     }
 662:Generated_Source\PSoC6\pdl\drivers\peripheral\sysclk/cy_sysclk.c **** 
 663:Generated_Source\PSoC6\pdl\drivers\peripheral\sysclk/cy_sysclk.c ****     return ((zeroTimeout || (0UL != timeoutus)) ? CY_SYSCLK_SUCCESS : CY_SYSCLK_TIMEOUT);
 1235              		.loc 1 663 0
 1236 0080 D4B1     		cbz	r4, .L159
 1237              		.loc 1 663 0 is_stmt 0 discriminator 2
 1238 0082 002D     		cmp	r5, #0
 1239 0084 0E48     		ldr	r0, .L160+4
 1240 0086 18BF     		it	ne
 1241 0088 0020     		movne	r0, #0
 1242 008a 70BD     		pop	{r4, r5, r6, pc}
 1243              	.LVL98:
 1244              	.L137:
 1245              	.LBB39:
 1246              	.LBB40:
 807:Generated_Source\PSoC6\pdl\drivers\peripheral\sysclk/cy_sysclk.h **** }
 808:Generated_Source\PSoC6\pdl\drivers\peripheral\sysclk/cy_sysclk.h **** 
ARM GAS  C:\Users\mcfdo\AppData\Local\Temp\cc58ZVDP.s 			page 51


 809:Generated_Source\PSoC6\pdl\drivers\peripheral\sysclk/cy_sysclk.h **** 
 810:Generated_Source\PSoC6\pdl\drivers\peripheral\sysclk/cy_sysclk.h **** /*******************************************************************************
 811:Generated_Source\PSoC6\pdl\drivers\peripheral\sysclk/cy_sysclk.h **** * Function Name: Cy_SysClk_FllDisable
 812:Generated_Source\PSoC6\pdl\drivers\peripheral\sysclk/cy_sysclk.h **** ****************************************************************************//**
 813:Generated_Source\PSoC6\pdl\drivers\peripheral\sysclk/cy_sysclk.h **** *
 814:Generated_Source\PSoC6\pdl\drivers\peripheral\sysclk/cy_sysclk.h **** * Disables the FLL and the CCO.
 815:Generated_Source\PSoC6\pdl\drivers\peripheral\sysclk/cy_sysclk.h **** *
 816:Generated_Source\PSoC6\pdl\drivers\peripheral\sysclk/cy_sysclk.h **** * \return \ref cy_en_sysclk_status_t
 817:Generated_Source\PSoC6\pdl\drivers\peripheral\sysclk/cy_sysclk.h **** *
 818:Generated_Source\PSoC6\pdl\drivers\peripheral\sysclk/cy_sysclk.h **** * \note 
 819:Generated_Source\PSoC6\pdl\drivers\peripheral\sysclk/cy_sysclk.h **** * Call \ref SystemCoreClockUpdate after this function calling 
 820:Generated_Source\PSoC6\pdl\drivers\peripheral\sysclk/cy_sysclk.h **** * if it affects the CLK_HF0 frequency.
 821:Generated_Source\PSoC6\pdl\drivers\peripheral\sysclk/cy_sysclk.h **** *
 822:Generated_Source\PSoC6\pdl\drivers\peripheral\sysclk/cy_sysclk.h **** * \note
 823:Generated_Source\PSoC6\pdl\drivers\peripheral\sysclk/cy_sysclk.h **** * Call \ref Cy_SysLib_SetWaitStates after calling this function if
 824:Generated_Source\PSoC6\pdl\drivers\peripheral\sysclk/cy_sysclk.h **** * the FLL is the source of CLK_HF0 and the CLK_HF0 frequency is decreasing.
 825:Generated_Source\PSoC6\pdl\drivers\peripheral\sysclk/cy_sysclk.h **** *
 826:Generated_Source\PSoC6\pdl\drivers\peripheral\sysclk/cy_sysclk.h **** * \funcusage
 827:Generated_Source\PSoC6\pdl\drivers\peripheral\sysclk/cy_sysclk.h **** * \snippet sysclk/1.20/snippet/main.c snippet_Cy_SysClk_FllDisable
 828:Generated_Source\PSoC6\pdl\drivers\peripheral\sysclk/cy_sysclk.h **** *
 829:Generated_Source\PSoC6\pdl\drivers\peripheral\sysclk/cy_sysclk.h **** *******************************************************************************/
 830:Generated_Source\PSoC6\pdl\drivers\peripheral\sysclk/cy_sysclk.h **** __STATIC_INLINE cy_en_sysclk_status_t Cy_SysClk_FllDisable(void)
 831:Generated_Source\PSoC6\pdl\drivers\peripheral\sysclk/cy_sysclk.h **** {
 832:Generated_Source\PSoC6\pdl\drivers\peripheral\sysclk/cy_sysclk.h ****     CY_REG32_CLR_SET(SRSS_CLK_FLL_CONFIG3, SRSS_CLK_FLL_CONFIG3_BYPASS_SEL, CY_SYSCLK_FLLPLL_OUTPUT
 1247              		.loc 2 832 0 is_stmt 1
 1248 008c D3F88825 		ldr	r2, [r3, #1416]
 1249              	.LBE40:
 1250              	.LBE39:
 1251              		.loc 1 663 0
