ARM GAS  C:\Users\mcfdo\AppData\Local\Temp\ccxaSBqv.s 			page 1


   1              		.syntax unified
   2              		.cpu cortex-m4
   3              		.eabi_attribute 27, 1
   4              		.fpu fpv4-sp-d16
   5              		.eabi_attribute 20, 1
   6              		.eabi_attribute 21, 1
   7              		.eabi_attribute 23, 3
   8              		.eabi_attribute 24, 1
   9              		.eabi_attribute 25, 1
  10              		.eabi_attribute 26, 1
  11              		.eabi_attribute 30, 4
  12              		.eabi_attribute 34, 1
  13              		.eabi_attribute 18, 4
  14              		.thumb
  15              		.syntax unified
  16              		.file	"cy_scb_spi.c"
  17              		.text
  18              	.Ltext0:
  19              		.cfi_sections	.debug_frame
  20              		.section	.text.Cy_SCB_SPI_Init,"ax",%progbits
  21              		.align	1
  22              		.global	Cy_SCB_SPI_Init
  23              		.thumb
  24              		.thumb_func
  25              		.type	Cy_SCB_SPI_Init, %function
  26              	Cy_SCB_SPI_Init:
  27              	.LFB240:
  28              		.file 1 "Generated_Source\\PSoC6\\pdl\\drivers\\peripheral\\scb\\cy_scb_spi.c"
   1:Generated_Source\PSoC6\pdl\drivers\peripheral\scb/cy_scb_spi.c **** /***************************************************************************//**
   2:Generated_Source\PSoC6\pdl\drivers\peripheral\scb/cy_scb_spi.c **** * \file cy_scb_spi.c
   3:Generated_Source\PSoC6\pdl\drivers\peripheral\scb/cy_scb_spi.c **** * \version 2.20
   4:Generated_Source\PSoC6\pdl\drivers\peripheral\scb/cy_scb_spi.c **** *
   5:Generated_Source\PSoC6\pdl\drivers\peripheral\scb/cy_scb_spi.c **** * Provides SPI API implementation of the SCB driver.
   6:Generated_Source\PSoC6\pdl\drivers\peripheral\scb/cy_scb_spi.c **** *
   7:Generated_Source\PSoC6\pdl\drivers\peripheral\scb/cy_scb_spi.c **** ********************************************************************************
   8:Generated_Source\PSoC6\pdl\drivers\peripheral\scb/cy_scb_spi.c **** * \copyright
   9:Generated_Source\PSoC6\pdl\drivers\peripheral\scb/cy_scb_spi.c **** * Copyright 2016-2018, Cypress Semiconductor Corporation. All rights reserved.
  10:Generated_Source\PSoC6\pdl\drivers\peripheral\scb/cy_scb_spi.c **** * You may use this file only in accordance with the license, terms, conditions,
  11:Generated_Source\PSoC6\pdl\drivers\peripheral\scb/cy_scb_spi.c **** * disclaimers, and limitations in the end user license agreement accompanying
  12:Generated_Source\PSoC6\pdl\drivers\peripheral\scb/cy_scb_spi.c **** * the software package with which this file was provided.
  13:Generated_Source\PSoC6\pdl\drivers\peripheral\scb/cy_scb_spi.c **** *******************************************************************************/
  14:Generated_Source\PSoC6\pdl\drivers\peripheral\scb/cy_scb_spi.c **** 
  15:Generated_Source\PSoC6\pdl\drivers\peripheral\scb/cy_scb_spi.c **** #include "cy_scb_spi.h"
  16:Generated_Source\PSoC6\pdl\drivers\peripheral\scb/cy_scb_spi.c **** 
  17:Generated_Source\PSoC6\pdl\drivers\peripheral\scb/cy_scb_spi.c **** #ifdef CY_IP_MXSCB
  18:Generated_Source\PSoC6\pdl\drivers\peripheral\scb/cy_scb_spi.c **** 
  19:Generated_Source\PSoC6\pdl\drivers\peripheral\scb/cy_scb_spi.c **** #if defined(__cplusplus)
  20:Generated_Source\PSoC6\pdl\drivers\peripheral\scb/cy_scb_spi.c **** extern "C" {
  21:Generated_Source\PSoC6\pdl\drivers\peripheral\scb/cy_scb_spi.c **** #endif
  22:Generated_Source\PSoC6\pdl\drivers\peripheral\scb/cy_scb_spi.c **** 
  23:Generated_Source\PSoC6\pdl\drivers\peripheral\scb/cy_scb_spi.c **** /* Static functions */
  24:Generated_Source\PSoC6\pdl\drivers\peripheral\scb/cy_scb_spi.c **** static void HandleTransmit(CySCB_Type *base, cy_stc_scb_spi_context_t *context);
  25:Generated_Source\PSoC6\pdl\drivers\peripheral\scb/cy_scb_spi.c **** static void HandleReceive (CySCB_Type *base, cy_stc_scb_spi_context_t *context);
  26:Generated_Source\PSoC6\pdl\drivers\peripheral\scb/cy_scb_spi.c **** static void DiscardArrayNoCheck(CySCB_Type const *base, uint32_t size);
  27:Generated_Source\PSoC6\pdl\drivers\peripheral\scb/cy_scb_spi.c **** 
  28:Generated_Source\PSoC6\pdl\drivers\peripheral\scb/cy_scb_spi.c **** /*******************************************************************************
  29:Generated_Source\PSoC6\pdl\drivers\peripheral\scb/cy_scb_spi.c **** * Function Name: Cy_SCB_SPI_Init
ARM GAS  C:\Users\mcfdo\AppData\Local\Temp\ccxaSBqv.s 			page 2


  30:Generated_Source\PSoC6\pdl\drivers\peripheral\scb/cy_scb_spi.c **** ****************************************************************************//**
  31:Generated_Source\PSoC6\pdl\drivers\peripheral\scb/cy_scb_spi.c **** *
  32:Generated_Source\PSoC6\pdl\drivers\peripheral\scb/cy_scb_spi.c **** * Initializes the SCB for SPI operation.
  33:Generated_Source\PSoC6\pdl\drivers\peripheral\scb/cy_scb_spi.c **** *
  34:Generated_Source\PSoC6\pdl\drivers\peripheral\scb/cy_scb_spi.c **** * \param base
  35:Generated_Source\PSoC6\pdl\drivers\peripheral\scb/cy_scb_spi.c **** * The pointer to the SPI SCB instance.
  36:Generated_Source\PSoC6\pdl\drivers\peripheral\scb/cy_scb_spi.c **** *
  37:Generated_Source\PSoC6\pdl\drivers\peripheral\scb/cy_scb_spi.c **** * \param config
  38:Generated_Source\PSoC6\pdl\drivers\peripheral\scb/cy_scb_spi.c **** * The pointer to the configuration structure \ref cy_stc_scb_spi_config_t.
  39:Generated_Source\PSoC6\pdl\drivers\peripheral\scb/cy_scb_spi.c **** *
  40:Generated_Source\PSoC6\pdl\drivers\peripheral\scb/cy_scb_spi.c **** * \param context
  41:Generated_Source\PSoC6\pdl\drivers\peripheral\scb/cy_scb_spi.c **** * The pointer to the context structure \ref cy_stc_scb_spi_context_t allocated
  42:Generated_Source\PSoC6\pdl\drivers\peripheral\scb/cy_scb_spi.c **** * by the user. The structure is used during the SPI operation for internal
  43:Generated_Source\PSoC6\pdl\drivers\peripheral\scb/cy_scb_spi.c **** * configuration and data retention. The user must not modify anything
  44:Generated_Source\PSoC6\pdl\drivers\peripheral\scb/cy_scb_spi.c **** * in this structure.
  45:Generated_Source\PSoC6\pdl\drivers\peripheral\scb/cy_scb_spi.c **** * If only SPI \ref group_scb_spi_ll will be used pass NULL as pointer to 
  46:Generated_Source\PSoC6\pdl\drivers\peripheral\scb/cy_scb_spi.c **** * context.
  47:Generated_Source\PSoC6\pdl\drivers\peripheral\scb/cy_scb_spi.c **** *
  48:Generated_Source\PSoC6\pdl\drivers\peripheral\scb/cy_scb_spi.c **** * \return
  49:Generated_Source\PSoC6\pdl\drivers\peripheral\scb/cy_scb_spi.c **** * \ref cy_en_scb_spi_status_t
  50:Generated_Source\PSoC6\pdl\drivers\peripheral\scb/cy_scb_spi.c **** *
  51:Generated_Source\PSoC6\pdl\drivers\peripheral\scb/cy_scb_spi.c **** * \note
  52:Generated_Source\PSoC6\pdl\drivers\peripheral\scb/cy_scb_spi.c **** * Ensure that the SCB block is disabled before calling this function.
  53:Generated_Source\PSoC6\pdl\drivers\peripheral\scb/cy_scb_spi.c **** *
  54:Generated_Source\PSoC6\pdl\drivers\peripheral\scb/cy_scb_spi.c **** *******************************************************************************/
  55:Generated_Source\PSoC6\pdl\drivers\peripheral\scb/cy_scb_spi.c **** cy_en_scb_spi_status_t Cy_SCB_SPI_Init(CySCB_Type *base, cy_stc_scb_spi_config_t const *config, cy_
  56:Generated_Source\PSoC6\pdl\drivers\peripheral\scb/cy_scb_spi.c **** {
  29              		.loc 1 56 0
  30              		.cfi_startproc
  31              		@ args = 0, pretend = 0, frame = 0
  32              		@ frame_needed = 0, uses_anonymous_args = 0
  33              	.LVL0:
  34 0000 2DE9F047 		push	{r4, r5, r6, r7, r8, r9, r10, lr}
  35              		.cfi_def_cfa_offset 32
  36              		.cfi_offset 4, -32
  37              		.cfi_offset 5, -28
  38              		.cfi_offset 6, -24
  39              		.cfi_offset 7, -20
  40              		.cfi_offset 8, -16
  41              		.cfi_offset 9, -12
  42              		.cfi_offset 10, -8
  43              		.cfi_offset 14, -4
  57:Generated_Source\PSoC6\pdl\drivers\peripheral\scb/cy_scb_spi.c ****     /* Input parameters verification */
  58:Generated_Source\PSoC6\pdl\drivers\peripheral\scb/cy_scb_spi.c ****     if ((NULL == base) || (NULL == config))
  44              		.loc 1 58 0
  45 0004 0028     		cmp	r0, #0
  46 0006 00F0A980 		beq	.L18
  47              		.loc 1 58 0 is_stmt 0 discriminator 1
  48 000a 0029     		cmp	r1, #0
  49 000c 00F0A680 		beq	.L18
  59:Generated_Source\PSoC6\pdl\drivers\peripheral\scb/cy_scb_spi.c ****     {
  60:Generated_Source\PSoC6\pdl\drivers\peripheral\scb/cy_scb_spi.c ****         return CY_SCB_SPI_BAD_PARAM;
  61:Generated_Source\PSoC6\pdl\drivers\peripheral\scb/cy_scb_spi.c ****     }
  62:Generated_Source\PSoC6\pdl\drivers\peripheral\scb/cy_scb_spi.c **** 
  63:Generated_Source\PSoC6\pdl\drivers\peripheral\scb/cy_scb_spi.c ****     CY_ASSERT_L3(CY_SCB_SPI_IS_MODE_VALID     (config->spiMode));
  64:Generated_Source\PSoC6\pdl\drivers\peripheral\scb/cy_scb_spi.c ****     CY_ASSERT_L3(CY_SCB_SPI_IS_SUB_MODE_VALID (config->subMode));
  65:Generated_Source\PSoC6\pdl\drivers\peripheral\scb/cy_scb_spi.c ****     CY_ASSERT_L3(CY_SCB_SPI_IS_SCLK_MODE_VALID(config->sclkMode));
ARM GAS  C:\Users\mcfdo\AppData\Local\Temp\ccxaSBqv.s 			page 3


  66:Generated_Source\PSoC6\pdl\drivers\peripheral\scb/cy_scb_spi.c **** 
  67:Generated_Source\PSoC6\pdl\drivers\peripheral\scb/cy_scb_spi.c ****     CY_ASSERT_L2(CY_SCB_SPI_IS_OVERSAMPLE_VALID (config->oversample, config->spiMode));
  68:Generated_Source\PSoC6\pdl\drivers\peripheral\scb/cy_scb_spi.c ****     CY_ASSERT_L2(CY_SCB_SPI_IS_SS_POLARITY_VALID(config->ssPolarity));
  69:Generated_Source\PSoC6\pdl\drivers\peripheral\scb/cy_scb_spi.c ****     CY_ASSERT_L2(CY_SCB_SPI_IS_DATA_WIDTH_VALID (config->rxDataWidth));
  70:Generated_Source\PSoC6\pdl\drivers\peripheral\scb/cy_scb_spi.c ****     CY_ASSERT_L2(CY_SCB_SPI_IS_DATA_WIDTH_VALID (config->txDataWidth));
  71:Generated_Source\PSoC6\pdl\drivers\peripheral\scb/cy_scb_spi.c ****     CY_ASSERT_L2(CY_SCB_SPI_IS_BOTH_DATA_WIDTH_VALID(config->subMode, config->rxDataWidth, config->
  72:Generated_Source\PSoC6\pdl\drivers\peripheral\scb/cy_scb_spi.c **** 
  73:Generated_Source\PSoC6\pdl\drivers\peripheral\scb/cy_scb_spi.c ****     CY_ASSERT_L2(CY_SCB_IS_INTR_VALID(config->rxFifoIntEnableMask, CY_SCB_SPI_RX_INTR_MASK));
  74:Generated_Source\PSoC6\pdl\drivers\peripheral\scb/cy_scb_spi.c ****     CY_ASSERT_L2(CY_SCB_IS_INTR_VALID(config->txFifoIntEnableMask, CY_SCB_SPI_TX_INTR_MASK));
  75:Generated_Source\PSoC6\pdl\drivers\peripheral\scb/cy_scb_spi.c ****     CY_ASSERT_L2(CY_SCB_IS_INTR_VALID(config->masterSlaveIntEnableMask, CY_SCB_SPI_MASTER_SLAVE_INT
  76:Generated_Source\PSoC6\pdl\drivers\peripheral\scb/cy_scb_spi.c **** 
  77:Generated_Source\PSoC6\pdl\drivers\peripheral\scb/cy_scb_spi.c ****     uint32_t locSclkMode = CY_SCB_SPI_GetSclkMode(config->subMode, config->sclkMode);
  50              		.loc 1 77 0 is_stmt 1
  51 0010 91F80190 		ldrb	r9, [r1, #1]	@ zero_extendqisi2
  52 0014 8B78     		ldrb	r3, [r1, #2]	@ zero_extendqisi2
  53              	.LVL1:
  54              	.LBB124:
  55              	.LBB125:
  56              		.file 2 "Generated_Source\\PSoC6\\pdl\\drivers\\peripheral\\scb\\cy_scb_spi.h"
   1:Generated_Source\PSoC6\pdl\drivers\peripheral\scb/cy_scb_spi.h **** /***************************************************************************//**
   2:Generated_Source\PSoC6\pdl\drivers\peripheral\scb/cy_scb_spi.h **** * \file cy_scb_spi.h
   3:Generated_Source\PSoC6\pdl\drivers\peripheral\scb/cy_scb_spi.h **** * \version 2.20
   4:Generated_Source\PSoC6\pdl\drivers\peripheral\scb/cy_scb_spi.h **** *
   5:Generated_Source\PSoC6\pdl\drivers\peripheral\scb/cy_scb_spi.h **** * Provides SPI API declarations of the SCB driver.
   6:Generated_Source\PSoC6\pdl\drivers\peripheral\scb/cy_scb_spi.h **** *
   7:Generated_Source\PSoC6\pdl\drivers\peripheral\scb/cy_scb_spi.h **** ********************************************************************************
   8:Generated_Source\PSoC6\pdl\drivers\peripheral\scb/cy_scb_spi.h **** * \copyright
   9:Generated_Source\PSoC6\pdl\drivers\peripheral\scb/cy_scb_spi.h **** * Copyright 2016-2018, Cypress Semiconductor Corporation.  All rights reserved.
  10:Generated_Source\PSoC6\pdl\drivers\peripheral\scb/cy_scb_spi.h **** * You may use this file only in accordance with the license, terms, conditions,
  11:Generated_Source\PSoC6\pdl\drivers\peripheral\scb/cy_scb_spi.h **** * disclaimers, and limitations in the end user license agreement accompanying
  12:Generated_Source\PSoC6\pdl\drivers\peripheral\scb/cy_scb_spi.h **** * the software package with which this file was provided.
  13:Generated_Source\PSoC6\pdl\drivers\peripheral\scb/cy_scb_spi.h **** *******************************************************************************/
  14:Generated_Source\PSoC6\pdl\drivers\peripheral\scb/cy_scb_spi.h **** 
  15:Generated_Source\PSoC6\pdl\drivers\peripheral\scb/cy_scb_spi.h **** /**
  16:Generated_Source\PSoC6\pdl\drivers\peripheral\scb/cy_scb_spi.h **** * \addtogroup group_scb_spi
  17:Generated_Source\PSoC6\pdl\drivers\peripheral\scb/cy_scb_spi.h **** * \{
  18:Generated_Source\PSoC6\pdl\drivers\peripheral\scb/cy_scb_spi.h **** * Driver API for SPI Peripheral.
  19:Generated_Source\PSoC6\pdl\drivers\peripheral\scb/cy_scb_spi.h **** *
  20:Generated_Source\PSoC6\pdl\drivers\peripheral\scb/cy_scb_spi.h **** * The functions and other declarations used in this part of the driver are in 
  21:Generated_Source\PSoC6\pdl\drivers\peripheral\scb/cy_scb_spi.h **** * cy_scb_spi.h. You can also include cy_pdl.h (ModusToolbox only) to get access 
  22:Generated_Source\PSoC6\pdl\drivers\peripheral\scb/cy_scb_spi.h **** * to all functions and declarations in the PDL.
  23:Generated_Source\PSoC6\pdl\drivers\peripheral\scb/cy_scb_spi.h **** *
  24:Generated_Source\PSoC6\pdl\drivers\peripheral\scb/cy_scb_spi.h **** * The SPI protocol is a synchronous serial interface protocol. Devices operate 
  25:Generated_Source\PSoC6\pdl\drivers\peripheral\scb/cy_scb_spi.h **** * in either master or slave mode. The master initiates the data transfer. 
  26:Generated_Source\PSoC6\pdl\drivers\peripheral\scb/cy_scb_spi.h **** * The SCB supports single-master-multiple-slaves topology for SPI. Multiple 
  27:Generated_Source\PSoC6\pdl\drivers\peripheral\scb/cy_scb_spi.h **** * slaves are supported with individual slave select lines.
  28:Generated_Source\PSoC6\pdl\drivers\peripheral\scb/cy_scb_spi.h **** *
  29:Generated_Source\PSoC6\pdl\drivers\peripheral\scb/cy_scb_spi.h **** * Features:
  30:Generated_Source\PSoC6\pdl\drivers\peripheral\scb/cy_scb_spi.h **** * * Supports master and slave functionalitySupports three types of SPI protocols:
  31:Generated_Source\PSoC6\pdl\drivers\peripheral\scb/cy_scb_spi.h **** *  * Motorola SPI - modes 0, 1, 2, and 3
  32:Generated_Source\PSoC6\pdl\drivers\peripheral\scb/cy_scb_spi.h **** *  * Texas Instruments SPI, with coinciding and preceding data frame indicator - mode 1 only
  33:Generated_Source\PSoC6\pdl\drivers\peripheral\scb/cy_scb_spi.h **** *  * National Semiconductor (MicroWire) SPI - mode 0 only
  34:Generated_Source\PSoC6\pdl\drivers\peripheral\scb/cy_scb_spi.h **** * * Master supports up to four slave select lines
  35:Generated_Source\PSoC6\pdl\drivers\peripheral\scb/cy_scb_spi.h **** *   * Each slave select has configurable active polarity (high or low)
  36:Generated_Source\PSoC6\pdl\drivers\peripheral\scb/cy_scb_spi.h **** *   * Slave select can be programmed to stay active for a whole transfer, or 
  37:Generated_Source\PSoC6\pdl\drivers\peripheral\scb/cy_scb_spi.h **** *     just for each byte
  38:Generated_Source\PSoC6\pdl\drivers\peripheral\scb/cy_scb_spi.h **** * * Master supports late sampling for better timing margin
ARM GAS  C:\Users\mcfdo\AppData\Local\Temp\ccxaSBqv.s 			page 4


  39:Generated_Source\PSoC6\pdl\drivers\peripheral\scb/cy_scb_spi.h **** * * Master supports continuous SPI clock
  40:Generated_Source\PSoC6\pdl\drivers\peripheral\scb/cy_scb_spi.h **** * * Data frame size programmable from 4 bits to 16 bits
  41:Generated_Source\PSoC6\pdl\drivers\peripheral\scb/cy_scb_spi.h **** * * Programmable oversampling
  42:Generated_Source\PSoC6\pdl\drivers\peripheral\scb/cy_scb_spi.h **** * * MSb or LSb first
  43:Generated_Source\PSoC6\pdl\drivers\peripheral\scb/cy_scb_spi.h **** * * Median filter available for inputs
  44:Generated_Source\PSoC6\pdl\drivers\peripheral\scb/cy_scb_spi.h **** *
  45:Generated_Source\PSoC6\pdl\drivers\peripheral\scb/cy_scb_spi.h **** ********************************************************************************
  46:Generated_Source\PSoC6\pdl\drivers\peripheral\scb/cy_scb_spi.h **** * \section group_scb_spi_configuration Configuration Considerations
  47:Generated_Source\PSoC6\pdl\drivers\peripheral\scb/cy_scb_spi.h **** ********************************************************************************
  48:Generated_Source\PSoC6\pdl\drivers\peripheral\scb/cy_scb_spi.h **** * The SPI driver configuration can be divided to number of sequential
  49:Generated_Source\PSoC6\pdl\drivers\peripheral\scb/cy_scb_spi.h **** * steps listed below:
  50:Generated_Source\PSoC6\pdl\drivers\peripheral\scb/cy_scb_spi.h **** * * \ref group_scb_spi_config
  51:Generated_Source\PSoC6\pdl\drivers\peripheral\scb/cy_scb_spi.h **** * * \ref group_scb_spi_pins
  52:Generated_Source\PSoC6\pdl\drivers\peripheral\scb/cy_scb_spi.h **** * * \ref group_scb_spi_clock
  53:Generated_Source\PSoC6\pdl\drivers\peripheral\scb/cy_scb_spi.h **** * * \ref group_scb_spi_data_rate
  54:Generated_Source\PSoC6\pdl\drivers\peripheral\scb/cy_scb_spi.h **** * * \ref group_scb_spi_intr
  55:Generated_Source\PSoC6\pdl\drivers\peripheral\scb/cy_scb_spi.h **** * * \ref group_scb_spi_enable
  56:Generated_Source\PSoC6\pdl\drivers\peripheral\scb/cy_scb_spi.h **** *
  57:Generated_Source\PSoC6\pdl\drivers\peripheral\scb/cy_scb_spi.h **** * \note
  58:Generated_Source\PSoC6\pdl\drivers\peripheral\scb/cy_scb_spi.h **** * The SPI driver is built on top of the SCB hardware block. The SCB1 instance is
  59:Generated_Source\PSoC6\pdl\drivers\peripheral\scb/cy_scb_spi.h **** * used as an example for all code snippets. Modify the code to match your
  60:Generated_Source\PSoC6\pdl\drivers\peripheral\scb/cy_scb_spi.h **** * design.
  61:Generated_Source\PSoC6\pdl\drivers\peripheral\scb/cy_scb_spi.h **** *
  62:Generated_Source\PSoC6\pdl\drivers\peripheral\scb/cy_scb_spi.h **** ********************************************************************************
  63:Generated_Source\PSoC6\pdl\drivers\peripheral\scb/cy_scb_spi.h **** * \subsection group_scb_spi_config Configure SPI
  64:Generated_Source\PSoC6\pdl\drivers\peripheral\scb/cy_scb_spi.h **** ********************************************************************************
  65:Generated_Source\PSoC6\pdl\drivers\peripheral\scb/cy_scb_spi.h **** * To set up the SPI driver, provide the configuration parameters in the
  66:Generated_Source\PSoC6\pdl\drivers\peripheral\scb/cy_scb_spi.h **** * \ref cy_stc_scb_spi_config_t structure. For example: provide spiMode,
  67:Generated_Source\PSoC6\pdl\drivers\peripheral\scb/cy_scb_spi.h **** * subMode, sclkMode, oversample, rxDataWidth, and txDataWidth. The other
  68:Generated_Source\PSoC6\pdl\drivers\peripheral\scb/cy_scb_spi.h **** * parameters are optional for operation. To initialize the driver, call
  69:Generated_Source\PSoC6\pdl\drivers\peripheral\scb/cy_scb_spi.h **** * \ref Cy_SCB_SPI_Init function providing a pointer to the populated
  70:Generated_Source\PSoC6\pdl\drivers\peripheral\scb/cy_scb_spi.h **** * \ref cy_stc_scb_spi_config_t structure and the allocated 
  71:Generated_Source\PSoC6\pdl\drivers\peripheral\scb/cy_scb_spi.h **** * \ref cy_stc_scb_spi_context_t structure.
  72:Generated_Source\PSoC6\pdl\drivers\peripheral\scb/cy_scb_spi.h **** *
  73:Generated_Source\PSoC6\pdl\drivers\peripheral\scb/cy_scb_spi.h **** * \snippet SCB_CompDatasheet_sut_01_revA.cydsn\spi_snippets.c SPI_CFG
  74:Generated_Source\PSoC6\pdl\drivers\peripheral\scb/cy_scb_spi.h **** *
  75:Generated_Source\PSoC6\pdl\drivers\peripheral\scb/cy_scb_spi.h **** ********************************************************************************
  76:Generated_Source\PSoC6\pdl\drivers\peripheral\scb/cy_scb_spi.h **** * \subsection group_scb_spi_pins Assign and Configure Pins
  77:Generated_Source\PSoC6\pdl\drivers\peripheral\scb/cy_scb_spi.h **** ********************************************************************************
  78:Generated_Source\PSoC6\pdl\drivers\peripheral\scb/cy_scb_spi.h **** * Only dedicated SCB pins can be used for SPI operation. The HSIOM
  79:Generated_Source\PSoC6\pdl\drivers\peripheral\scb/cy_scb_spi.h **** * register must be configured to connect dedicated SCB SPI pins to the 
  80:Generated_Source\PSoC6\pdl\drivers\peripheral\scb/cy_scb_spi.h **** * SCB block. Also, the SPI output pins must be configured in Strong Drive Input 
  81:Generated_Source\PSoC6\pdl\drivers\peripheral\scb/cy_scb_spi.h **** * Off mode and SPI input pins in Digital High-Z.
  82:Generated_Source\PSoC6\pdl\drivers\peripheral\scb/cy_scb_spi.h **** *
  83:Generated_Source\PSoC6\pdl\drivers\peripheral\scb/cy_scb_spi.h **** * \snippet SCB_CompDatasheet_sut_01_revA.cydsn\spi_snippets.c SPI_CFG_PINS
  84:Generated_Source\PSoC6\pdl\drivers\peripheral\scb/cy_scb_spi.h **** *
  85:Generated_Source\PSoC6\pdl\drivers\peripheral\scb/cy_scb_spi.h **** ********************************************************************************
  86:Generated_Source\PSoC6\pdl\drivers\peripheral\scb/cy_scb_spi.h **** * \subsection group_scb_spi_clock Assign Clock Divider
  87:Generated_Source\PSoC6\pdl\drivers\peripheral\scb/cy_scb_spi.h **** ********************************************************************************
  88:Generated_Source\PSoC6\pdl\drivers\peripheral\scb/cy_scb_spi.h **** * A clock source must be connected to the SCB block to oversample input and
  89:Generated_Source\PSoC6\pdl\drivers\peripheral\scb/cy_scb_spi.h **** * output signals, in this document this clock will be referred as clk_scb.
  90:Generated_Source\PSoC6\pdl\drivers\peripheral\scb/cy_scb_spi.h **** * You must use one of the 8-bit or 16-bit dividers. Use the \ref group_sysclk 
  91:Generated_Source\PSoC6\pdl\drivers\peripheral\scb/cy_scb_spi.h **** * driver API to do this.
  92:Generated_Source\PSoC6\pdl\drivers\peripheral\scb/cy_scb_spi.h **** *
  93:Generated_Source\PSoC6\pdl\drivers\peripheral\scb/cy_scb_spi.h **** * \snippet SCB_CompDatasheet_sut_01_revA.cydsn\spi_snippets.c SPI_CFG_ASSIGN_CLOCK
  94:Generated_Source\PSoC6\pdl\drivers\peripheral\scb/cy_scb_spi.h **** *
  95:Generated_Source\PSoC6\pdl\drivers\peripheral\scb/cy_scb_spi.h **** ********************************************************************************
ARM GAS  C:\Users\mcfdo\AppData\Local\Temp\ccxaSBqv.s 			page 5


  96:Generated_Source\PSoC6\pdl\drivers\peripheral\scb/cy_scb_spi.h **** * \subsection group_scb_spi_data_rate Configure Data Rate
  97:Generated_Source\PSoC6\pdl\drivers\peripheral\scb/cy_scb_spi.h **** ********************************************************************************
  98:Generated_Source\PSoC6\pdl\drivers\peripheral\scb/cy_scb_spi.h **** * To get the SPI slave to operate with the desired data rate, the clk_scb must be
  99:Generated_Source\PSoC6\pdl\drivers\peripheral\scb/cy_scb_spi.h **** * fast enough to provide sufficient oversampling. Use the \ref group_sysclk driver 
 100:Generated_Source\PSoC6\pdl\drivers\peripheral\scb/cy_scb_spi.h **** * API to do that.
 101:Generated_Source\PSoC6\pdl\drivers\peripheral\scb/cy_scb_spi.h **** *
 102:Generated_Source\PSoC6\pdl\drivers\peripheral\scb/cy_scb_spi.h **** * \snippet SCB_CompDatasheet_sut_01_revA.cydsn\spi_snippets.c SPI_CFG_DATA_RATE_SLAVE
 103:Generated_Source\PSoC6\pdl\drivers\peripheral\scb/cy_scb_spi.h **** *
 104:Generated_Source\PSoC6\pdl\drivers\peripheral\scb/cy_scb_spi.h **** * To get the SPI master to operate with the desired data rate, multiply the 
 105:Generated_Source\PSoC6\pdl\drivers\peripheral\scb/cy_scb_spi.h **** * oversample factor by the desired data rate to determine the required 
 106:Generated_Source\PSoC6\pdl\drivers\peripheral\scb/cy_scb_spi.h **** * frequency for clk_scb. Use the \ref group_sysclk driver API to configure 
 107:Generated_Source\PSoC6\pdl\drivers\peripheral\scb/cy_scb_spi.h **** * clk_scb frequency. Set the <em><b>oversample parameter in configuration 
 108:Generated_Source\PSoC6\pdl\drivers\peripheral\scb/cy_scb_spi.h **** * structure</b></em> to define number of SCB clocks in one SCLK period. 
 109:Generated_Source\PSoC6\pdl\drivers\peripheral\scb/cy_scb_spi.h **** * When this value is even, the first and second phases of the SCLK period are 
 110:Generated_Source\PSoC6\pdl\drivers\peripheral\scb/cy_scb_spi.h **** * the same. Otherwise, the first phase is one SCB clock cycle longer than the 
 111:Generated_Source\PSoC6\pdl\drivers\peripheral\scb/cy_scb_spi.h **** * second phase. The level of the first phase of the clock period depends on CPOL
 112:Generated_Source\PSoC6\pdl\drivers\peripheral\scb/cy_scb_spi.h **** * settings: 0 - low level and 1 - high level.
 113:Generated_Source\PSoC6\pdl\drivers\peripheral\scb/cy_scb_spi.h **** *
 114:Generated_Source\PSoC6\pdl\drivers\peripheral\scb/cy_scb_spi.h **** * \snippet SCB_CompDatasheet_sut_01_revA.cydsn\spi_snippets.c SPI_CFG_DATA_RATE_MASTER
 115:Generated_Source\PSoC6\pdl\drivers\peripheral\scb/cy_scb_spi.h **** *
 116:Generated_Source\PSoC6\pdl\drivers\peripheral\scb/cy_scb_spi.h **** * <b>Refer to the technical reference manual (TRM) section SPI sub-section
 117:Generated_Source\PSoC6\pdl\drivers\peripheral\scb/cy_scb_spi.h **** * Oversampling and Bit Rate to get information about how to configure SPI to run 
 118:Generated_Source\PSoC6\pdl\drivers\peripheral\scb/cy_scb_spi.h **** * with desired data rate</b>.
 119:Generated_Source\PSoC6\pdl\drivers\peripheral\scb/cy_scb_spi.h **** *
 120:Generated_Source\PSoC6\pdl\drivers\peripheral\scb/cy_scb_spi.h **** ********************************************************************************
 121:Generated_Source\PSoC6\pdl\drivers\peripheral\scb/cy_scb_spi.h **** * \subsection group_scb_spi_intr Configure Interrupt
 122:Generated_Source\PSoC6\pdl\drivers\peripheral\scb/cy_scb_spi.h **** ********************************************************************************
 123:Generated_Source\PSoC6\pdl\drivers\peripheral\scb/cy_scb_spi.h **** * The interrupt is optional for the SPI operation. To configure the interrupt,
 124:Generated_Source\PSoC6\pdl\drivers\peripheral\scb/cy_scb_spi.h **** * the \ref Cy_SCB_SPI_Interrupt function must be called in the interrupt
 125:Generated_Source\PSoC6\pdl\drivers\peripheral\scb/cy_scb_spi.h **** * handler for the selected SCB instance. Also, this interrupt must be enabled
 126:Generated_Source\PSoC6\pdl\drivers\peripheral\scb/cy_scb_spi.h **** * in the NVIC.
 127:Generated_Source\PSoC6\pdl\drivers\peripheral\scb/cy_scb_spi.h **** * The interrupt must be configured when \ref group_scb_spi_hl will be used.
 128:Generated_Source\PSoC6\pdl\drivers\peripheral\scb/cy_scb_spi.h **** *
 129:Generated_Source\PSoC6\pdl\drivers\peripheral\scb/cy_scb_spi.h **** * \snippet SCB_CompDatasheet_sut_01_revA.cydsn\spi_snippets.c SPI_INTR_A
 130:Generated_Source\PSoC6\pdl\drivers\peripheral\scb/cy_scb_spi.h **** * \snippet SCB_CompDatasheet_sut_01_revA.cydsn\spi_snippets.c SPI_INTR_B
 131:Generated_Source\PSoC6\pdl\drivers\peripheral\scb/cy_scb_spi.h **** *
 132:Generated_Source\PSoC6\pdl\drivers\peripheral\scb/cy_scb_spi.h **** ********************************************************************************
 133:Generated_Source\PSoC6\pdl\drivers\peripheral\scb/cy_scb_spi.h **** * \subsection group_scb_spi_enable Enable SPI
 134:Generated_Source\PSoC6\pdl\drivers\peripheral\scb/cy_scb_spi.h **** ********************************************************************************
 135:Generated_Source\PSoC6\pdl\drivers\peripheral\scb/cy_scb_spi.h **** * Finally, enable the SPI operation by calling \ref Cy_SCB_SPI_Enable.
 136:Generated_Source\PSoC6\pdl\drivers\peripheral\scb/cy_scb_spi.h **** * For the slave, this means that SPI device starts responding to the transfers.
 137:Generated_Source\PSoC6\pdl\drivers\peripheral\scb/cy_scb_spi.h **** * For the master, it is ready to execute transfers.
 138:Generated_Source\PSoC6\pdl\drivers\peripheral\scb/cy_scb_spi.h **** *
 139:Generated_Source\PSoC6\pdl\drivers\peripheral\scb/cy_scb_spi.h **** * \snippet SCB_CompDatasheet_sut_01_revA.cydsn\spi_snippets.c SPI_ENABLE
 140:Generated_Source\PSoC6\pdl\drivers\peripheral\scb/cy_scb_spi.h **** *
 141:Generated_Source\PSoC6\pdl\drivers\peripheral\scb/cy_scb_spi.h **** ********************************************************************************
 142:Generated_Source\PSoC6\pdl\drivers\peripheral\scb/cy_scb_spi.h **** * \section group_scb_spi_use_cases Common Use Cases
 143:Generated_Source\PSoC6\pdl\drivers\peripheral\scb/cy_scb_spi.h **** ********************************************************************************
 144:Generated_Source\PSoC6\pdl\drivers\peripheral\scb/cy_scb_spi.h **** * The SPI API is the same for the master and slave mode operation and
 145:Generated_Source\PSoC6\pdl\drivers\peripheral\scb/cy_scb_spi.h **** * is divided into two categories: \ref group_scb_spi_low_level_functions
 146:Generated_Source\PSoC6\pdl\drivers\peripheral\scb/cy_scb_spi.h **** * and \ref group_scb_spi_high_level_functions. \n
 147:Generated_Source\PSoC6\pdl\drivers\peripheral\scb/cy_scb_spi.h **** * <em>Do not mix <b>High-Level</b> and <b>Low-Level</b> API because a Low-Level
 148:Generated_Source\PSoC6\pdl\drivers\peripheral\scb/cy_scb_spi.h **** * API can adversely affect the operation of a High-Level API.</em>
 149:Generated_Source\PSoC6\pdl\drivers\peripheral\scb/cy_scb_spi.h **** *
 150:Generated_Source\PSoC6\pdl\drivers\peripheral\scb/cy_scb_spi.h **** ********************************************************************************
 151:Generated_Source\PSoC6\pdl\drivers\peripheral\scb/cy_scb_spi.h **** * \subsection group_scb_spi_ll Low-Level API
 152:Generated_Source\PSoC6\pdl\drivers\peripheral\scb/cy_scb_spi.h **** ********************************************************************************
ARM GAS  C:\Users\mcfdo\AppData\Local\Temp\ccxaSBqv.s 			page 6


 153:Generated_Source\PSoC6\pdl\drivers\peripheral\scb/cy_scb_spi.h **** * The \ref group_scb_spi_low_level_functions functions allow
 154:Generated_Source\PSoC6\pdl\drivers\peripheral\scb/cy_scb_spi.h **** * interacting directly with the hardware and do not use \ref Cy_SCB_SPI_Interrupt.
 155:Generated_Source\PSoC6\pdl\drivers\peripheral\scb/cy_scb_spi.h **** * These functions do not require context for operation. Thus, NULL can be
 156:Generated_Source\PSoC6\pdl\drivers\peripheral\scb/cy_scb_spi.h **** * passed for context parameter in \ref Cy_SCB_SPI_Init and \ref Cy_SCB_SPI_Disable 
 157:Generated_Source\PSoC6\pdl\drivers\peripheral\scb/cy_scb_spi.h **** * instead of a pointer to the context structure.
 158:Generated_Source\PSoC6\pdl\drivers\peripheral\scb/cy_scb_spi.h **** *
 159:Generated_Source\PSoC6\pdl\drivers\peripheral\scb/cy_scb_spi.h **** * * To write data into the TX FIFO, use one of the provided functions:
 160:Generated_Source\PSoC6\pdl\drivers\peripheral\scb/cy_scb_spi.h **** *   \ref Cy_SCB_SPI_Write, \ref Cy_SCB_SPI_WriteArray or
 161:Generated_Source\PSoC6\pdl\drivers\peripheral\scb/cy_scb_spi.h **** *   \ref Cy_SCB_SPI_WriteArrayBlocking.
 162:Generated_Source\PSoC6\pdl\drivers\peripheral\scb/cy_scb_spi.h **** *   Note that in the master mode, putting data into the TX FIFO starts a
 163:Generated_Source\PSoC6\pdl\drivers\peripheral\scb/cy_scb_spi.h **** *   transfer. Due to the nature of SPI, the received data is put into the RX FIFO.
 164:Generated_Source\PSoC6\pdl\drivers\peripheral\scb/cy_scb_spi.h **** *
 165:Generated_Source\PSoC6\pdl\drivers\peripheral\scb/cy_scb_spi.h **** * * To read data from the RX FIFO, use one of the provided functions:
 166:Generated_Source\PSoC6\pdl\drivers\peripheral\scb/cy_scb_spi.h **** *   \ref Cy_SCB_SPI_Read or \ref Cy_SCB_SPI_ReadArray. Again due to the nature 
 167:Generated_Source\PSoC6\pdl\drivers\peripheral\scb/cy_scb_spi.h **** *   of SPI these functions do not start a transfer on the bus, they only read 
 168:Generated_Source\PSoC6\pdl\drivers\peripheral\scb/cy_scb_spi.h **** *   data out of the RX FIFO that has already been received.
 169:Generated_Source\PSoC6\pdl\drivers\peripheral\scb/cy_scb_spi.h **** *
 170:Generated_Source\PSoC6\pdl\drivers\peripheral\scb/cy_scb_spi.h **** * * The statuses can be polled using: \ref Cy_SCB_SPI_GetRxFifoStatus,
 171:Generated_Source\PSoC6\pdl\drivers\peripheral\scb/cy_scb_spi.h **** *   \ref Cy_SCB_SPI_GetTxFifoStatus and \ref Cy_SCB_SPI_GetSlaveMasterStatus.
 172:Generated_Source\PSoC6\pdl\drivers\peripheral\scb/cy_scb_spi.h **** *   <em>The statuses are <b>W1C (Write 1 to Clear)</b> and after a status
 173:Generated_Source\PSoC6\pdl\drivers\peripheral\scb/cy_scb_spi.h **** *   is set, it must be cleared.</em> Note that there are statuses evaluated as level.
 174:Generated_Source\PSoC6\pdl\drivers\peripheral\scb/cy_scb_spi.h **** *   These statuses remain set until an event is true. Therefore, after the clear
 175:Generated_Source\PSoC6\pdl\drivers\peripheral\scb/cy_scb_spi.h **** *   operation, the status is cleared but then it is restored (if the event is still
 176:Generated_Source\PSoC6\pdl\drivers\peripheral\scb/cy_scb_spi.h **** *   true).
 177:Generated_Source\PSoC6\pdl\drivers\peripheral\scb/cy_scb_spi.h **** *   Also, the following functions can be used for polling as well
 178:Generated_Source\PSoC6\pdl\drivers\peripheral\scb/cy_scb_spi.h **** *   \ref Cy_SCB_SPI_IsBusBusy, \ref Cy_SCB_SPI_IsTxComplete,
 179:Generated_Source\PSoC6\pdl\drivers\peripheral\scb/cy_scb_spi.h **** *   \ref Cy_SCB_SPI_GetNumInRxFifo and \ref Cy_SCB_SPI_GetNumInTxFifo.
 180:Generated_Source\PSoC6\pdl\drivers\peripheral\scb/cy_scb_spi.h **** *
 181:Generated_Source\PSoC6\pdl\drivers\peripheral\scb/cy_scb_spi.h **** * \snippet SCB_CompDatasheet_sut_01_revA.cydsn\spi_snippets.c SPI_TRANFER_DATA_LL
 182:Generated_Source\PSoC6\pdl\drivers\peripheral\scb/cy_scb_spi.h **** *
 183:Generated_Source\PSoC6\pdl\drivers\peripheral\scb/cy_scb_spi.h **** ********************************************************************************
 184:Generated_Source\PSoC6\pdl\drivers\peripheral\scb/cy_scb_spi.h **** * \subsection group_scb_spi_hl High-Level API
 185:Generated_Source\PSoC6\pdl\drivers\peripheral\scb/cy_scb_spi.h **** ********************************************************************************
 186:Generated_Source\PSoC6\pdl\drivers\peripheral\scb/cy_scb_spi.h **** * The \ref group_scb_spi_high_level_functions API use \ref Cy_SCB_SPI_Interrupt
 187:Generated_Source\PSoC6\pdl\drivers\peripheral\scb/cy_scb_spi.h **** * to execute the transfer. Call \ref Cy_SCB_SPI_Transfer to start communication: for master 
 188:Generated_Source\PSoC6\pdl\drivers\peripheral\scb/cy_scb_spi.h **** * mode calling this function starts a transaction with the slave. For slave mode 
 189:Generated_Source\PSoC6\pdl\drivers\peripheral\scb/cy_scb_spi.h **** * the read and write buffers are prepared for the communication with the master.
 190:Generated_Source\PSoC6\pdl\drivers\peripheral\scb/cy_scb_spi.h **** * After a transfer is started, the \ref Cy_SCB_SPI_Interrupt handles the
 191:Generated_Source\PSoC6\pdl\drivers\peripheral\scb/cy_scb_spi.h **** * transfer until its completion. Therefore, the \ref Cy_SCB_SPI_Interrupt function 
 192:Generated_Source\PSoC6\pdl\drivers\peripheral\scb/cy_scb_spi.h **** * must be called inside the user interrupt handler to make the High-Level API work. 
 193:Generated_Source\PSoC6\pdl\drivers\peripheral\scb/cy_scb_spi.h **** * To monitor the status of the transfer operation, use \ref Cy_SCB_SPI_GetTransferStatus.
 194:Generated_Source\PSoC6\pdl\drivers\peripheral\scb/cy_scb_spi.h **** * Alternatively, use \ref Cy_SCB_SPI_RegisterCallback to register a callback
 195:Generated_Source\PSoC6\pdl\drivers\peripheral\scb/cy_scb_spi.h **** * function to be notified about \ref group_scb_spi_macros_callback_events.
 196:Generated_Source\PSoC6\pdl\drivers\peripheral\scb/cy_scb_spi.h **** *
 197:Generated_Source\PSoC6\pdl\drivers\peripheral\scb/cy_scb_spi.h **** * \snippet SCB_CompDatasheet_sut_01_revA.cydsn\spi_snippets.c SPI_TRANFER_DATA
 198:Generated_Source\PSoC6\pdl\drivers\peripheral\scb/cy_scb_spi.h **** *
 199:Generated_Source\PSoC6\pdl\drivers\peripheral\scb/cy_scb_spi.h **** ********************************************************************************
 200:Generated_Source\PSoC6\pdl\drivers\peripheral\scb/cy_scb_spi.h **** * \section group_scb_spi_dma_trig DMA Trigger
 201:Generated_Source\PSoC6\pdl\drivers\peripheral\scb/cy_scb_spi.h **** ********************************************************************************
 202:Generated_Source\PSoC6\pdl\drivers\peripheral\scb/cy_scb_spi.h **** * The SCB provides TX and RX output trigger signals that can be routed to the
 203:Generated_Source\PSoC6\pdl\drivers\peripheral\scb/cy_scb_spi.h **** * DMA controller inputs. These signals are assigned based on the data availability
 204:Generated_Source\PSoC6\pdl\drivers\peripheral\scb/cy_scb_spi.h **** * in the TX and RX FIFOs appropriately.
 205:Generated_Source\PSoC6\pdl\drivers\peripheral\scb/cy_scb_spi.h **** *
 206:Generated_Source\PSoC6\pdl\drivers\peripheral\scb/cy_scb_spi.h **** * * The RX trigger signal is active while the number of data
 207:Generated_Source\PSoC6\pdl\drivers\peripheral\scb/cy_scb_spi.h **** *   elements in the RX FIFO is greater than the value of RX FIFO level. Use
 208:Generated_Source\PSoC6\pdl\drivers\peripheral\scb/cy_scb_spi.h **** *   function \ref Cy_SCB_SetRxFifoLevel or set configuration structure
 209:Generated_Source\PSoC6\pdl\drivers\peripheral\scb/cy_scb_spi.h **** *   rxFifoTriggerLevel parameter to configure RX FIFO level value. \n
ARM GAS  C:\Users\mcfdo\AppData\Local\Temp\ccxaSBqv.s 			page 7


 210:Generated_Source\PSoC6\pdl\drivers\peripheral\scb/cy_scb_spi.h **** *   <em>For example, the RX FIFO has 8 data elements and the RX FIFO level is 0.
 211:Generated_Source\PSoC6\pdl\drivers\peripheral\scb/cy_scb_spi.h **** *   The RX trigger signal is active until DMA reads all data from
 212:Generated_Source\PSoC6\pdl\drivers\peripheral\scb/cy_scb_spi.h **** *   the RX FIFO.</em>
 213:Generated_Source\PSoC6\pdl\drivers\peripheral\scb/cy_scb_spi.h **** *
 214:Generated_Source\PSoC6\pdl\drivers\peripheral\scb/cy_scb_spi.h **** * * The TX trigger signal is active while the number of data elements
 215:Generated_Source\PSoC6\pdl\drivers\peripheral\scb/cy_scb_spi.h **** *   in the TX FIFO is less than the value of TX FIFO level. Use function
 216:Generated_Source\PSoC6\pdl\drivers\peripheral\scb/cy_scb_spi.h **** *   \ref Cy_SCB_SetTxFifoLevel or set configuration structure txFifoTriggerLevel
 217:Generated_Source\PSoC6\pdl\drivers\peripheral\scb/cy_scb_spi.h **** *   parameter to configure TX FIFO level value. \n
 218:Generated_Source\PSoC6\pdl\drivers\peripheral\scb/cy_scb_spi.h **** *   <em>For example, the TX FIFO has 0 data elements (empty) and the TX FIFO level
 219:Generated_Source\PSoC6\pdl\drivers\peripheral\scb/cy_scb_spi.h **** *   is 7. The TX trigger signal is active until DMA loads TX FIFO
 220:Generated_Source\PSoC6\pdl\drivers\peripheral\scb/cy_scb_spi.h **** *   with 8 data elements (note that after the first TX load operation, the data 
 221:Generated_Source\PSoC6\pdl\drivers\peripheral\scb/cy_scb_spi.h **** *   element goes to the shift register and TX FIFO is empty).</em>
 222:Generated_Source\PSoC6\pdl\drivers\peripheral\scb/cy_scb_spi.h **** *
 223:Generated_Source\PSoC6\pdl\drivers\peripheral\scb/cy_scb_spi.h **** * To route SCB TX or RX trigger signals to the DMA controller, use \ref group_trigmux
 224:Generated_Source\PSoC6\pdl\drivers\peripheral\scb/cy_scb_spi.h **** * driver API.
 225:Generated_Source\PSoC6\pdl\drivers\peripheral\scb/cy_scb_spi.h **** *
 226:Generated_Source\PSoC6\pdl\drivers\peripheral\scb/cy_scb_spi.h **** * \note
 227:Generated_Source\PSoC6\pdl\drivers\peripheral\scb/cy_scb_spi.h **** * To properly handle DMA level request signal activation and de-activation from the SCB
 228:Generated_Source\PSoC6\pdl\drivers\peripheral\scb/cy_scb_spi.h **** * peripheral block the DMA Descriptor typically must be configured to re-trigger
 229:Generated_Source\PSoC6\pdl\drivers\peripheral\scb/cy_scb_spi.h **** * after 16 Clk_Slow cycles.
 230:Generated_Source\PSoC6\pdl\drivers\peripheral\scb/cy_scb_spi.h **** *
 231:Generated_Source\PSoC6\pdl\drivers\peripheral\scb/cy_scb_spi.h **** ********************************************************************************
 232:Generated_Source\PSoC6\pdl\drivers\peripheral\scb/cy_scb_spi.h **** * \section group_scb_spi_lp Low Power Support
 233:Generated_Source\PSoC6\pdl\drivers\peripheral\scb/cy_scb_spi.h **** ********************************************************************************
 234:Generated_Source\PSoC6\pdl\drivers\peripheral\scb/cy_scb_spi.h **** * The SPI driver provides callback functions to handle power mode transitions.
 235:Generated_Source\PSoC6\pdl\drivers\peripheral\scb/cy_scb_spi.h **** * The callback \ref Cy_SCB_SPI_DeepSleepCallback must be called
 236:Generated_Source\PSoC6\pdl\drivers\peripheral\scb/cy_scb_spi.h **** * during execution of \ref Cy_SysPm_CpuEnterDeepSleep; \ref Cy_SCB_SPI_HibernateCallback
 237:Generated_Source\PSoC6\pdl\drivers\peripheral\scb/cy_scb_spi.h **** * must be called during execution of \ref Cy_SysPm_SystemEnterHibernate. To trigger the
 238:Generated_Source\PSoC6\pdl\drivers\peripheral\scb/cy_scb_spi.h **** * callback execution, the callback must be registered before calling the
 239:Generated_Source\PSoC6\pdl\drivers\peripheral\scb/cy_scb_spi.h **** * power mode transition function. Refer to \ref group_syspm driver for more
 240:Generated_Source\PSoC6\pdl\drivers\peripheral\scb/cy_scb_spi.h **** * information about power mode transitions and callback registration.
 241:Generated_Source\PSoC6\pdl\drivers\peripheral\scb/cy_scb_spi.h **** * 
 242:Generated_Source\PSoC6\pdl\drivers\peripheral\scb/cy_scb_spi.h **** * The SPI master is disabled during Deep Sleep and Hibernate and stops driving 
 243:Generated_Source\PSoC6\pdl\drivers\peripheral\scb/cy_scb_spi.h **** * the output pins. The state of the SPI master output pins SCLK, SS, and MOSI is 
 244:Generated_Source\PSoC6\pdl\drivers\peripheral\scb/cy_scb_spi.h **** * High-Z, which can cause unexpected behavior of the SPI Slave due to possible 
 245:Generated_Source\PSoC6\pdl\drivers\peripheral\scb/cy_scb_spi.h **** * glitches on these lines. These pins must keep the inactive level (the same state 
 246:Generated_Source\PSoC6\pdl\drivers\peripheral\scb/cy_scb_spi.h **** * when SPI master is enabled and does not transfer data) before entering Deep 
 247:Generated_Source\PSoC6\pdl\drivers\peripheral\scb/cy_scb_spi.h **** * Sleep or Hibernate mode. To do that, write the GPIO data register of each pin 
 248:Generated_Source\PSoC6\pdl\drivers\peripheral\scb/cy_scb_spi.h **** * to the inactive level for each output pin. Then configure High-Speed Input 
 249:Generated_Source\PSoC6\pdl\drivers\peripheral\scb/cy_scb_spi.h **** * Output Multiplexer (HSIOM) of each pin to be controlled by the GPIO (use 
 250:Generated_Source\PSoC6\pdl\drivers\peripheral\scb/cy_scb_spi.h **** * \ref group_gpio driver API). After after exiting Deep Sleep mode the SPI 
 251:Generated_Source\PSoC6\pdl\drivers\peripheral\scb/cy_scb_spi.h **** * master must be enabled and the pins configuration restored to return the 
 252:Generated_Source\PSoC6\pdl\drivers\peripheral\scb/cy_scb_spi.h **** * SPI master control of the pins (after exiting Hibernate mode, the 
 253:Generated_Source\PSoC6\pdl\drivers\peripheral\scb/cy_scb_spi.h **** * system initialization code does the same). Copy either or 
 254:Generated_Source\PSoC6\pdl\drivers\peripheral\scb/cy_scb_spi.h **** * both \ref Cy_SCB_SPI_DeepSleepCallback and \ref Cy_SCB_SPI_HibernateCallback 
 255:Generated_Source\PSoC6\pdl\drivers\peripheral\scb/cy_scb_spi.h **** * as appropriate, and make the changes described above inside the function.
 256:Generated_Source\PSoC6\pdl\drivers\peripheral\scb/cy_scb_spi.h **** * Alternately, external pull-up or pull-down resistors can be connected 
 257:Generated_Source\PSoC6\pdl\drivers\peripheral\scb/cy_scb_spi.h **** * to the appropriate SPI lines to keep them inactive during Deep-Sleep or 
 258:Generated_Source\PSoC6\pdl\drivers\peripheral\scb/cy_scb_spi.h **** * Hibernate.
 259:Generated_Source\PSoC6\pdl\drivers\peripheral\scb/cy_scb_spi.h **** *
 260:Generated_Source\PSoC6\pdl\drivers\peripheral\scb/cy_scb_spi.h **** * \note
 261:Generated_Source\PSoC6\pdl\drivers\peripheral\scb/cy_scb_spi.h **** * Only applicable for <b>rev-08 of the CY8CKIT-062-BLE</b>.
 262:Generated_Source\PSoC6\pdl\drivers\peripheral\scb/cy_scb_spi.h **** * For proper operation, when the SPI slave is configured to be a wakeup
 263:Generated_Source\PSoC6\pdl\drivers\peripheral\scb/cy_scb_spi.h **** * source from Deep Sleep mode, the \ref Cy_SCB_SPI_DeepSleepCallback must be
 264:Generated_Source\PSoC6\pdl\drivers\peripheral\scb/cy_scb_spi.h **** * copied and modified. Refer to the function description to get the details.
 265:Generated_Source\PSoC6\pdl\drivers\peripheral\scb/cy_scb_spi.h **** *
 266:Generated_Source\PSoC6\pdl\drivers\peripheral\scb/cy_scb_spi.h **** ********************************************************************************
ARM GAS  C:\Users\mcfdo\AppData\Local\Temp\ccxaSBqv.s 			page 8


 267:Generated_Source\PSoC6\pdl\drivers\peripheral\scb/cy_scb_spi.h **** * \section group_scb_spi_more_information More Information
 268:Generated_Source\PSoC6\pdl\drivers\peripheral\scb/cy_scb_spi.h **** ********************************************************************************
 269:Generated_Source\PSoC6\pdl\drivers\peripheral\scb/cy_scb_spi.h **** * For more information on the SCB peripheral, refer to the technical reference
 270:Generated_Source\PSoC6\pdl\drivers\peripheral\scb/cy_scb_spi.h **** * manual (TRM).
 271:Generated_Source\PSoC6\pdl\drivers\peripheral\scb/cy_scb_spi.h **** *
 272:Generated_Source\PSoC6\pdl\drivers\peripheral\scb/cy_scb_spi.h **** ********************************************************************************
 273:Generated_Source\PSoC6\pdl\drivers\peripheral\scb/cy_scb_spi.h **** * \section group_scb_spi_MISRA MISRA-C Compliance
 274:Generated_Source\PSoC6\pdl\drivers\peripheral\scb/cy_scb_spi.h **** ********************************************************************************
 275:Generated_Source\PSoC6\pdl\drivers\peripheral\scb/cy_scb_spi.h **** * <table class="doxtable">
 276:Generated_Source\PSoC6\pdl\drivers\peripheral\scb/cy_scb_spi.h **** *   <tr>
 277:Generated_Source\PSoC6\pdl\drivers\peripheral\scb/cy_scb_spi.h **** *     <th>MISRA Rule</th>
 278:Generated_Source\PSoC6\pdl\drivers\peripheral\scb/cy_scb_spi.h **** *     <th>Rule Class (Required/Advisory)</th>
 279:Generated_Source\PSoC6\pdl\drivers\peripheral\scb/cy_scb_spi.h **** *     <th>Rule Description</th>
 280:Generated_Source\PSoC6\pdl\drivers\peripheral\scb/cy_scb_spi.h **** *     <th>Description of Deviation(s)</th>
 281:Generated_Source\PSoC6\pdl\drivers\peripheral\scb/cy_scb_spi.h **** *   </tr>
 282:Generated_Source\PSoC6\pdl\drivers\peripheral\scb/cy_scb_spi.h **** *   <tr>
 283:Generated_Source\PSoC6\pdl\drivers\peripheral\scb/cy_scb_spi.h **** *     <td>11.4</td>
 284:Generated_Source\PSoC6\pdl\drivers\peripheral\scb/cy_scb_spi.h **** *     <td>A</td>
 285:Generated_Source\PSoC6\pdl\drivers\peripheral\scb/cy_scb_spi.h **** *     <td>A cast should not be performed between a pointer to object type and
 286:Generated_Source\PSoC6\pdl\drivers\peripheral\scb/cy_scb_spi.h **** *         a different pointer to object type.</td>
 287:Generated_Source\PSoC6\pdl\drivers\peripheral\scb/cy_scb_spi.h **** *     <td>
 288:Generated_Source\PSoC6\pdl\drivers\peripheral\scb/cy_scb_spi.h **** *         * The pointer to the buffer memory is void to allow handling
 289:Generated_Source\PSoC6\pdl\drivers\peripheral\scb/cy_scb_spi.h **** *         different data types: uint8_t (4-8 bits) or uint16_t (9-16 bits).
 290:Generated_Source\PSoC6\pdl\drivers\peripheral\scb/cy_scb_spi.h **** *         The cast operation is safe because the configuration is verified
 291:Generated_Source\PSoC6\pdl\drivers\peripheral\scb/cy_scb_spi.h **** *         before operation is performed.
 292:Generated_Source\PSoC6\pdl\drivers\peripheral\scb/cy_scb_spi.h **** *         * The functions \ref Cy_SCB_SPI_DeepSleepCallback and
 293:Generated_Source\PSoC6\pdl\drivers\peripheral\scb/cy_scb_spi.h **** *         \ref Cy_SCB_SPI_HibernateCallback are callback of
 294:Generated_Source\PSoC6\pdl\drivers\peripheral\scb/cy_scb_spi.h **** *         \ref cy_en_syspm_status_t type. The cast operation safety in these
 295:Generated_Source\PSoC6\pdl\drivers\peripheral\scb/cy_scb_spi.h **** *         functions becomes the user's responsibility because pointers are
 296:Generated_Source\PSoC6\pdl\drivers\peripheral\scb/cy_scb_spi.h **** *         initialized when callback is registered in SysPm driver.</td>
 297:Generated_Source\PSoC6\pdl\drivers\peripheral\scb/cy_scb_spi.h **** *   </tr>
 298:Generated_Source\PSoC6\pdl\drivers\peripheral\scb/cy_scb_spi.h **** *   <tr>
 299:Generated_Source\PSoC6\pdl\drivers\peripheral\scb/cy_scb_spi.h **** *     <td>13.7</td>
 300:Generated_Source\PSoC6\pdl\drivers\peripheral\scb/cy_scb_spi.h **** *     <td>R</td>
 301:Generated_Source\PSoC6\pdl\drivers\peripheral\scb/cy_scb_spi.h **** *     <td>Boolean operations whose results are invariant shall not be
 302:Generated_Source\PSoC6\pdl\drivers\peripheral\scb/cy_scb_spi.h **** *         permitted.</td>
 303:Generated_Source\PSoC6\pdl\drivers\peripheral\scb/cy_scb_spi.h **** *     <td>The SCB block parameters can be a constant false or true depends on
 304:Generated_Source\PSoC6\pdl\drivers\peripheral\scb/cy_scb_spi.h **** *         the selected device and cause this violation.</td>
 305:Generated_Source\PSoC6\pdl\drivers\peripheral\scb/cy_scb_spi.h **** *   </tr>
 306:Generated_Source\PSoC6\pdl\drivers\peripheral\scb/cy_scb_spi.h **** *   <tr>
 307:Generated_Source\PSoC6\pdl\drivers\peripheral\scb/cy_scb_spi.h **** *     <td>14.1</td>
 308:Generated_Source\PSoC6\pdl\drivers\peripheral\scb/cy_scb_spi.h **** *     <td>R</td>
 309:Generated_Source\PSoC6\pdl\drivers\peripheral\scb/cy_scb_spi.h **** *     <td>There shall be no unreachable code.</td>
 310:Generated_Source\PSoC6\pdl\drivers\peripheral\scb/cy_scb_spi.h **** *     <td>The SCB block parameters can be a constant false or true depends on
 311:Generated_Source\PSoC6\pdl\drivers\peripheral\scb/cy_scb_spi.h **** *         the selected device and cause code to be unreachable.</td>
 312:Generated_Source\PSoC6\pdl\drivers\peripheral\scb/cy_scb_spi.h **** *   </tr>
 313:Generated_Source\PSoC6\pdl\drivers\peripheral\scb/cy_scb_spi.h **** *   <tr>
 314:Generated_Source\PSoC6\pdl\drivers\peripheral\scb/cy_scb_spi.h **** *     <td>14.2</td>
 315:Generated_Source\PSoC6\pdl\drivers\peripheral\scb/cy_scb_spi.h **** *     <td>R</td>
 316:Generated_Source\PSoC6\pdl\drivers\peripheral\scb/cy_scb_spi.h **** *     <td>All non-null statements shall either: a) have at least one side-effect
 317:Generated_Source\PSoC6\pdl\drivers\peripheral\scb/cy_scb_spi.h **** *         however executed, or b) cause control flow to change.</td>
 318:Generated_Source\PSoC6\pdl\drivers\peripheral\scb/cy_scb_spi.h **** *     <td>The unused function parameters are cast to void. This statement
 319:Generated_Source\PSoC6\pdl\drivers\peripheral\scb/cy_scb_spi.h **** *         has no side-effect and is used to suppress a compiler warning.</td>
 320:Generated_Source\PSoC6\pdl\drivers\peripheral\scb/cy_scb_spi.h **** *   </tr>
 321:Generated_Source\PSoC6\pdl\drivers\peripheral\scb/cy_scb_spi.h **** *   <tr>
 322:Generated_Source\PSoC6\pdl\drivers\peripheral\scb/cy_scb_spi.h **** *     <td>14.7</td>
 323:Generated_Source\PSoC6\pdl\drivers\peripheral\scb/cy_scb_spi.h **** *     <td>R</td>
ARM GAS  C:\Users\mcfdo\AppData\Local\Temp\ccxaSBqv.s 			page 9


 324:Generated_Source\PSoC6\pdl\drivers\peripheral\scb/cy_scb_spi.h **** *     <td>A function shall have a single point of exit at the end of the
 325:Generated_Source\PSoC6\pdl\drivers\peripheral\scb/cy_scb_spi.h **** *         function.</td>
 326:Generated_Source\PSoC6\pdl\drivers\peripheral\scb/cy_scb_spi.h **** *     <td>The functions can return from several points. This is done to improve
 327:Generated_Source\PSoC6\pdl\drivers\peripheral\scb/cy_scb_spi.h **** *         code clarity when returning error status code if input parameters
 328:Generated_Source\PSoC6\pdl\drivers\peripheral\scb/cy_scb_spi.h **** *         validation is failed.</td>
 329:Generated_Source\PSoC6\pdl\drivers\peripheral\scb/cy_scb_spi.h **** *   </tr>
 330:Generated_Source\PSoC6\pdl\drivers\peripheral\scb/cy_scb_spi.h **** * </table>
 331:Generated_Source\PSoC6\pdl\drivers\peripheral\scb/cy_scb_spi.h **** *
 332:Generated_Source\PSoC6\pdl\drivers\peripheral\scb/cy_scb_spi.h **** * \section group_scb_spi_changelog Changelog
 333:Generated_Source\PSoC6\pdl\drivers\peripheral\scb/cy_scb_spi.h **** * <table class="doxtable">
 334:Generated_Source\PSoC6\pdl\drivers\peripheral\scb/cy_scb_spi.h **** *   <tr><th>Version</th><th>Changes</th><th>Reason for Change</th></tr>
 335:Generated_Source\PSoC6\pdl\drivers\peripheral\scb/cy_scb_spi.h **** *   <tr>
 336:Generated_Source\PSoC6\pdl\drivers\peripheral\scb/cy_scb_spi.h **** *     <td rowspan="2">2.20</td>
 337:Generated_Source\PSoC6\pdl\drivers\peripheral\scb/cy_scb_spi.h **** *     <td>Flattened the organization of the driver source code into the single 
 338:Generated_Source\PSoC6\pdl\drivers\peripheral\scb/cy_scb_spi.h **** *         source directory and the single include directory.
 339:Generated_Source\PSoC6\pdl\drivers\peripheral\scb/cy_scb_spi.h **** *     </td>
 340:Generated_Source\PSoC6\pdl\drivers\peripheral\scb/cy_scb_spi.h **** *     <td>Driver library directory-structure simplification.</td>
 341:Generated_Source\PSoC6\pdl\drivers\peripheral\scb/cy_scb_spi.h **** *   </tr>
 342:Generated_Source\PSoC6\pdl\drivers\peripheral\scb/cy_scb_spi.h **** *   <tr>
 343:Generated_Source\PSoC6\pdl\drivers\peripheral\scb/cy_scb_spi.h **** *     <td>Added register access layer. Use register access macros instead
 344:Generated_Source\PSoC6\pdl\drivers\peripheral\scb/cy_scb_spi.h **** *         of direct register access using dereferenced pointers.</td>
 345:Generated_Source\PSoC6\pdl\drivers\peripheral\scb/cy_scb_spi.h **** *     <td>Makes register access device-independent, so that the PDL does 
 346:Generated_Source\PSoC6\pdl\drivers\peripheral\scb/cy_scb_spi.h **** *         not need to be recompiled for each supported part number.</td>
 347:Generated_Source\PSoC6\pdl\drivers\peripheral\scb/cy_scb_spi.h **** *   </tr>
 348:Generated_Source\PSoC6\pdl\drivers\peripheral\scb/cy_scb_spi.h **** *   <tr>
 349:Generated_Source\PSoC6\pdl\drivers\peripheral\scb/cy_scb_spi.h **** *     <td>2.10</td>
 350:Generated_Source\PSoC6\pdl\drivers\peripheral\scb/cy_scb_spi.h **** *     <td>None.</td>
 351:Generated_Source\PSoC6\pdl\drivers\peripheral\scb/cy_scb_spi.h **** *     <td>SCB I2C driver updated.</td>
 352:Generated_Source\PSoC6\pdl\drivers\peripheral\scb/cy_scb_spi.h **** *   </tr>
 353:Generated_Source\PSoC6\pdl\drivers\peripheral\scb/cy_scb_spi.h **** *   <tr>
 354:Generated_Source\PSoC6\pdl\drivers\peripheral\scb/cy_scb_spi.h **** *     <td rowspan="4"> 2.0</td>
 355:Generated_Source\PSoC6\pdl\drivers\peripheral\scb/cy_scb_spi.h **** *     <td>Fixed SPI callback notification when error event occurred.</td>
 356:Generated_Source\PSoC6\pdl\drivers\peripheral\scb/cy_scb_spi.h **** *     <td>The SPI callback passed incorrect event value if error event occurred.</td>
 357:Generated_Source\PSoC6\pdl\drivers\peripheral\scb/cy_scb_spi.h **** *   </tr>
 358:Generated_Source\PSoC6\pdl\drivers\peripheral\scb/cy_scb_spi.h **** *   <tr>
 359:Generated_Source\PSoC6\pdl\drivers\peripheral\scb/cy_scb_spi.h **** *     <td>Added parameters validation for public API.</td>
 360:Generated_Source\PSoC6\pdl\drivers\peripheral\scb/cy_scb_spi.h **** *     <td></td>
 361:Generated_Source\PSoC6\pdl\drivers\peripheral\scb/cy_scb_spi.h **** *   </tr>
 362:Generated_Source\PSoC6\pdl\drivers\peripheral\scb/cy_scb_spi.h **** *   <tr>
 363:Generated_Source\PSoC6\pdl\drivers\peripheral\scb/cy_scb_spi.h **** *     <td>Replaced variables that have limited range of values with enumerated
 364:Generated_Source\PSoC6\pdl\drivers\peripheral\scb/cy_scb_spi.h **** *         types.</td>
 365:Generated_Source\PSoC6\pdl\drivers\peripheral\scb/cy_scb_spi.h **** *     <td></td>
 366:Generated_Source\PSoC6\pdl\drivers\peripheral\scb/cy_scb_spi.h **** *   </tr>
 367:Generated_Source\PSoC6\pdl\drivers\peripheral\scb/cy_scb_spi.h **** *   <tr>
 368:Generated_Source\PSoC6\pdl\drivers\peripheral\scb/cy_scb_spi.h **** *     <td>Added missing "cy_cb_" to the callback function type names.</td>
 369:Generated_Source\PSoC6\pdl\drivers\peripheral\scb/cy_scb_spi.h **** *     <td></td>
 370:Generated_Source\PSoC6\pdl\drivers\peripheral\scb/cy_scb_spi.h **** *   </tr>
 371:Generated_Source\PSoC6\pdl\drivers\peripheral\scb/cy_scb_spi.h **** *   <tr>
 372:Generated_Source\PSoC6\pdl\drivers\peripheral\scb/cy_scb_spi.h **** *     <td>1.0</td>
 373:Generated_Source\PSoC6\pdl\drivers\peripheral\scb/cy_scb_spi.h **** *     <td>Initial version.</td>
 374:Generated_Source\PSoC6\pdl\drivers\peripheral\scb/cy_scb_spi.h **** *     <td></td>
 375:Generated_Source\PSoC6\pdl\drivers\peripheral\scb/cy_scb_spi.h **** *   </tr>
 376:Generated_Source\PSoC6\pdl\drivers\peripheral\scb/cy_scb_spi.h **** * </table>
 377:Generated_Source\PSoC6\pdl\drivers\peripheral\scb/cy_scb_spi.h **** *
 378:Generated_Source\PSoC6\pdl\drivers\peripheral\scb/cy_scb_spi.h **** * \defgroup group_scb_spi_macros Macros
 379:Generated_Source\PSoC6\pdl\drivers\peripheral\scb/cy_scb_spi.h **** * \defgroup group_scb_spi_functions Functions
 380:Generated_Source\PSoC6\pdl\drivers\peripheral\scb/cy_scb_spi.h **** * \{
ARM GAS  C:\Users\mcfdo\AppData\Local\Temp\ccxaSBqv.s 			page 10


 381:Generated_Source\PSoC6\pdl\drivers\peripheral\scb/cy_scb_spi.h **** * \defgroup group_scb_spi_general_functions General
 382:Generated_Source\PSoC6\pdl\drivers\peripheral\scb/cy_scb_spi.h **** * \defgroup group_scb_spi_high_level_functions High-Level
 383:Generated_Source\PSoC6\pdl\drivers\peripheral\scb/cy_scb_spi.h **** * \defgroup group_scb_spi_low_level_functions Low-Level
 384:Generated_Source\PSoC6\pdl\drivers\peripheral\scb/cy_scb_spi.h **** * \defgroup group_scb_spi_interrupt_functions Interrupt
 385:Generated_Source\PSoC6\pdl\drivers\peripheral\scb/cy_scb_spi.h **** * \defgroup group_scb_spi_low_power_functions Low Power Callbacks
 386:Generated_Source\PSoC6\pdl\drivers\peripheral\scb/cy_scb_spi.h **** * \}
 387:Generated_Source\PSoC6\pdl\drivers\peripheral\scb/cy_scb_spi.h **** * \defgroup group_scb_spi_data_structures Data Structures
 388:Generated_Source\PSoC6\pdl\drivers\peripheral\scb/cy_scb_spi.h **** * \defgroup group_scb_spi_enums Enumerated Types
 389:Generated_Source\PSoC6\pdl\drivers\peripheral\scb/cy_scb_spi.h **** */
 390:Generated_Source\PSoC6\pdl\drivers\peripheral\scb/cy_scb_spi.h **** 
 391:Generated_Source\PSoC6\pdl\drivers\peripheral\scb/cy_scb_spi.h **** #if !defined(CY_SCB_SPI_H)
 392:Generated_Source\PSoC6\pdl\drivers\peripheral\scb/cy_scb_spi.h **** #define CY_SCB_SPI_H
 393:Generated_Source\PSoC6\pdl\drivers\peripheral\scb/cy_scb_spi.h **** 
 394:Generated_Source\PSoC6\pdl\drivers\peripheral\scb/cy_scb_spi.h **** #include "cy_scb_common.h"
 395:Generated_Source\PSoC6\pdl\drivers\peripheral\scb/cy_scb_spi.h **** 
 396:Generated_Source\PSoC6\pdl\drivers\peripheral\scb/cy_scb_spi.h **** #if defined(__cplusplus)
 397:Generated_Source\PSoC6\pdl\drivers\peripheral\scb/cy_scb_spi.h **** extern "C" {
 398:Generated_Source\PSoC6\pdl\drivers\peripheral\scb/cy_scb_spi.h **** #endif
 399:Generated_Source\PSoC6\pdl\drivers\peripheral\scb/cy_scb_spi.h **** 
 400:Generated_Source\PSoC6\pdl\drivers\peripheral\scb/cy_scb_spi.h **** /*******************************************************************************
 401:Generated_Source\PSoC6\pdl\drivers\peripheral\scb/cy_scb_spi.h **** *                               Enumerated Types
 402:Generated_Source\PSoC6\pdl\drivers\peripheral\scb/cy_scb_spi.h **** *******************************************************************************/
 403:Generated_Source\PSoC6\pdl\drivers\peripheral\scb/cy_scb_spi.h **** 
 404:Generated_Source\PSoC6\pdl\drivers\peripheral\scb/cy_scb_spi.h **** /**
 405:Generated_Source\PSoC6\pdl\drivers\peripheral\scb/cy_scb_spi.h **** * \addtogroup group_scb_spi_enums
 406:Generated_Source\PSoC6\pdl\drivers\peripheral\scb/cy_scb_spi.h **** * \{
 407:Generated_Source\PSoC6\pdl\drivers\peripheral\scb/cy_scb_spi.h **** */
 408:Generated_Source\PSoC6\pdl\drivers\peripheral\scb/cy_scb_spi.h **** 
 409:Generated_Source\PSoC6\pdl\drivers\peripheral\scb/cy_scb_spi.h **** /** SPI status codes */
 410:Generated_Source\PSoC6\pdl\drivers\peripheral\scb/cy_scb_spi.h **** typedef enum
 411:Generated_Source\PSoC6\pdl\drivers\peripheral\scb/cy_scb_spi.h **** {
 412:Generated_Source\PSoC6\pdl\drivers\peripheral\scb/cy_scb_spi.h ****     /** Operation completed successfully */
 413:Generated_Source\PSoC6\pdl\drivers\peripheral\scb/cy_scb_spi.h ****     CY_SCB_SPI_SUCCESS = 0U,
 414:Generated_Source\PSoC6\pdl\drivers\peripheral\scb/cy_scb_spi.h **** 
 415:Generated_Source\PSoC6\pdl\drivers\peripheral\scb/cy_scb_spi.h ****     /** One or more of input parameters are invalid */
 416:Generated_Source\PSoC6\pdl\drivers\peripheral\scb/cy_scb_spi.h ****     CY_SCB_SPI_BAD_PARAM = (CY_SCB_ID | CY_PDL_STATUS_ERROR | CY_SCB_SPI_ID | 1U),
 417:Generated_Source\PSoC6\pdl\drivers\peripheral\scb/cy_scb_spi.h **** 
 418:Generated_Source\PSoC6\pdl\drivers\peripheral\scb/cy_scb_spi.h ****     /**
 419:Generated_Source\PSoC6\pdl\drivers\peripheral\scb/cy_scb_spi.h ****     * SPI is busy processing a transfer.
 420:Generated_Source\PSoC6\pdl\drivers\peripheral\scb/cy_scb_spi.h ****     */
 421:Generated_Source\PSoC6\pdl\drivers\peripheral\scb/cy_scb_spi.h ****     CY_SCB_SPI_TRANSFER_BUSY = (CY_SCB_ID | CY_PDL_STATUS_ERROR | CY_SCB_SPI_ID | 2U)
 422:Generated_Source\PSoC6\pdl\drivers\peripheral\scb/cy_scb_spi.h **** } cy_en_scb_spi_status_t;
 423:Generated_Source\PSoC6\pdl\drivers\peripheral\scb/cy_scb_spi.h **** 
 424:Generated_Source\PSoC6\pdl\drivers\peripheral\scb/cy_scb_spi.h **** /** SPI Modes */
 425:Generated_Source\PSoC6\pdl\drivers\peripheral\scb/cy_scb_spi.h **** typedef enum
 426:Generated_Source\PSoC6\pdl\drivers\peripheral\scb/cy_scb_spi.h **** {
 427:Generated_Source\PSoC6\pdl\drivers\peripheral\scb/cy_scb_spi.h ****     CY_SCB_SPI_SLAVE,   /**< Configures SCB for SPI Slave operation  */
 428:Generated_Source\PSoC6\pdl\drivers\peripheral\scb/cy_scb_spi.h ****     CY_SCB_SPI_MASTER,  /**< Configures SCB for SPI Master operation */
 429:Generated_Source\PSoC6\pdl\drivers\peripheral\scb/cy_scb_spi.h **** } cy_en_scb_spi_mode_t;
 430:Generated_Source\PSoC6\pdl\drivers\peripheral\scb/cy_scb_spi.h **** 
 431:Generated_Source\PSoC6\pdl\drivers\peripheral\scb/cy_scb_spi.h **** /** SPI Submodes */
 432:Generated_Source\PSoC6\pdl\drivers\peripheral\scb/cy_scb_spi.h **** typedef enum
 433:Generated_Source\PSoC6\pdl\drivers\peripheral\scb/cy_scb_spi.h **** {
 434:Generated_Source\PSoC6\pdl\drivers\peripheral\scb/cy_scb_spi.h ****     /** Configures an SPI for a standard Motorola SPI operation */
 435:Generated_Source\PSoC6\pdl\drivers\peripheral\scb/cy_scb_spi.h ****     CY_SCB_SPI_MOTOROLA     = 0x0U,
 436:Generated_Source\PSoC6\pdl\drivers\peripheral\scb/cy_scb_spi.h **** 
 437:Generated_Source\PSoC6\pdl\drivers\peripheral\scb/cy_scb_spi.h ****     /**
ARM GAS  C:\Users\mcfdo\AppData\Local\Temp\ccxaSBqv.s 			page 11


 438:Generated_Source\PSoC6\pdl\drivers\peripheral\scb/cy_scb_spi.h ****     * Configures the SPI for the TI SPI operation. In the TI mode, the slave
 439:Generated_Source\PSoC6\pdl\drivers\peripheral\scb/cy_scb_spi.h ****     * select is a pulse. In this case, the pulse coincides with the first bit.
 440:Generated_Source\PSoC6\pdl\drivers\peripheral\scb/cy_scb_spi.h ****     */
 441:Generated_Source\PSoC6\pdl\drivers\peripheral\scb/cy_scb_spi.h ****     CY_SCB_SPI_TI_COINCIDES = 0x01U,
 442:Generated_Source\PSoC6\pdl\drivers\peripheral\scb/cy_scb_spi.h **** 
 443:Generated_Source\PSoC6\pdl\drivers\peripheral\scb/cy_scb_spi.h ****     /**
 444:Generated_Source\PSoC6\pdl\drivers\peripheral\scb/cy_scb_spi.h ****     * Configures an SPI for the National SPI operation. This is a half-duplex
 445:Generated_Source\PSoC6\pdl\drivers\peripheral\scb/cy_scb_spi.h ****     * mode of operation.
 446:Generated_Source\PSoC6\pdl\drivers\peripheral\scb/cy_scb_spi.h ****     */
 447:Generated_Source\PSoC6\pdl\drivers\peripheral\scb/cy_scb_spi.h ****     CY_SCB_SPI_NATIONAL     = 0x02U,
 448:Generated_Source\PSoC6\pdl\drivers\peripheral\scb/cy_scb_spi.h **** 
 449:Generated_Source\PSoC6\pdl\drivers\peripheral\scb/cy_scb_spi.h ****     /**
 450:Generated_Source\PSoC6\pdl\drivers\peripheral\scb/cy_scb_spi.h ****     * Configures an SPI for the TI SPI operation, in the TI mode. The slave
 451:Generated_Source\PSoC6\pdl\drivers\peripheral\scb/cy_scb_spi.h ****     * select is a pulse. In this case the pulse precedes the first bit.
 452:Generated_Source\PSoC6\pdl\drivers\peripheral\scb/cy_scb_spi.h ****     */
 453:Generated_Source\PSoC6\pdl\drivers\peripheral\scb/cy_scb_spi.h ****     CY_SCB_SPI_TI_PRECEDES  = 0x05U,
 454:Generated_Source\PSoC6\pdl\drivers\peripheral\scb/cy_scb_spi.h **** } cy_en_scb_spi_sub_mode_t;
 455:Generated_Source\PSoC6\pdl\drivers\peripheral\scb/cy_scb_spi.h **** 
 456:Generated_Source\PSoC6\pdl\drivers\peripheral\scb/cy_scb_spi.h **** /** SPI SCLK Modes */
 457:Generated_Source\PSoC6\pdl\drivers\peripheral\scb/cy_scb_spi.h **** typedef enum
 458:Generated_Source\PSoC6\pdl\drivers\peripheral\scb/cy_scb_spi.h **** {
 459:Generated_Source\PSoC6\pdl\drivers\peripheral\scb/cy_scb_spi.h ****     CY_SCB_SPI_CPHA0_CPOL0 = 0U,   /**< Clock is active low, data is changed on first edge   */
 460:Generated_Source\PSoC6\pdl\drivers\peripheral\scb/cy_scb_spi.h ****     CY_SCB_SPI_CPHA0_CPOL1 = 1U,   /**< Clock is active high, data is changed on first edge  */
 461:Generated_Source\PSoC6\pdl\drivers\peripheral\scb/cy_scb_spi.h ****     CY_SCB_SPI_CPHA1_CPOL0 = 2U,   /**< Clock is active low, data is changed on second edge  */
 462:Generated_Source\PSoC6\pdl\drivers\peripheral\scb/cy_scb_spi.h ****     CY_SCB_SPI_CPHA1_CPOL1 = 3U,   /**< Clock is active high, data is changed on second edge */
 463:Generated_Source\PSoC6\pdl\drivers\peripheral\scb/cy_scb_spi.h **** } cy_en_scb_spi_sclk_mode_t;
 464:Generated_Source\PSoC6\pdl\drivers\peripheral\scb/cy_scb_spi.h **** 
 465:Generated_Source\PSoC6\pdl\drivers\peripheral\scb/cy_scb_spi.h **** /** SPI Slave Selects */
 466:Generated_Source\PSoC6\pdl\drivers\peripheral\scb/cy_scb_spi.h **** typedef enum
 467:Generated_Source\PSoC6\pdl\drivers\peripheral\scb/cy_scb_spi.h **** {
 468:Generated_Source\PSoC6\pdl\drivers\peripheral\scb/cy_scb_spi.h ****     CY_SCB_SPI_SLAVE_SELECT0 = 0U,   /**< Master will use Slave Select 0 */
 469:Generated_Source\PSoC6\pdl\drivers\peripheral\scb/cy_scb_spi.h ****     CY_SCB_SPI_SLAVE_SELECT1 = 1U,   /**< Master will use Slave Select 1 */
 470:Generated_Source\PSoC6\pdl\drivers\peripheral\scb/cy_scb_spi.h ****     CY_SCB_SPI_SLAVE_SELECT2 = 2U,   /**< Master will use Slave Select 2 */
 471:Generated_Source\PSoC6\pdl\drivers\peripheral\scb/cy_scb_spi.h ****     CY_SCB_SPI_SLAVE_SELECT3 = 3U,   /**< Master will use Slave Select 3 */
 472:Generated_Source\PSoC6\pdl\drivers\peripheral\scb/cy_scb_spi.h **** } cy_en_scb_spi_slave_select_t;
 473:Generated_Source\PSoC6\pdl\drivers\peripheral\scb/cy_scb_spi.h **** 
 474:Generated_Source\PSoC6\pdl\drivers\peripheral\scb/cy_scb_spi.h **** /** SPI Polarity */
 475:Generated_Source\PSoC6\pdl\drivers\peripheral\scb/cy_scb_spi.h **** typedef enum
 476:Generated_Source\PSoC6\pdl\drivers\peripheral\scb/cy_scb_spi.h **** {
 477:Generated_Source\PSoC6\pdl\drivers\peripheral\scb/cy_scb_spi.h ****     CY_SCB_SPI_ACTIVE_LOW  = 0U,    /**< Signal in question is active low */
 478:Generated_Source\PSoC6\pdl\drivers\peripheral\scb/cy_scb_spi.h ****     CY_SCB_SPI_ACTIVE_HIGH = 1U,    /**< Signal in question is active high */
 479:Generated_Source\PSoC6\pdl\drivers\peripheral\scb/cy_scb_spi.h **** } cy_en_scb_spi_polarity_t;
 480:Generated_Source\PSoC6\pdl\drivers\peripheral\scb/cy_scb_spi.h **** 
 481:Generated_Source\PSoC6\pdl\drivers\peripheral\scb/cy_scb_spi.h **** /** \} group_scb_spi_enums */
 482:Generated_Source\PSoC6\pdl\drivers\peripheral\scb/cy_scb_spi.h **** 
 483:Generated_Source\PSoC6\pdl\drivers\peripheral\scb/cy_scb_spi.h **** 
 484:Generated_Source\PSoC6\pdl\drivers\peripheral\scb/cy_scb_spi.h **** /*******************************************************************************
 485:Generated_Source\PSoC6\pdl\drivers\peripheral\scb/cy_scb_spi.h **** *                            Type Definitions
 486:Generated_Source\PSoC6\pdl\drivers\peripheral\scb/cy_scb_spi.h **** *******************************************************************************/
 487:Generated_Source\PSoC6\pdl\drivers\peripheral\scb/cy_scb_spi.h **** 
 488:Generated_Source\PSoC6\pdl\drivers\peripheral\scb/cy_scb_spi.h **** /**
 489:Generated_Source\PSoC6\pdl\drivers\peripheral\scb/cy_scb_spi.h **** * \addtogroup group_scb_spi_data_structures
 490:Generated_Source\PSoC6\pdl\drivers\peripheral\scb/cy_scb_spi.h **** * \{
 491:Generated_Source\PSoC6\pdl\drivers\peripheral\scb/cy_scb_spi.h **** */
 492:Generated_Source\PSoC6\pdl\drivers\peripheral\scb/cy_scb_spi.h **** 
 493:Generated_Source\PSoC6\pdl\drivers\peripheral\scb/cy_scb_spi.h **** /**
 494:Generated_Source\PSoC6\pdl\drivers\peripheral\scb/cy_scb_spi.h **** * Provides the typedef for the callback function called in the
ARM GAS  C:\Users\mcfdo\AppData\Local\Temp\ccxaSBqv.s 			page 12


 495:Generated_Source\PSoC6\pdl\drivers\peripheral\scb/cy_scb_spi.h **** * \ref Cy_SCB_SPI_Interrupt to notify the user about occurrences of
 496:Generated_Source\PSoC6\pdl\drivers\peripheral\scb/cy_scb_spi.h **** * \ref group_scb_spi_macros_callback_events.
 497:Generated_Source\PSoC6\pdl\drivers\peripheral\scb/cy_scb_spi.h **** */
 498:Generated_Source\PSoC6\pdl\drivers\peripheral\scb/cy_scb_spi.h **** typedef void (* cy_cb_scb_spi_handle_events_t)(uint32_t event);
 499:Generated_Source\PSoC6\pdl\drivers\peripheral\scb/cy_scb_spi.h **** 
 500:Generated_Source\PSoC6\pdl\drivers\peripheral\scb/cy_scb_spi.h **** 
 501:Generated_Source\PSoC6\pdl\drivers\peripheral\scb/cy_scb_spi.h **** /** SPI configuration structure */
 502:Generated_Source\PSoC6\pdl\drivers\peripheral\scb/cy_scb_spi.h **** typedef struct cy_stc_scb_spi_config
 503:Generated_Source\PSoC6\pdl\drivers\peripheral\scb/cy_scb_spi.h **** {
 504:Generated_Source\PSoC6\pdl\drivers\peripheral\scb/cy_scb_spi.h ****     /** Specifies the mode of operation */
 505:Generated_Source\PSoC6\pdl\drivers\peripheral\scb/cy_scb_spi.h ****     cy_en_scb_spi_mode_t    spiMode;
 506:Generated_Source\PSoC6\pdl\drivers\peripheral\scb/cy_scb_spi.h **** 
 507:Generated_Source\PSoC6\pdl\drivers\peripheral\scb/cy_scb_spi.h ****     /** Specifies the submode of SPI operation */
 508:Generated_Source\PSoC6\pdl\drivers\peripheral\scb/cy_scb_spi.h ****     cy_en_scb_spi_sub_mode_t    subMode;
 509:Generated_Source\PSoC6\pdl\drivers\peripheral\scb/cy_scb_spi.h **** 
 510:Generated_Source\PSoC6\pdl\drivers\peripheral\scb/cy_scb_spi.h ****     /**
 511:Generated_Source\PSoC6\pdl\drivers\peripheral\scb/cy_scb_spi.h ****     * Configures the SCLK operation for Motorola sub-mode, ignored for all
 512:Generated_Source\PSoC6\pdl\drivers\peripheral\scb/cy_scb_spi.h ****     * other submodes
 513:Generated_Source\PSoC6\pdl\drivers\peripheral\scb/cy_scb_spi.h ****     */
 514:Generated_Source\PSoC6\pdl\drivers\peripheral\scb/cy_scb_spi.h ****     cy_en_scb_spi_sclk_mode_t    sclkMode;
 515:Generated_Source\PSoC6\pdl\drivers\peripheral\scb/cy_scb_spi.h **** 
 516:Generated_Source\PSoC6\pdl\drivers\peripheral\scb/cy_scb_spi.h ****     /**
 517:Generated_Source\PSoC6\pdl\drivers\peripheral\scb/cy_scb_spi.h ****     * Oversample factor for SPI.
 518:Generated_Source\PSoC6\pdl\drivers\peripheral\scb/cy_scb_spi.h ****     * * For the master mode, the data rate is the SCB clock / oversample
 519:Generated_Source\PSoC6\pdl\drivers\peripheral\scb/cy_scb_spi.h ****     *   (the valid range is 4 to 16, when MISO is used; if MISO is not used
 520:Generated_Source\PSoC6\pdl\drivers\peripheral\scb/cy_scb_spi.h ****     *   then the valid range is 2 to 16).
 521:Generated_Source\PSoC6\pdl\drivers\peripheral\scb/cy_scb_spi.h ****     * * For the slave mode, the oversample value is ignored. The data rate is
 522:Generated_Source\PSoC6\pdl\drivers\peripheral\scb/cy_scb_spi.h ****     *   determined by the SCB clock frequency.
 523:Generated_Source\PSoC6\pdl\drivers\peripheral\scb/cy_scb_spi.h ****     */
 524:Generated_Source\PSoC6\pdl\drivers\peripheral\scb/cy_scb_spi.h ****     uint32_t    oversample;
 525:Generated_Source\PSoC6\pdl\drivers\peripheral\scb/cy_scb_spi.h **** 
 526:Generated_Source\PSoC6\pdl\drivers\peripheral\scb/cy_scb_spi.h ****     /**
 527:Generated_Source\PSoC6\pdl\drivers\peripheral\scb/cy_scb_spi.h ****     * The width of RX data (valid range 4-16). It must be the same as
 528:Generated_Source\PSoC6\pdl\drivers\peripheral\scb/cy_scb_spi.h ****     * \ref txDataWidth except in National sub-mode.
 529:Generated_Source\PSoC6\pdl\drivers\peripheral\scb/cy_scb_spi.h ****     */
 530:Generated_Source\PSoC6\pdl\drivers\peripheral\scb/cy_scb_spi.h ****     uint32_t    rxDataWidth;
 531:Generated_Source\PSoC6\pdl\drivers\peripheral\scb/cy_scb_spi.h **** 
 532:Generated_Source\PSoC6\pdl\drivers\peripheral\scb/cy_scb_spi.h ****     /**
 533:Generated_Source\PSoC6\pdl\drivers\peripheral\scb/cy_scb_spi.h ****     * The width of TX data (valid range 4-16). It must be the same as
 534:Generated_Source\PSoC6\pdl\drivers\peripheral\scb/cy_scb_spi.h ****     * \ref rxDataWidth except in National sub-mode.
 535:Generated_Source\PSoC6\pdl\drivers\peripheral\scb/cy_scb_spi.h ****     */
 536:Generated_Source\PSoC6\pdl\drivers\peripheral\scb/cy_scb_spi.h ****     uint32_t    txDataWidth;
 537:Generated_Source\PSoC6\pdl\drivers\peripheral\scb/cy_scb_spi.h **** 
 538:Generated_Source\PSoC6\pdl\drivers\peripheral\scb/cy_scb_spi.h ****     /**
 539:Generated_Source\PSoC6\pdl\drivers\peripheral\scb/cy_scb_spi.h ****     * Enables the hardware to shift out the data element MSB first, otherwise,
 540:Generated_Source\PSoC6\pdl\drivers\peripheral\scb/cy_scb_spi.h ****     * LSB first
 541:Generated_Source\PSoC6\pdl\drivers\peripheral\scb/cy_scb_spi.h ****     */
 542:Generated_Source\PSoC6\pdl\drivers\peripheral\scb/cy_scb_spi.h ****     bool        enableMsbFirst;
 543:Generated_Source\PSoC6\pdl\drivers\peripheral\scb/cy_scb_spi.h **** 
 544:Generated_Source\PSoC6\pdl\drivers\peripheral\scb/cy_scb_spi.h ****     /**
 545:Generated_Source\PSoC6\pdl\drivers\peripheral\scb/cy_scb_spi.h ****     * Enables the master to generate a continuous SCLK regardless of whether
 546:Generated_Source\PSoC6\pdl\drivers\peripheral\scb/cy_scb_spi.h ****     * there is data to send
 547:Generated_Source\PSoC6\pdl\drivers\peripheral\scb/cy_scb_spi.h ****     */
 548:Generated_Source\PSoC6\pdl\drivers\peripheral\scb/cy_scb_spi.h ****     bool        enableFreeRunSclk;
 549:Generated_Source\PSoC6\pdl\drivers\peripheral\scb/cy_scb_spi.h **** 
 550:Generated_Source\PSoC6\pdl\drivers\peripheral\scb/cy_scb_spi.h ****     /**
 551:Generated_Source\PSoC6\pdl\drivers\peripheral\scb/cy_scb_spi.h ****     * Enables a digital 3-tap median filter to be applied to the input
ARM GAS  C:\Users\mcfdo\AppData\Local\Temp\ccxaSBqv.s 			page 13


 552:Generated_Source\PSoC6\pdl\drivers\peripheral\scb/cy_scb_spi.h ****     * of the RX FIFO to filter glitches on the line.
 553:Generated_Source\PSoC6\pdl\drivers\peripheral\scb/cy_scb_spi.h ****     */
 554:Generated_Source\PSoC6\pdl\drivers\peripheral\scb/cy_scb_spi.h ****     bool        enableInputFilter;
 555:Generated_Source\PSoC6\pdl\drivers\peripheral\scb/cy_scb_spi.h **** 
 556:Generated_Source\PSoC6\pdl\drivers\peripheral\scb/cy_scb_spi.h ****     /**
 557:Generated_Source\PSoC6\pdl\drivers\peripheral\scb/cy_scb_spi.h ****     * Enables the master to sample MISO line one half clock later to allow
 558:Generated_Source\PSoC6\pdl\drivers\peripheral\scb/cy_scb_spi.h ****     * better timings.
 559:Generated_Source\PSoC6\pdl\drivers\peripheral\scb/cy_scb_spi.h ****     */
 560:Generated_Source\PSoC6\pdl\drivers\peripheral\scb/cy_scb_spi.h ****     bool        enableMisoLateSample;
 561:Generated_Source\PSoC6\pdl\drivers\peripheral\scb/cy_scb_spi.h **** 
 562:Generated_Source\PSoC6\pdl\drivers\peripheral\scb/cy_scb_spi.h ****     /**
 563:Generated_Source\PSoC6\pdl\drivers\peripheral\scb/cy_scb_spi.h ****     * Enables the master to transmit each data element separated by a
 564:Generated_Source\PSoC6\pdl\drivers\peripheral\scb/cy_scb_spi.h ****     * de-assertion of the slave select line (only applicable for the master
 565:Generated_Source\PSoC6\pdl\drivers\peripheral\scb/cy_scb_spi.h ****     * mode)
 566:Generated_Source\PSoC6\pdl\drivers\peripheral\scb/cy_scb_spi.h ****     */
 567:Generated_Source\PSoC6\pdl\drivers\peripheral\scb/cy_scb_spi.h ****     bool        enableTransferSeperation;
 568:Generated_Source\PSoC6\pdl\drivers\peripheral\scb/cy_scb_spi.h **** 
 569:Generated_Source\PSoC6\pdl\drivers\peripheral\scb/cy_scb_spi.h ****     /**
 570:Generated_Source\PSoC6\pdl\drivers\peripheral\scb/cy_scb_spi.h ****     * Sets active polarity of each SS line.
 571:Generated_Source\PSoC6\pdl\drivers\peripheral\scb/cy_scb_spi.h ****     * This is a bit mask: bit 0 corresponds to SS0 and so on to SS3.
 572:Generated_Source\PSoC6\pdl\drivers\peripheral\scb/cy_scb_spi.h ****     * 1 means active high, a 0 means active low.
 573:Generated_Source\PSoC6\pdl\drivers\peripheral\scb/cy_scb_spi.h ****     */
 574:Generated_Source\PSoC6\pdl\drivers\peripheral\scb/cy_scb_spi.h ****     uint32_t    ssPolarity;
 575:Generated_Source\PSoC6\pdl\drivers\peripheral\scb/cy_scb_spi.h **** 
 576:Generated_Source\PSoC6\pdl\drivers\peripheral\scb/cy_scb_spi.h ****     /**
 577:Generated_Source\PSoC6\pdl\drivers\peripheral\scb/cy_scb_spi.h ****     * When set, the slave will wake the device when the slave select line
 578:Generated_Source\PSoC6\pdl\drivers\peripheral\scb/cy_scb_spi.h ****     * becomes active.
 579:Generated_Source\PSoC6\pdl\drivers\peripheral\scb/cy_scb_spi.h ****     * Note that not all SCBs support this mode. Consult the device
 580:Generated_Source\PSoC6\pdl\drivers\peripheral\scb/cy_scb_spi.h ****     * datasheet to determine which SCBs support wake from Deep Sleep.
 581:Generated_Source\PSoC6\pdl\drivers\peripheral\scb/cy_scb_spi.h ****     */
 582:Generated_Source\PSoC6\pdl\drivers\peripheral\scb/cy_scb_spi.h ****     bool        enableWakeFromSleep;
 583:Generated_Source\PSoC6\pdl\drivers\peripheral\scb/cy_scb_spi.h **** 
 584:Generated_Source\PSoC6\pdl\drivers\peripheral\scb/cy_scb_spi.h ****     /**
 585:Generated_Source\PSoC6\pdl\drivers\peripheral\scb/cy_scb_spi.h ****     * When there are more entries in the RX FIFO then this level
 586:Generated_Source\PSoC6\pdl\drivers\peripheral\scb/cy_scb_spi.h ****     * the RX trigger output goes high. This output can be connected
 587:Generated_Source\PSoC6\pdl\drivers\peripheral\scb/cy_scb_spi.h ****     * to a DMA channel through a trigger mux.
 588:Generated_Source\PSoC6\pdl\drivers\peripheral\scb/cy_scb_spi.h ****     * Also, it controls the \ref CY_SCB_SPI_RX_TRIGGER interrupt source.
 589:Generated_Source\PSoC6\pdl\drivers\peripheral\scb/cy_scb_spi.h ****     */
 590:Generated_Source\PSoC6\pdl\drivers\peripheral\scb/cy_scb_spi.h ****     uint32_t    rxFifoTriggerLevel;
 591:Generated_Source\PSoC6\pdl\drivers\peripheral\scb/cy_scb_spi.h **** 
 592:Generated_Source\PSoC6\pdl\drivers\peripheral\scb/cy_scb_spi.h ****     /**
 593:Generated_Source\PSoC6\pdl\drivers\peripheral\scb/cy_scb_spi.h ****     * Bits set in this mask will allow events to cause an interrupt
 594:Generated_Source\PSoC6\pdl\drivers\peripheral\scb/cy_scb_spi.h ****     * (See \ref group_scb_spi_macros_rx_fifo_status for the set of constant)
 595:Generated_Source\PSoC6\pdl\drivers\peripheral\scb/cy_scb_spi.h ****     */
 596:Generated_Source\PSoC6\pdl\drivers\peripheral\scb/cy_scb_spi.h ****     uint32_t    rxFifoIntEnableMask;
 597:Generated_Source\PSoC6\pdl\drivers\peripheral\scb/cy_scb_spi.h **** 
 598:Generated_Source\PSoC6\pdl\drivers\peripheral\scb/cy_scb_spi.h ****     /**
 599:Generated_Source\PSoC6\pdl\drivers\peripheral\scb/cy_scb_spi.h ****     * When there are fewer entries in the TX FIFO then this level
 600:Generated_Source\PSoC6\pdl\drivers\peripheral\scb/cy_scb_spi.h ****     * the TX trigger output goes high. This output can be connected
 601:Generated_Source\PSoC6\pdl\drivers\peripheral\scb/cy_scb_spi.h ****     * to a DMA channel through a trigger mux.
 602:Generated_Source\PSoC6\pdl\drivers\peripheral\scb/cy_scb_spi.h ****     * Also, it controls the \ref CY_SCB_SPI_TX_TRIGGER interrupt source.
 603:Generated_Source\PSoC6\pdl\drivers\peripheral\scb/cy_scb_spi.h ****     */
 604:Generated_Source\PSoC6\pdl\drivers\peripheral\scb/cy_scb_spi.h ****     uint32_t    txFifoTriggerLevel;
 605:Generated_Source\PSoC6\pdl\drivers\peripheral\scb/cy_scb_spi.h **** 
 606:Generated_Source\PSoC6\pdl\drivers\peripheral\scb/cy_scb_spi.h ****     /**
 607:Generated_Source\PSoC6\pdl\drivers\peripheral\scb/cy_scb_spi.h ****     * Bits set in this mask allow events to cause an interrupt
 608:Generated_Source\PSoC6\pdl\drivers\peripheral\scb/cy_scb_spi.h ****     * (See \ref group_scb_spi_macros_tx_fifo_status for the set of constants)
ARM GAS  C:\Users\mcfdo\AppData\Local\Temp\ccxaSBqv.s 			page 14


 609:Generated_Source\PSoC6\pdl\drivers\peripheral\scb/cy_scb_spi.h ****     */
 610:Generated_Source\PSoC6\pdl\drivers\peripheral\scb/cy_scb_spi.h ****     uint32_t    txFifoIntEnableMask;
 611:Generated_Source\PSoC6\pdl\drivers\peripheral\scb/cy_scb_spi.h **** 
 612:Generated_Source\PSoC6\pdl\drivers\peripheral\scb/cy_scb_spi.h ****     /**
 613:Generated_Source\PSoC6\pdl\drivers\peripheral\scb/cy_scb_spi.h ****     * Bits set in this mask allow events to cause an interrupt
 614:Generated_Source\PSoC6\pdl\drivers\peripheral\scb/cy_scb_spi.h ****     * (See \ref group_scb_spi_macros_master_slave_status for the set of
 615:Generated_Source\PSoC6\pdl\drivers\peripheral\scb/cy_scb_spi.h ****     * constants)
 616:Generated_Source\PSoC6\pdl\drivers\peripheral\scb/cy_scb_spi.h ****     */
 617:Generated_Source\PSoC6\pdl\drivers\peripheral\scb/cy_scb_spi.h ****     uint32_t    masterSlaveIntEnableMask;
 618:Generated_Source\PSoC6\pdl\drivers\peripheral\scb/cy_scb_spi.h **** 
 619:Generated_Source\PSoC6\pdl\drivers\peripheral\scb/cy_scb_spi.h **** }cy_stc_scb_spi_config_t;
 620:Generated_Source\PSoC6\pdl\drivers\peripheral\scb/cy_scb_spi.h **** 
 621:Generated_Source\PSoC6\pdl\drivers\peripheral\scb/cy_scb_spi.h **** /** SPI context structure.
 622:Generated_Source\PSoC6\pdl\drivers\peripheral\scb/cy_scb_spi.h **** * All fields for the context structure are internal. Firmware never reads or
 623:Generated_Source\PSoC6\pdl\drivers\peripheral\scb/cy_scb_spi.h **** * writes these values. Firmware allocates the structure and provides the
 624:Generated_Source\PSoC6\pdl\drivers\peripheral\scb/cy_scb_spi.h **** * address of the structure to the driver in function calls. Firmware must
 625:Generated_Source\PSoC6\pdl\drivers\peripheral\scb/cy_scb_spi.h **** * ensure that the defined instance of this structure remains in scope
 626:Generated_Source\PSoC6\pdl\drivers\peripheral\scb/cy_scb_spi.h **** * while the drive is in use.
 627:Generated_Source\PSoC6\pdl\drivers\peripheral\scb/cy_scb_spi.h **** */
 628:Generated_Source\PSoC6\pdl\drivers\peripheral\scb/cy_scb_spi.h **** typedef struct cy_stc_scb_spi_context
 629:Generated_Source\PSoC6\pdl\drivers\peripheral\scb/cy_scb_spi.h **** {
 630:Generated_Source\PSoC6\pdl\drivers\peripheral\scb/cy_scb_spi.h ****     /** \cond INTERNAL */
 631:Generated_Source\PSoC6\pdl\drivers\peripheral\scb/cy_scb_spi.h ****     uint32_t volatile status;       /**< The receive status */
 632:Generated_Source\PSoC6\pdl\drivers\peripheral\scb/cy_scb_spi.h **** 
 633:Generated_Source\PSoC6\pdl\drivers\peripheral\scb/cy_scb_spi.h ****     void    *rxBuf;                 /**< The pointer to the receive buffer */
 634:Generated_Source\PSoC6\pdl\drivers\peripheral\scb/cy_scb_spi.h ****     uint32_t rxBufSize;             /**< The receive buffer size */
 635:Generated_Source\PSoC6\pdl\drivers\peripheral\scb/cy_scb_spi.h ****     uint32_t volatile rxBufIdx;     /**< The current location in the receive buffer */
 636:Generated_Source\PSoC6\pdl\drivers\peripheral\scb/cy_scb_spi.h **** 
 637:Generated_Source\PSoC6\pdl\drivers\peripheral\scb/cy_scb_spi.h ****     void    *txBuf;                 /**< The pointer to the transmit buffer */
 638:Generated_Source\PSoC6\pdl\drivers\peripheral\scb/cy_scb_spi.h ****     uint32_t txBufSize;             /**< The transmit buffer size */
 639:Generated_Source\PSoC6\pdl\drivers\peripheral\scb/cy_scb_spi.h ****     uint32_t volatile txBufIdx;     /**< The current location in the transmit buffer */
 640:Generated_Source\PSoC6\pdl\drivers\peripheral\scb/cy_scb_spi.h **** 
 641:Generated_Source\PSoC6\pdl\drivers\peripheral\scb/cy_scb_spi.h ****     /**
 642:Generated_Source\PSoC6\pdl\drivers\peripheral\scb/cy_scb_spi.h ****     * The pointer to an event callback that is called when any of
 643:Generated_Source\PSoC6\pdl\drivers\peripheral\scb/cy_scb_spi.h ****     * \ref group_scb_spi_macros_callback_events occurs
 644:Generated_Source\PSoC6\pdl\drivers\peripheral\scb/cy_scb_spi.h ****     */
 645:Generated_Source\PSoC6\pdl\drivers\peripheral\scb/cy_scb_spi.h ****     cy_cb_scb_spi_handle_events_t cbEvents;
 646:Generated_Source\PSoC6\pdl\drivers\peripheral\scb/cy_scb_spi.h **** 
 647:Generated_Source\PSoC6\pdl\drivers\peripheral\scb/cy_scb_spi.h **** #if !defined(NDEBUG)
 648:Generated_Source\PSoC6\pdl\drivers\peripheral\scb/cy_scb_spi.h ****     uint32_t initKey;               /**< Tracks the context initialization */
 649:Generated_Source\PSoC6\pdl\drivers\peripheral\scb/cy_scb_spi.h **** #endif /* !(NDEBUG) */
 650:Generated_Source\PSoC6\pdl\drivers\peripheral\scb/cy_scb_spi.h ****     /** \endcond */
 651:Generated_Source\PSoC6\pdl\drivers\peripheral\scb/cy_scb_spi.h **** } cy_stc_scb_spi_context_t;
 652:Generated_Source\PSoC6\pdl\drivers\peripheral\scb/cy_scb_spi.h **** 
 653:Generated_Source\PSoC6\pdl\drivers\peripheral\scb/cy_scb_spi.h **** /** \} group_scb_spi_data_structures */
 654:Generated_Source\PSoC6\pdl\drivers\peripheral\scb/cy_scb_spi.h **** 
 655:Generated_Source\PSoC6\pdl\drivers\peripheral\scb/cy_scb_spi.h **** 
 656:Generated_Source\PSoC6\pdl\drivers\peripheral\scb/cy_scb_spi.h **** /*******************************************************************************
 657:Generated_Source\PSoC6\pdl\drivers\peripheral\scb/cy_scb_spi.h **** *                          Function Prototypes
 658:Generated_Source\PSoC6\pdl\drivers\peripheral\scb/cy_scb_spi.h **** *******************************************************************************/
 659:Generated_Source\PSoC6\pdl\drivers\peripheral\scb/cy_scb_spi.h **** 
 660:Generated_Source\PSoC6\pdl\drivers\peripheral\scb/cy_scb_spi.h **** /**
 661:Generated_Source\PSoC6\pdl\drivers\peripheral\scb/cy_scb_spi.h **** * \addtogroup group_scb_spi_general_functions
 662:Generated_Source\PSoC6\pdl\drivers\peripheral\scb/cy_scb_spi.h **** * \{
 663:Generated_Source\PSoC6\pdl\drivers\peripheral\scb/cy_scb_spi.h **** */
 664:Generated_Source\PSoC6\pdl\drivers\peripheral\scb/cy_scb_spi.h **** cy_en_scb_spi_status_t Cy_SCB_SPI_Init(CySCB_Type *base, cy_stc_scb_spi_config_t const *config,
 665:Generated_Source\PSoC6\pdl\drivers\peripheral\scb/cy_scb_spi.h ****                                        cy_stc_scb_spi_context_t *context);
ARM GAS  C:\Users\mcfdo\AppData\Local\Temp\ccxaSBqv.s 			page 15


 666:Generated_Source\PSoC6\pdl\drivers\peripheral\scb/cy_scb_spi.h **** void Cy_SCB_SPI_DeInit (CySCB_Type *base);
 667:Generated_Source\PSoC6\pdl\drivers\peripheral\scb/cy_scb_spi.h **** __STATIC_INLINE void Cy_SCB_SPI_Enable(CySCB_Type *base);
 668:Generated_Source\PSoC6\pdl\drivers\peripheral\scb/cy_scb_spi.h **** void Cy_SCB_SPI_Disable(CySCB_Type *base, cy_stc_scb_spi_context_t *context);
 669:Generated_Source\PSoC6\pdl\drivers\peripheral\scb/cy_scb_spi.h **** 
 670:Generated_Source\PSoC6\pdl\drivers\peripheral\scb/cy_scb_spi.h **** __STATIC_INLINE void Cy_SCB_SPI_SetActiveSlaveSelect(CySCB_Type *base,
 671:Generated_Source\PSoC6\pdl\drivers\peripheral\scb/cy_scb_spi.h ****                                     cy_en_scb_spi_slave_select_t slaveSelect);
 672:Generated_Source\PSoC6\pdl\drivers\peripheral\scb/cy_scb_spi.h **** __STATIC_INLINE void Cy_SCB_SPI_SetActiveSlaveSelectPolarity(CySCB_Type *base,
 673:Generated_Source\PSoC6\pdl\drivers\peripheral\scb/cy_scb_spi.h ****                                     cy_en_scb_spi_slave_select_t slaveSelect,
 674:Generated_Source\PSoC6\pdl\drivers\peripheral\scb/cy_scb_spi.h ****                                     cy_en_scb_spi_polarity_t polarity);
 675:Generated_Source\PSoC6\pdl\drivers\peripheral\scb/cy_scb_spi.h **** 
 676:Generated_Source\PSoC6\pdl\drivers\peripheral\scb/cy_scb_spi.h **** __STATIC_INLINE bool Cy_SCB_SPI_IsBusBusy(CySCB_Type const *base);
 677:Generated_Source\PSoC6\pdl\drivers\peripheral\scb/cy_scb_spi.h **** /** \} group_scb_spi_general_functions */
 678:Generated_Source\PSoC6\pdl\drivers\peripheral\scb/cy_scb_spi.h **** 
 679:Generated_Source\PSoC6\pdl\drivers\peripheral\scb/cy_scb_spi.h **** /**
 680:Generated_Source\PSoC6\pdl\drivers\peripheral\scb/cy_scb_spi.h **** * \addtogroup group_scb_spi_high_level_functions
 681:Generated_Source\PSoC6\pdl\drivers\peripheral\scb/cy_scb_spi.h **** * \{
 682:Generated_Source\PSoC6\pdl\drivers\peripheral\scb/cy_scb_spi.h **** */
 683:Generated_Source\PSoC6\pdl\drivers\peripheral\scb/cy_scb_spi.h **** cy_en_scb_spi_status_t Cy_SCB_SPI_Transfer(CySCB_Type *base, void *txBuffer, void *rxBuffer, uint32
 684:Generated_Source\PSoC6\pdl\drivers\peripheral\scb/cy_scb_spi.h ****                                            cy_stc_scb_spi_context_t *context);
 685:Generated_Source\PSoC6\pdl\drivers\peripheral\scb/cy_scb_spi.h **** void     Cy_SCB_SPI_AbortTransfer    (CySCB_Type *base, cy_stc_scb_spi_context_t *context);
 686:Generated_Source\PSoC6\pdl\drivers\peripheral\scb/cy_scb_spi.h **** uint32_t Cy_SCB_SPI_GetTransferStatus(CySCB_Type const *base, cy_stc_scb_spi_context_t const *conte
 687:Generated_Source\PSoC6\pdl\drivers\peripheral\scb/cy_scb_spi.h **** uint32_t Cy_SCB_SPI_GetNumTransfered (CySCB_Type const *base, cy_stc_scb_spi_context_t const *conte
 688:Generated_Source\PSoC6\pdl\drivers\peripheral\scb/cy_scb_spi.h **** /** \} group_scb_spi_high_level_functions */
 689:Generated_Source\PSoC6\pdl\drivers\peripheral\scb/cy_scb_spi.h **** 
 690:Generated_Source\PSoC6\pdl\drivers\peripheral\scb/cy_scb_spi.h **** /**
 691:Generated_Source\PSoC6\pdl\drivers\peripheral\scb/cy_scb_spi.h **** * \addtogroup group_scb_spi_low_level_functions
 692:Generated_Source\PSoC6\pdl\drivers\peripheral\scb/cy_scb_spi.h **** * \{
 693:Generated_Source\PSoC6\pdl\drivers\peripheral\scb/cy_scb_spi.h **** */
 694:Generated_Source\PSoC6\pdl\drivers\peripheral\scb/cy_scb_spi.h **** __STATIC_INLINE uint32_t Cy_SCB_SPI_Read     (CySCB_Type const *base);
 695:Generated_Source\PSoC6\pdl\drivers\peripheral\scb/cy_scb_spi.h **** __STATIC_INLINE uint32_t Cy_SCB_SPI_ReadArray(CySCB_Type const *base, void *buffer, uint32_t size);
 696:Generated_Source\PSoC6\pdl\drivers\peripheral\scb/cy_scb_spi.h **** 
 697:Generated_Source\PSoC6\pdl\drivers\peripheral\scb/cy_scb_spi.h **** __STATIC_INLINE uint32_t Cy_SCB_SPI_Write     (CySCB_Type *base, uint32_t data);
 698:Generated_Source\PSoC6\pdl\drivers\peripheral\scb/cy_scb_spi.h **** __STATIC_INLINE uint32_t Cy_SCB_SPI_WriteArray(CySCB_Type *base, void *buffer, uint32_t size);
 699:Generated_Source\PSoC6\pdl\drivers\peripheral\scb/cy_scb_spi.h **** __STATIC_INLINE void     Cy_SCB_SPI_WriteArrayBlocking(CySCB_Type *base, void *buffer, uint32_t siz
 700:Generated_Source\PSoC6\pdl\drivers\peripheral\scb/cy_scb_spi.h **** 
 701:Generated_Source\PSoC6\pdl\drivers\peripheral\scb/cy_scb_spi.h **** __STATIC_INLINE uint32_t Cy_SCB_SPI_GetTxFifoStatus  (CySCB_Type const *base);
 702:Generated_Source\PSoC6\pdl\drivers\peripheral\scb/cy_scb_spi.h **** __STATIC_INLINE void     Cy_SCB_SPI_ClearTxFifoStatus(CySCB_Type *base, uint32_t clearMask);
 703:Generated_Source\PSoC6\pdl\drivers\peripheral\scb/cy_scb_spi.h **** 
 704:Generated_Source\PSoC6\pdl\drivers\peripheral\scb/cy_scb_spi.h **** __STATIC_INLINE uint32_t Cy_SCB_SPI_GetRxFifoStatus  (CySCB_Type const *base);
 705:Generated_Source\PSoC6\pdl\drivers\peripheral\scb/cy_scb_spi.h **** __STATIC_INLINE void     Cy_SCB_SPI_ClearRxFifoStatus(CySCB_Type *base, uint32_t clearMask);
 706:Generated_Source\PSoC6\pdl\drivers\peripheral\scb/cy_scb_spi.h **** 
 707:Generated_Source\PSoC6\pdl\drivers\peripheral\scb/cy_scb_spi.h **** __STATIC_INLINE uint32_t Cy_SCB_SPI_GetSlaveMasterStatus  (CySCB_Type const *base);
 708:Generated_Source\PSoC6\pdl\drivers\peripheral\scb/cy_scb_spi.h **** __STATIC_INLINE void     Cy_SCB_SPI_ClearSlaveMasterStatus(CySCB_Type *base, uint32_t clearMask);
 709:Generated_Source\PSoC6\pdl\drivers\peripheral\scb/cy_scb_spi.h **** 
 710:Generated_Source\PSoC6\pdl\drivers\peripheral\scb/cy_scb_spi.h **** __STATIC_INLINE uint32_t Cy_SCB_SPI_GetNumInTxFifo(CySCB_Type const *base);
 711:Generated_Source\PSoC6\pdl\drivers\peripheral\scb/cy_scb_spi.h **** __STATIC_INLINE bool     Cy_SCB_SPI_IsTxComplete  (CySCB_Type const *base);
 712:Generated_Source\PSoC6\pdl\drivers\peripheral\scb/cy_scb_spi.h **** 
 713:Generated_Source\PSoC6\pdl\drivers\peripheral\scb/cy_scb_spi.h **** __STATIC_INLINE uint32_t Cy_SCB_SPI_GetNumInRxFifo(CySCB_Type const *base);
 714:Generated_Source\PSoC6\pdl\drivers\peripheral\scb/cy_scb_spi.h **** 
 715:Generated_Source\PSoC6\pdl\drivers\peripheral\scb/cy_scb_spi.h **** __STATIC_INLINE void Cy_SCB_SPI_ClearRxFifo(CySCB_Type *base);
 716:Generated_Source\PSoC6\pdl\drivers\peripheral\scb/cy_scb_spi.h **** __STATIC_INLINE void Cy_SCB_SPI_ClearTxFifo(CySCB_Type *base);
 717:Generated_Source\PSoC6\pdl\drivers\peripheral\scb/cy_scb_spi.h **** /** \} group_scb_spi_low_level_functions */
 718:Generated_Source\PSoC6\pdl\drivers\peripheral\scb/cy_scb_spi.h **** 
 719:Generated_Source\PSoC6\pdl\drivers\peripheral\scb/cy_scb_spi.h **** /**
 720:Generated_Source\PSoC6\pdl\drivers\peripheral\scb/cy_scb_spi.h **** * \addtogroup group_scb_spi_interrupt_functions
 721:Generated_Source\PSoC6\pdl\drivers\peripheral\scb/cy_scb_spi.h **** * \{
 722:Generated_Source\PSoC6\pdl\drivers\peripheral\scb/cy_scb_spi.h **** */
ARM GAS  C:\Users\mcfdo\AppData\Local\Temp\ccxaSBqv.s 			page 16


 723:Generated_Source\PSoC6\pdl\drivers\peripheral\scb/cy_scb_spi.h **** void Cy_SCB_SPI_Interrupt(CySCB_Type *base, cy_stc_scb_spi_context_t *context);
 724:Generated_Source\PSoC6\pdl\drivers\peripheral\scb/cy_scb_spi.h **** 
 725:Generated_Source\PSoC6\pdl\drivers\peripheral\scb/cy_scb_spi.h **** __STATIC_INLINE void Cy_SCB_SPI_RegisterCallback(CySCB_Type const *base, cy_cb_scb_spi_handle_event
 726:Generated_Source\PSoC6\pdl\drivers\peripheral\scb/cy_scb_spi.h ****                                                  cy_stc_scb_spi_context_t *context);
 727:Generated_Source\PSoC6\pdl\drivers\peripheral\scb/cy_scb_spi.h **** /** \} group_scb_spi_interrupt_functions */
 728:Generated_Source\PSoC6\pdl\drivers\peripheral\scb/cy_scb_spi.h **** 
 729:Generated_Source\PSoC6\pdl\drivers\peripheral\scb/cy_scb_spi.h **** /**
 730:Generated_Source\PSoC6\pdl\drivers\peripheral\scb/cy_scb_spi.h **** * \addtogroup group_scb_spi_low_power_functions
 731:Generated_Source\PSoC6\pdl\drivers\peripheral\scb/cy_scb_spi.h **** * \{
 732:Generated_Source\PSoC6\pdl\drivers\peripheral\scb/cy_scb_spi.h **** */
 733:Generated_Source\PSoC6\pdl\drivers\peripheral\scb/cy_scb_spi.h **** cy_en_syspm_status_t Cy_SCB_SPI_DeepSleepCallback(cy_stc_syspm_callback_params_t *callbackParams, c
 734:Generated_Source\PSoC6\pdl\drivers\peripheral\scb/cy_scb_spi.h **** cy_en_syspm_status_t Cy_SCB_SPI_HibernateCallback(cy_stc_syspm_callback_params_t *callbackParams, c
 735:Generated_Source\PSoC6\pdl\drivers\peripheral\scb/cy_scb_spi.h **** /** \} group_scb_spi_low_power_functions */
 736:Generated_Source\PSoC6\pdl\drivers\peripheral\scb/cy_scb_spi.h **** 
 737:Generated_Source\PSoC6\pdl\drivers\peripheral\scb/cy_scb_spi.h **** 
 738:Generated_Source\PSoC6\pdl\drivers\peripheral\scb/cy_scb_spi.h **** /*******************************************************************************
 739:Generated_Source\PSoC6\pdl\drivers\peripheral\scb/cy_scb_spi.h **** *                               API Constants
 740:Generated_Source\PSoC6\pdl\drivers\peripheral\scb/cy_scb_spi.h **** *******************************************************************************/
 741:Generated_Source\PSoC6\pdl\drivers\peripheral\scb/cy_scb_spi.h **** 
 742:Generated_Source\PSoC6\pdl\drivers\peripheral\scb/cy_scb_spi.h **** /**
 743:Generated_Source\PSoC6\pdl\drivers\peripheral\scb/cy_scb_spi.h **** * \addtogroup group_scb_spi_macros
 744:Generated_Source\PSoC6\pdl\drivers\peripheral\scb/cy_scb_spi.h **** * \{
 745:Generated_Source\PSoC6\pdl\drivers\peripheral\scb/cy_scb_spi.h **** */
 746:Generated_Source\PSoC6\pdl\drivers\peripheral\scb/cy_scb_spi.h **** 
 747:Generated_Source\PSoC6\pdl\drivers\peripheral\scb/cy_scb_spi.h **** /**
 748:Generated_Source\PSoC6\pdl\drivers\peripheral\scb/cy_scb_spi.h **** * \defgroup group_scb_spi_macros_tx_fifo_status SPI TX FIFO Statuses
 749:Generated_Source\PSoC6\pdl\drivers\peripheral\scb/cy_scb_spi.h **** * Macros to check SPI TX FIFO status returned by \ref Cy_SCB_SPI_GetTxFifoStatus
 750:Generated_Source\PSoC6\pdl\drivers\peripheral\scb/cy_scb_spi.h **** * function or assign mask for \ref Cy_SCB_SPI_ClearTxFifoStatus function.
 751:Generated_Source\PSoC6\pdl\drivers\peripheral\scb/cy_scb_spi.h **** * Each SPI TX FIFO status is encoded in a separate bit, therefore multiple bits
 752:Generated_Source\PSoC6\pdl\drivers\peripheral\scb/cy_scb_spi.h **** * may be set to indicate the current status.
 753:Generated_Source\PSoC6\pdl\drivers\peripheral\scb/cy_scb_spi.h **** * \{
 754:Generated_Source\PSoC6\pdl\drivers\peripheral\scb/cy_scb_spi.h **** */
 755:Generated_Source\PSoC6\pdl\drivers\peripheral\scb/cy_scb_spi.h **** /** The number of entries in the TX FIFO is less than the TX FIFO trigger level
 756:Generated_Source\PSoC6\pdl\drivers\peripheral\scb/cy_scb_spi.h **** * value
 757:Generated_Source\PSoC6\pdl\drivers\peripheral\scb/cy_scb_spi.h **** */
 758:Generated_Source\PSoC6\pdl\drivers\peripheral\scb/cy_scb_spi.h **** #define CY_SCB_SPI_TX_TRIGGER       (SCB_INTR_TX_TRIGGER_Msk)
 759:Generated_Source\PSoC6\pdl\drivers\peripheral\scb/cy_scb_spi.h **** 
 760:Generated_Source\PSoC6\pdl\drivers\peripheral\scb/cy_scb_spi.h **** /** The TX FIFO is not full, there is a space for more data */
 761:Generated_Source\PSoC6\pdl\drivers\peripheral\scb/cy_scb_spi.h **** #define CY_SCB_SPI_TX_NOT_FULL      (SCB_INTR_TX_NOT_FULL_Msk)
 762:Generated_Source\PSoC6\pdl\drivers\peripheral\scb/cy_scb_spi.h **** 
 763:Generated_Source\PSoC6\pdl\drivers\peripheral\scb/cy_scb_spi.h **** /**
 764:Generated_Source\PSoC6\pdl\drivers\peripheral\scb/cy_scb_spi.h **** * The TX FIFO is empty, note that there may still be data in the shift register.
 765:Generated_Source\PSoC6\pdl\drivers\peripheral\scb/cy_scb_spi.h **** */
 766:Generated_Source\PSoC6\pdl\drivers\peripheral\scb/cy_scb_spi.h **** #define CY_SCB_SPI_TX_EMPTY         (SCB_INTR_TX_EMPTY_Msk)
 767:Generated_Source\PSoC6\pdl\drivers\peripheral\scb/cy_scb_spi.h **** 
 768:Generated_Source\PSoC6\pdl\drivers\peripheral\scb/cy_scb_spi.h **** /** An attempt to write to the full TX FIFO */
 769:Generated_Source\PSoC6\pdl\drivers\peripheral\scb/cy_scb_spi.h **** #define CY_SCB_SPI_TX_OVERFLOW      (SCB_INTR_TX_OVERFLOW_Msk)
 770:Generated_Source\PSoC6\pdl\drivers\peripheral\scb/cy_scb_spi.h **** 
 771:Generated_Source\PSoC6\pdl\drivers\peripheral\scb/cy_scb_spi.h **** /**
 772:Generated_Source\PSoC6\pdl\drivers\peripheral\scb/cy_scb_spi.h **** * Applicable only for the slave mode. The master tried to read more
 773:Generated_Source\PSoC6\pdl\drivers\peripheral\scb/cy_scb_spi.h **** * data elements than available.
 774:Generated_Source\PSoC6\pdl\drivers\peripheral\scb/cy_scb_spi.h **** */
 775:Generated_Source\PSoC6\pdl\drivers\peripheral\scb/cy_scb_spi.h **** #define CY_SCB_SPI_TX_UNDERFLOW     (SCB_INTR_TX_UNDERFLOW_Msk)
 776:Generated_Source\PSoC6\pdl\drivers\peripheral\scb/cy_scb_spi.h **** /** \} group_scb_spi_macros_tx_fifo_status */
 777:Generated_Source\PSoC6\pdl\drivers\peripheral\scb/cy_scb_spi.h **** 
 778:Generated_Source\PSoC6\pdl\drivers\peripheral\scb/cy_scb_spi.h **** /**
 779:Generated_Source\PSoC6\pdl\drivers\peripheral\scb/cy_scb_spi.h **** * \defgroup group_scb_spi_macros_rx_fifo_status SPI RX FIFO Statuses
ARM GAS  C:\Users\mcfdo\AppData\Local\Temp\ccxaSBqv.s 			page 17


 780:Generated_Source\PSoC6\pdl\drivers\peripheral\scb/cy_scb_spi.h **** * \{
 781:Generated_Source\PSoC6\pdl\drivers\peripheral\scb/cy_scb_spi.h **** * Macros to check SPI RX FIFO status returned by \ref Cy_SCB_SPI_GetRxFifoStatus
 782:Generated_Source\PSoC6\pdl\drivers\peripheral\scb/cy_scb_spi.h **** * function or assign mask for \ref Cy_SCB_SPI_ClearRxFifoStatus function.
 783:Generated_Source\PSoC6\pdl\drivers\peripheral\scb/cy_scb_spi.h **** * Each SPI RX FIFO status is encoded in a separate bit, therefore multiple
 784:Generated_Source\PSoC6\pdl\drivers\peripheral\scb/cy_scb_spi.h **** * bits may be set to indicate the current status.
 785:Generated_Source\PSoC6\pdl\drivers\peripheral\scb/cy_scb_spi.h **** */
 786:Generated_Source\PSoC6\pdl\drivers\peripheral\scb/cy_scb_spi.h **** /** The number of entries in the RX FIFO is more than the RX FIFO trigger
 787:Generated_Source\PSoC6\pdl\drivers\peripheral\scb/cy_scb_spi.h **** * level value.
 788:Generated_Source\PSoC6\pdl\drivers\peripheral\scb/cy_scb_spi.h **** */
 789:Generated_Source\PSoC6\pdl\drivers\peripheral\scb/cy_scb_spi.h **** #define CY_SCB_SPI_RX_TRIGGER       (SCB_INTR_RX_TRIGGER_Msk)
 790:Generated_Source\PSoC6\pdl\drivers\peripheral\scb/cy_scb_spi.h **** 
 791:Generated_Source\PSoC6\pdl\drivers\peripheral\scb/cy_scb_spi.h **** /** The RX FIFO is not empty, there is data to read */
 792:Generated_Source\PSoC6\pdl\drivers\peripheral\scb/cy_scb_spi.h **** #define CY_SCB_SPI_RX_NOT_EMPTY     (SCB_INTR_RX_NOT_EMPTY_Msk)
 793:Generated_Source\PSoC6\pdl\drivers\peripheral\scb/cy_scb_spi.h **** 
 794:Generated_Source\PSoC6\pdl\drivers\peripheral\scb/cy_scb_spi.h **** /**
 795:Generated_Source\PSoC6\pdl\drivers\peripheral\scb/cy_scb_spi.h **** * The RX FIFO is full. There is no more space for additional data.
 796:Generated_Source\PSoC6\pdl\drivers\peripheral\scb/cy_scb_spi.h **** * Any additional data will be dropped.
 797:Generated_Source\PSoC6\pdl\drivers\peripheral\scb/cy_scb_spi.h **** */
 798:Generated_Source\PSoC6\pdl\drivers\peripheral\scb/cy_scb_spi.h **** #define CY_SCB_SPI_RX_FULL          (SCB_INTR_RX_FULL_Msk)
 799:Generated_Source\PSoC6\pdl\drivers\peripheral\scb/cy_scb_spi.h **** 
 800:Generated_Source\PSoC6\pdl\drivers\peripheral\scb/cy_scb_spi.h **** /**
 801:Generated_Source\PSoC6\pdl\drivers\peripheral\scb/cy_scb_spi.h **** * The RX FIFO was full and there was an attempt to write to it.
 802:Generated_Source\PSoC6\pdl\drivers\peripheral\scb/cy_scb_spi.h **** * This additional data was dropped.
 803:Generated_Source\PSoC6\pdl\drivers\peripheral\scb/cy_scb_spi.h **** */
 804:Generated_Source\PSoC6\pdl\drivers\peripheral\scb/cy_scb_spi.h **** #define CY_SCB_SPI_RX_OVERFLOW      (SCB_INTR_RX_OVERFLOW_Msk)
 805:Generated_Source\PSoC6\pdl\drivers\peripheral\scb/cy_scb_spi.h **** 
 806:Generated_Source\PSoC6\pdl\drivers\peripheral\scb/cy_scb_spi.h **** /** An attempt to read from an empty RX FIFO */
 807:Generated_Source\PSoC6\pdl\drivers\peripheral\scb/cy_scb_spi.h **** #define CY_SCB_SPI_RX_UNDERFLOW     (SCB_INTR_RX_UNDERFLOW_Msk)
 808:Generated_Source\PSoC6\pdl\drivers\peripheral\scb/cy_scb_spi.h **** /** \} group_scb_spi_macros_rx_fifo_status */
 809:Generated_Source\PSoC6\pdl\drivers\peripheral\scb/cy_scb_spi.h **** 
 810:Generated_Source\PSoC6\pdl\drivers\peripheral\scb/cy_scb_spi.h **** /**
 811:Generated_Source\PSoC6\pdl\drivers\peripheral\scb/cy_scb_spi.h **** * \defgroup group_scb_spi_macros_master_slave_status SPI Master and Slave Statuses
 812:Generated_Source\PSoC6\pdl\drivers\peripheral\scb/cy_scb_spi.h **** * \{
 813:Generated_Source\PSoC6\pdl\drivers\peripheral\scb/cy_scb_spi.h **** * Macros to check SPI Mater and Slave status returned by \ref Cy_SCB_SPI_GetSlaveMasterStatus
 814:Generated_Source\PSoC6\pdl\drivers\peripheral\scb/cy_scb_spi.h **** * function or assign mask for \ref Cy_SCB_SPI_ClearSlaveMasterStatus function.
 815:Generated_Source\PSoC6\pdl\drivers\peripheral\scb/cy_scb_spi.h **** */
 816:Generated_Source\PSoC6\pdl\drivers\peripheral\scb/cy_scb_spi.h **** /** The slave was deselected at the wrong time */
 817:Generated_Source\PSoC6\pdl\drivers\peripheral\scb/cy_scb_spi.h **** #define CY_SCB_SPI_SLAVE_ERR       (SCB_INTR_S_SPI_BUS_ERROR_Msk)
 818:Generated_Source\PSoC6\pdl\drivers\peripheral\scb/cy_scb_spi.h **** 
 819:Generated_Source\PSoC6\pdl\drivers\peripheral\scb/cy_scb_spi.h **** /** The master has transmitted all data elements from FIFO and shifter */
 820:Generated_Source\PSoC6\pdl\drivers\peripheral\scb/cy_scb_spi.h **** #define CY_SCB_SPI_MASTER_DONE     (SCB_INTR_M_SPI_DONE_Msk)
 821:Generated_Source\PSoC6\pdl\drivers\peripheral\scb/cy_scb_spi.h **** /** \} group_scb_spi_macros_master_slave_status */
 822:Generated_Source\PSoC6\pdl\drivers\peripheral\scb/cy_scb_spi.h **** 
 823:Generated_Source\PSoC6\pdl\drivers\peripheral\scb/cy_scb_spi.h **** /**
 824:Generated_Source\PSoC6\pdl\drivers\peripheral\scb/cy_scb_spi.h **** * \defgroup group_scb_spi_macros_xfer_status SPI Transfer Status
 825:Generated_Source\PSoC6\pdl\drivers\peripheral\scb/cy_scb_spi.h **** * \{
 826:Generated_Source\PSoC6\pdl\drivers\peripheral\scb/cy_scb_spi.h **** * Macros to check current SPI transfer status returned by 
 827:Generated_Source\PSoC6\pdl\drivers\peripheral\scb/cy_scb_spi.h **** * \ref Cy_SCB_SPI_GetTransferStatus function. 
 828:Generated_Source\PSoC6\pdl\drivers\peripheral\scb/cy_scb_spi.h **** * Each SPI transfer status is encoded in a separate bit, therefore multiple bits
 829:Generated_Source\PSoC6\pdl\drivers\peripheral\scb/cy_scb_spi.h **** * may be set to indicate the current status.
 830:Generated_Source\PSoC6\pdl\drivers\peripheral\scb/cy_scb_spi.h **** */
 831:Generated_Source\PSoC6\pdl\drivers\peripheral\scb/cy_scb_spi.h **** /**
 832:Generated_Source\PSoC6\pdl\drivers\peripheral\scb/cy_scb_spi.h **** * Transfer operation started by \ref Cy_SCB_SPI_Transfer is in progress
 833:Generated_Source\PSoC6\pdl\drivers\peripheral\scb/cy_scb_spi.h **** */
 834:Generated_Source\PSoC6\pdl\drivers\peripheral\scb/cy_scb_spi.h **** #define CY_SCB_SPI_TRANSFER_ACTIVE     (0x01UL)
 835:Generated_Source\PSoC6\pdl\drivers\peripheral\scb/cy_scb_spi.h **** 
 836:Generated_Source\PSoC6\pdl\drivers\peripheral\scb/cy_scb_spi.h **** /**
ARM GAS  C:\Users\mcfdo\AppData\Local\Temp\ccxaSBqv.s 			page 18


 837:Generated_Source\PSoC6\pdl\drivers\peripheral\scb/cy_scb_spi.h **** * All data elements specified by \ref Cy_SCB_SPI_Transfer for transmission
 838:Generated_Source\PSoC6\pdl\drivers\peripheral\scb/cy_scb_spi.h **** * have been loaded into the TX FIFO
 839:Generated_Source\PSoC6\pdl\drivers\peripheral\scb/cy_scb_spi.h **** */
 840:Generated_Source\PSoC6\pdl\drivers\peripheral\scb/cy_scb_spi.h **** #define CY_SCB_SPI_TRANSFER_IN_FIFO    (0x02UL)
 841:Generated_Source\PSoC6\pdl\drivers\peripheral\scb/cy_scb_spi.h **** 
 842:Generated_Source\PSoC6\pdl\drivers\peripheral\scb/cy_scb_spi.h **** /** The slave was deselected at the wrong time. */
 843:Generated_Source\PSoC6\pdl\drivers\peripheral\scb/cy_scb_spi.h **** #define CY_SCB_SPI_SLAVE_TRANSFER_ERR  (SCB_INTR_S_SPI_BUS_ERROR_Msk)
 844:Generated_Source\PSoC6\pdl\drivers\peripheral\scb/cy_scb_spi.h **** 
 845:Generated_Source\PSoC6\pdl\drivers\peripheral\scb/cy_scb_spi.h **** /**
 846:Generated_Source\PSoC6\pdl\drivers\peripheral\scb/cy_scb_spi.h **** * RX FIFO was full and there was an attempt to write to it.
 847:Generated_Source\PSoC6\pdl\drivers\peripheral\scb/cy_scb_spi.h **** * This additional data was dropped.
 848:Generated_Source\PSoC6\pdl\drivers\peripheral\scb/cy_scb_spi.h **** */
 849:Generated_Source\PSoC6\pdl\drivers\peripheral\scb/cy_scb_spi.h **** #define CY_SCB_SPI_TRANSFER_OVERFLOW   (SCB_INTR_RX_OVERFLOW_Msk)
 850:Generated_Source\PSoC6\pdl\drivers\peripheral\scb/cy_scb_spi.h **** 
 851:Generated_Source\PSoC6\pdl\drivers\peripheral\scb/cy_scb_spi.h **** /**
 852:Generated_Source\PSoC6\pdl\drivers\peripheral\scb/cy_scb_spi.h **** * Applicable only for the slave mode. The master tried to read more
 853:Generated_Source\PSoC6\pdl\drivers\peripheral\scb/cy_scb_spi.h **** * data elements than available in the TX FIFO.
 854:Generated_Source\PSoC6\pdl\drivers\peripheral\scb/cy_scb_spi.h **** */
 855:Generated_Source\PSoC6\pdl\drivers\peripheral\scb/cy_scb_spi.h **** #define CY_SCB_SPI_TRANSFER_UNDERFLOW  (SCB_INTR_TX_UNDERFLOW_Msk)
 856:Generated_Source\PSoC6\pdl\drivers\peripheral\scb/cy_scb_spi.h **** /** \} group_scb_spi_macros_xfer_status */
 857:Generated_Source\PSoC6\pdl\drivers\peripheral\scb/cy_scb_spi.h **** 
 858:Generated_Source\PSoC6\pdl\drivers\peripheral\scb/cy_scb_spi.h **** /**
 859:Generated_Source\PSoC6\pdl\drivers\peripheral\scb/cy_scb_spi.h **** * \defgroup group_scb_spi_macros_callback_events SPI Callback Events
 860:Generated_Source\PSoC6\pdl\drivers\peripheral\scb/cy_scb_spi.h **** * \{
 861:Generated_Source\PSoC6\pdl\drivers\peripheral\scb/cy_scb_spi.h **** * Macros to check SPI events passed by \ref cy_cb_scb_spi_handle_events_t callback.
 862:Generated_Source\PSoC6\pdl\drivers\peripheral\scb/cy_scb_spi.h **** * Note that only single event is notified by the callback when it is called.
 863:Generated_Source\PSoC6\pdl\drivers\peripheral\scb/cy_scb_spi.h **** */
 864:Generated_Source\PSoC6\pdl\drivers\peripheral\scb/cy_scb_spi.h **** /**
 865:Generated_Source\PSoC6\pdl\drivers\peripheral\scb/cy_scb_spi.h **** * All data elements specified by \ref Cy_SCB_SPI_Transfer for transmission
 866:Generated_Source\PSoC6\pdl\drivers\peripheral\scb/cy_scb_spi.h **** * have been loaded into the TX FIFO
 867:Generated_Source\PSoC6\pdl\drivers\peripheral\scb/cy_scb_spi.h **** */
 868:Generated_Source\PSoC6\pdl\drivers\peripheral\scb/cy_scb_spi.h **** #define CY_SCB_SPI_TRANSFER_IN_FIFO_EVENT  (0x01U)
 869:Generated_Source\PSoC6\pdl\drivers\peripheral\scb/cy_scb_spi.h **** 
 870:Generated_Source\PSoC6\pdl\drivers\peripheral\scb/cy_scb_spi.h **** /** The transfer operation started by \ref Cy_SCB_SPI_Transfer is complete */
 871:Generated_Source\PSoC6\pdl\drivers\peripheral\scb/cy_scb_spi.h **** #define CY_SCB_SPI_TRANSFER_CMPLT_EVENT    (0x02U)
 872:Generated_Source\PSoC6\pdl\drivers\peripheral\scb/cy_scb_spi.h **** 
 873:Generated_Source\PSoC6\pdl\drivers\peripheral\scb/cy_scb_spi.h **** /**
 874:Generated_Source\PSoC6\pdl\drivers\peripheral\scb/cy_scb_spi.h **** * An error occurred during the transfer. This includes overflow, underflow
 875:Generated_Source\PSoC6\pdl\drivers\peripheral\scb/cy_scb_spi.h **** * and a transfer error. Check \ref Cy_SCB_SPI_GetTransferStatus.
 876:Generated_Source\PSoC6\pdl\drivers\peripheral\scb/cy_scb_spi.h **** */
 877:Generated_Source\PSoC6\pdl\drivers\peripheral\scb/cy_scb_spi.h **** #define CY_SCB_SPI_TRANSFER_ERR_EVENT      (0x04U)
 878:Generated_Source\PSoC6\pdl\drivers\peripheral\scb/cy_scb_spi.h **** /** \} group_scb_spi_macros_callback_events */
 879:Generated_Source\PSoC6\pdl\drivers\peripheral\scb/cy_scb_spi.h **** 
 880:Generated_Source\PSoC6\pdl\drivers\peripheral\scb/cy_scb_spi.h **** 
 881:Generated_Source\PSoC6\pdl\drivers\peripheral\scb/cy_scb_spi.h **** /** Default TX value when no TX buffer is defined */
 882:Generated_Source\PSoC6\pdl\drivers\peripheral\scb/cy_scb_spi.h **** #define CY_SCB_SPI_DEFAULT_TX  (0x0000FFFFUL)
 883:Generated_Source\PSoC6\pdl\drivers\peripheral\scb/cy_scb_spi.h **** 
 884:Generated_Source\PSoC6\pdl\drivers\peripheral\scb/cy_scb_spi.h **** /** Data returned by the hardware when an empty RX FIFO is read */
 885:Generated_Source\PSoC6\pdl\drivers\peripheral\scb/cy_scb_spi.h **** #define CY_SCB_SPI_RX_NO_DATA  (0xFFFFFFFFUL)
 886:Generated_Source\PSoC6\pdl\drivers\peripheral\scb/cy_scb_spi.h **** 
 887:Generated_Source\PSoC6\pdl\drivers\peripheral\scb/cy_scb_spi.h **** 
 888:Generated_Source\PSoC6\pdl\drivers\peripheral\scb/cy_scb_spi.h **** /*******************************************************************************
 889:Generated_Source\PSoC6\pdl\drivers\peripheral\scb/cy_scb_spi.h **** *                          Internal Constants
 890:Generated_Source\PSoC6\pdl\drivers\peripheral\scb/cy_scb_spi.h **** *******************************************************************************/
 891:Generated_Source\PSoC6\pdl\drivers\peripheral\scb/cy_scb_spi.h **** 
 892:Generated_Source\PSoC6\pdl\drivers\peripheral\scb/cy_scb_spi.h **** /** \cond INTERNAL */
 893:Generated_Source\PSoC6\pdl\drivers\peripheral\scb/cy_scb_spi.h **** #define CY_SCB_SPI_RX_INTR_MASK  (CY_SCB_SPI_RX_TRIGGER  | CY_SCB_SPI_RX_NOT_EMPTY | CY_SCB_SPI_RX_
ARM GAS  C:\Users\mcfdo\AppData\Local\Temp\ccxaSBqv.s 			page 19


 894:Generated_Source\PSoC6\pdl\drivers\peripheral\scb/cy_scb_spi.h ****                                   CY_SCB_SPI_RX_OVERFLOW | CY_SCB_SPI_RX_UNDERFLOW)
 895:Generated_Source\PSoC6\pdl\drivers\peripheral\scb/cy_scb_spi.h **** 
 896:Generated_Source\PSoC6\pdl\drivers\peripheral\scb/cy_scb_spi.h **** #define CY_SCB_SPI_TX_INTR_MASK  (CY_SCB_SPI_TX_TRIGGER  | CY_SCB_SPI_TX_NOT_FULL | CY_SCB_SPI_TX_E
 897:Generated_Source\PSoC6\pdl\drivers\peripheral\scb/cy_scb_spi.h ****                                   CY_SCB_SPI_TX_OVERFLOW | CY_SCB_SPI_TX_UNDERFLOW)
 898:Generated_Source\PSoC6\pdl\drivers\peripheral\scb/cy_scb_spi.h **** 
 899:Generated_Source\PSoC6\pdl\drivers\peripheral\scb/cy_scb_spi.h **** #define CY_SCB_SPI_MASTER_SLAVE_INTR_MASK (CY_SCB_SPI_MASTER_DONE | CY_SCB_SPI_SLAVE_ERR)
 900:Generated_Source\PSoC6\pdl\drivers\peripheral\scb/cy_scb_spi.h **** 
 901:Generated_Source\PSoC6\pdl\drivers\peripheral\scb/cy_scb_spi.h **** #define CY_SCB_SPI_TRANSFER_ERR    (CY_SCB_SPI_SLAVE_TRANSFER_ERR | CY_SCB_SPI_TRANSFER_OVERFLOW | 
 902:Generated_Source\PSoC6\pdl\drivers\peripheral\scb/cy_scb_spi.h ****                                     CY_SCB_SPI_TRANSFER_UNDERFLOW)
 903:Generated_Source\PSoC6\pdl\drivers\peripheral\scb/cy_scb_spi.h **** 
 904:Generated_Source\PSoC6\pdl\drivers\peripheral\scb/cy_scb_spi.h **** #define CY_SCB_SPI_INIT_KEY        (0x00ABCDEFUL)
 905:Generated_Source\PSoC6\pdl\drivers\peripheral\scb/cy_scb_spi.h **** 
 906:Generated_Source\PSoC6\pdl\drivers\peripheral\scb/cy_scb_spi.h **** #define CY_SCB_SPI_IS_MODE_VALID(mode)          ( (CY_SCB_SPI_SLAVE  == (mode)) || \
 907:Generated_Source\PSoC6\pdl\drivers\peripheral\scb/cy_scb_spi.h ****                                                   (CY_SCB_SPI_MASTER == (mode)) )
 908:Generated_Source\PSoC6\pdl\drivers\peripheral\scb/cy_scb_spi.h **** 
 909:Generated_Source\PSoC6\pdl\drivers\peripheral\scb/cy_scb_spi.h **** #define CY_SCB_SPI_IS_SUB_MODE_VALID(subMode)   ( (CY_SCB_SPI_MOTOROLA     == (subMode)) || \
 910:Generated_Source\PSoC6\pdl\drivers\peripheral\scb/cy_scb_spi.h ****                                                   (CY_SCB_SPI_TI_COINCIDES == (subMode)) || \
 911:Generated_Source\PSoC6\pdl\drivers\peripheral\scb/cy_scb_spi.h ****                                                   (CY_SCB_SPI_TI_PRECEDES  == (subMode)) || \
 912:Generated_Source\PSoC6\pdl\drivers\peripheral\scb/cy_scb_spi.h ****                                                   (CY_SCB_SPI_NATIONAL     == (subMode)) )
 913:Generated_Source\PSoC6\pdl\drivers\peripheral\scb/cy_scb_spi.h **** 
 914:Generated_Source\PSoC6\pdl\drivers\peripheral\scb/cy_scb_spi.h **** #define CY_SCB_SPI_IS_SCLK_MODE_VALID(clkMode)  ( (CY_SCB_SPI_CPHA0_CPOL0 == (clkMode)) || \
 915:Generated_Source\PSoC6\pdl\drivers\peripheral\scb/cy_scb_spi.h ****                                                   (CY_SCB_SPI_CPHA0_CPOL1 == (clkMode)) || \
 916:Generated_Source\PSoC6\pdl\drivers\peripheral\scb/cy_scb_spi.h ****                                                   (CY_SCB_SPI_CPHA1_CPOL0 == (clkMode)) || \
 917:Generated_Source\PSoC6\pdl\drivers\peripheral\scb/cy_scb_spi.h ****                                                   (CY_SCB_SPI_CPHA1_CPOL1 == (clkMode)) )
 918:Generated_Source\PSoC6\pdl\drivers\peripheral\scb/cy_scb_spi.h **** 
 919:Generated_Source\PSoC6\pdl\drivers\peripheral\scb/cy_scb_spi.h **** #define CY_SCB_SPI_IS_POLARITY_VALID(polarity)  ( (CY_SCB_SPI_ACTIVE_LOW  == (polarity)) || \
 920:Generated_Source\PSoC6\pdl\drivers\peripheral\scb/cy_scb_spi.h ****                                                   (CY_SCB_SPI_ACTIVE_HIGH == (polarity)) )
 921:Generated_Source\PSoC6\pdl\drivers\peripheral\scb/cy_scb_spi.h **** 
 922:Generated_Source\PSoC6\pdl\drivers\peripheral\scb/cy_scb_spi.h **** #define CY_SCB_SPI_IS_SLAVE_SEL_VALID(ss)       ( (CY_SCB_SPI_SLAVE_SELECT0 == (ss)) || \
 923:Generated_Source\PSoC6\pdl\drivers\peripheral\scb/cy_scb_spi.h ****                                                   (CY_SCB_SPI_SLAVE_SELECT1 == (ss)) || \
 924:Generated_Source\PSoC6\pdl\drivers\peripheral\scb/cy_scb_spi.h ****                                                   (CY_SCB_SPI_SLAVE_SELECT2 == (ss)) || \
 925:Generated_Source\PSoC6\pdl\drivers\peripheral\scb/cy_scb_spi.h ****                                                   (CY_SCB_SPI_SLAVE_SELECT3 == (ss)) )
 926:Generated_Source\PSoC6\pdl\drivers\peripheral\scb/cy_scb_spi.h **** 
 927:Generated_Source\PSoC6\pdl\drivers\peripheral\scb/cy_scb_spi.h **** #define CY_SCB_SPI_IS_OVERSAMPLE_VALID(ovs, mode)   ( (CY_SCB_SPI_MASTER == (mode)) ? (((ovs) >= 2U
 928:Generated_Source\PSoC6\pdl\drivers\peripheral\scb/cy_scb_spi.h **** #define CY_SCB_SPI_IS_DATA_WIDTH_VALID(width)       ( ((width) >= 4UL) && ((width) <= 16UL) )
 929:Generated_Source\PSoC6\pdl\drivers\peripheral\scb/cy_scb_spi.h **** #define CY_SCB_SPI_IS_SS_POLARITY_VALID(polarity)   ( (0UL == ((polarity) & (~0x0FUL))) )
 930:Generated_Source\PSoC6\pdl\drivers\peripheral\scb/cy_scb_spi.h **** #define CY_SCB_SPI_IS_BUFFER_VALID(txBuffer, rxBuffer, size)  ( ((size) > 0UL)  && \
 931:Generated_Source\PSoC6\pdl\drivers\peripheral\scb/cy_scb_spi.h ****                                                                  (false == ((NULL == (txBuffer)) &&
 932:Generated_Source\PSoC6\pdl\drivers\peripheral\scb/cy_scb_spi.h **** 
 933:Generated_Source\PSoC6\pdl\drivers\peripheral\scb/cy_scb_spi.h **** #define CY_SCB_SPI_IS_BOTH_DATA_WIDTH_VALID(subMode, rxWidth, txWidth)  ( (CY_SCB_SPI_NATIONAL != (
 934:Generated_Source\PSoC6\pdl\drivers\peripheral\scb/cy_scb_spi.h ****                                                                                     ((rxWidth) == (
 935:Generated_Source\PSoC6\pdl\drivers\peripheral\scb/cy_scb_spi.h **** 
 936:Generated_Source\PSoC6\pdl\drivers\peripheral\scb/cy_scb_spi.h **** /** \endcond */
 937:Generated_Source\PSoC6\pdl\drivers\peripheral\scb/cy_scb_spi.h **** 
 938:Generated_Source\PSoC6\pdl\drivers\peripheral\scb/cy_scb_spi.h **** /** \} group_scb_spi_macros */
 939:Generated_Source\PSoC6\pdl\drivers\peripheral\scb/cy_scb_spi.h **** 
 940:Generated_Source\PSoC6\pdl\drivers\peripheral\scb/cy_scb_spi.h **** 
 941:Generated_Source\PSoC6\pdl\drivers\peripheral\scb/cy_scb_spi.h **** /*******************************************************************************
 942:Generated_Source\PSoC6\pdl\drivers\peripheral\scb/cy_scb_spi.h **** *                     In-line Function Implementation
 943:Generated_Source\PSoC6\pdl\drivers\peripheral\scb/cy_scb_spi.h **** *******************************************************************************/
 944:Generated_Source\PSoC6\pdl\drivers\peripheral\scb/cy_scb_spi.h **** 
 945:Generated_Source\PSoC6\pdl\drivers\peripheral\scb/cy_scb_spi.h **** /**
 946:Generated_Source\PSoC6\pdl\drivers\peripheral\scb/cy_scb_spi.h **** * \addtogroup group_scb_spi_general_functions
 947:Generated_Source\PSoC6\pdl\drivers\peripheral\scb/cy_scb_spi.h **** * \{
 948:Generated_Source\PSoC6\pdl\drivers\peripheral\scb/cy_scb_spi.h **** */
 949:Generated_Source\PSoC6\pdl\drivers\peripheral\scb/cy_scb_spi.h **** 
 950:Generated_Source\PSoC6\pdl\drivers\peripheral\scb/cy_scb_spi.h **** /*******************************************************************************
ARM GAS  C:\Users\mcfdo\AppData\Local\Temp\ccxaSBqv.s 			page 20


 951:Generated_Source\PSoC6\pdl\drivers\peripheral\scb/cy_scb_spi.h **** * Function Name: Cy_SCB_SPI_Enable
 952:Generated_Source\PSoC6\pdl\drivers\peripheral\scb/cy_scb_spi.h **** ****************************************************************************//**
 953:Generated_Source\PSoC6\pdl\drivers\peripheral\scb/cy_scb_spi.h **** *
 954:Generated_Source\PSoC6\pdl\drivers\peripheral\scb/cy_scb_spi.h **** * Enables the SCB block for the SPI operation.
 955:Generated_Source\PSoC6\pdl\drivers\peripheral\scb/cy_scb_spi.h **** *
 956:Generated_Source\PSoC6\pdl\drivers\peripheral\scb/cy_scb_spi.h **** * \param base
 957:Generated_Source\PSoC6\pdl\drivers\peripheral\scb/cy_scb_spi.h **** * The pointer to the SPI SCB instance.
 958:Generated_Source\PSoC6\pdl\drivers\peripheral\scb/cy_scb_spi.h **** *
 959:Generated_Source\PSoC6\pdl\drivers\peripheral\scb/cy_scb_spi.h **** *******************************************************************************/
 960:Generated_Source\PSoC6\pdl\drivers\peripheral\scb/cy_scb_spi.h **** __STATIC_INLINE void Cy_SCB_SPI_Enable(CySCB_Type *base)
 961:Generated_Source\PSoC6\pdl\drivers\peripheral\scb/cy_scb_spi.h **** {
 962:Generated_Source\PSoC6\pdl\drivers\peripheral\scb/cy_scb_spi.h ****     SCB_CTRL(base) |= SCB_CTRL_ENABLED_Msk;
 963:Generated_Source\PSoC6\pdl\drivers\peripheral\scb/cy_scb_spi.h **** }
 964:Generated_Source\PSoC6\pdl\drivers\peripheral\scb/cy_scb_spi.h **** 
 965:Generated_Source\PSoC6\pdl\drivers\peripheral\scb/cy_scb_spi.h **** 
 966:Generated_Source\PSoC6\pdl\drivers\peripheral\scb/cy_scb_spi.h **** /*******************************************************************************
 967:Generated_Source\PSoC6\pdl\drivers\peripheral\scb/cy_scb_spi.h **** * Function Name: Cy_SCB_SPI_IsBusBusy
 968:Generated_Source\PSoC6\pdl\drivers\peripheral\scb/cy_scb_spi.h **** ****************************************************************************//**
 969:Generated_Source\PSoC6\pdl\drivers\peripheral\scb/cy_scb_spi.h **** *
 970:Generated_Source\PSoC6\pdl\drivers\peripheral\scb/cy_scb_spi.h **** * Returns whether the SPI bus is busy or not. The bus busy is determined using
 971:Generated_Source\PSoC6\pdl\drivers\peripheral\scb/cy_scb_spi.h **** * the slave select signal.
 972:Generated_Source\PSoC6\pdl\drivers\peripheral\scb/cy_scb_spi.h **** * * Motorola and National Semiconductor sub-modes: the bus is busy after the
 973:Generated_Source\PSoC6\pdl\drivers\peripheral\scb/cy_scb_spi.h **** *   slave select line is activated and lasts until the slave select line is
 974:Generated_Source\PSoC6\pdl\drivers\peripheral\scb/cy_scb_spi.h **** *   deactivated.
 975:Generated_Source\PSoC6\pdl\drivers\peripheral\scb/cy_scb_spi.h **** * * Texas Instrument sub-modes: The bus is busy the moment of the initial
 976:Generated_Source\PSoC6\pdl\drivers\peripheral\scb/cy_scb_spi.h **** *   pulse on the slave select line and lasts until the transfer is complete 
 977:Generated_Source\PSoC6\pdl\drivers\peripheral\scb/cy_scb_spi.h **** *   (all bytes from the TX FIFO area shifted-out on the bus).
 978:Generated_Source\PSoC6\pdl\drivers\peripheral\scb/cy_scb_spi.h **** *
 979:Generated_Source\PSoC6\pdl\drivers\peripheral\scb/cy_scb_spi.h **** * \param base
 980:Generated_Source\PSoC6\pdl\drivers\peripheral\scb/cy_scb_spi.h **** * The pointer to the SPI SCB instance.
 981:Generated_Source\PSoC6\pdl\drivers\peripheral\scb/cy_scb_spi.h **** *
 982:Generated_Source\PSoC6\pdl\drivers\peripheral\scb/cy_scb_spi.h **** * \return
 983:Generated_Source\PSoC6\pdl\drivers\peripheral\scb/cy_scb_spi.h **** * True - the bus is busy; false - the bus is idle.
 984:Generated_Source\PSoC6\pdl\drivers\peripheral\scb/cy_scb_spi.h **** *
 985:Generated_Source\PSoC6\pdl\drivers\peripheral\scb/cy_scb_spi.h **** * \note
 986:Generated_Source\PSoC6\pdl\drivers\peripheral\scb/cy_scb_spi.h **** * * The SPI master does not assign the slave select line immediately after
 987:Generated_Source\PSoC6\pdl\drivers\peripheral\scb/cy_scb_spi.h **** *   the first data element is written into the TX FIFO. It takes up to two SCLK
 988:Generated_Source\PSoC6\pdl\drivers\peripheral\scb/cy_scb_spi.h **** *   clocks to assign the slave select line. Before this happens, the bus
 989:Generated_Source\PSoC6\pdl\drivers\peripheral\scb/cy_scb_spi.h **** *   is considered idle.
 990:Generated_Source\PSoC6\pdl\drivers\peripheral\scb/cy_scb_spi.h **** * * If the SPI master is configured to transmit each data element separated by 
 991:Generated_Source\PSoC6\pdl\drivers\peripheral\scb/cy_scb_spi.h **** *   a de-assertion of the slave select line, the bus is busy during each element
 992:Generated_Source\PSoC6\pdl\drivers\peripheral\scb/cy_scb_spi.h **** *   transfer and is free between them.
 993:Generated_Source\PSoC6\pdl\drivers\peripheral\scb/cy_scb_spi.h **** *
 994:Generated_Source\PSoC6\pdl\drivers\peripheral\scb/cy_scb_spi.h **** *******************************************************************************/
 995:Generated_Source\PSoC6\pdl\drivers\peripheral\scb/cy_scb_spi.h **** __STATIC_INLINE bool Cy_SCB_SPI_IsBusBusy(CySCB_Type const *base)
 996:Generated_Source\PSoC6\pdl\drivers\peripheral\scb/cy_scb_spi.h **** {
 997:Generated_Source\PSoC6\pdl\drivers\peripheral\scb/cy_scb_spi.h ****     return _FLD2BOOL(SCB_SPI_STATUS_BUS_BUSY, SCB_SPI_STATUS(base));
 998:Generated_Source\PSoC6\pdl\drivers\peripheral\scb/cy_scb_spi.h **** }
 999:Generated_Source\PSoC6\pdl\drivers\peripheral\scb/cy_scb_spi.h **** 
1000:Generated_Source\PSoC6\pdl\drivers\peripheral\scb/cy_scb_spi.h **** 
1001:Generated_Source\PSoC6\pdl\drivers\peripheral\scb/cy_scb_spi.h **** /*******************************************************************************
1002:Generated_Source\PSoC6\pdl\drivers\peripheral\scb/cy_scb_spi.h **** * Function Name: Cy_SCB_SPI_SetActiveSlaveSelect
1003:Generated_Source\PSoC6\pdl\drivers\peripheral\scb/cy_scb_spi.h **** ****************************************************************************//**
1004:Generated_Source\PSoC6\pdl\drivers\peripheral\scb/cy_scb_spi.h **** *
1005:Generated_Source\PSoC6\pdl\drivers\peripheral\scb/cy_scb_spi.h **** * Selects an active slave select line from one of four available.
1006:Generated_Source\PSoC6\pdl\drivers\peripheral\scb/cy_scb_spi.h **** * This function is applicable for the master and slave.
1007:Generated_Source\PSoC6\pdl\drivers\peripheral\scb/cy_scb_spi.h **** *
ARM GAS  C:\Users\mcfdo\AppData\Local\Temp\ccxaSBqv.s 			page 21


1008:Generated_Source\PSoC6\pdl\drivers\peripheral\scb/cy_scb_spi.h **** * \param base
1009:Generated_Source\PSoC6\pdl\drivers\peripheral\scb/cy_scb_spi.h **** * The pointer to the SPI SCB instance.
1010:Generated_Source\PSoC6\pdl\drivers\peripheral\scb/cy_scb_spi.h **** *
1011:Generated_Source\PSoC6\pdl\drivers\peripheral\scb/cy_scb_spi.h **** * \param slaveSelect
1012:Generated_Source\PSoC6\pdl\drivers\peripheral\scb/cy_scb_spi.h **** * The slave select line number.
1013:Generated_Source\PSoC6\pdl\drivers\peripheral\scb/cy_scb_spi.h **** * See \ref cy_en_scb_spi_slave_select_t for the set of constants.
1014:Generated_Source\PSoC6\pdl\drivers\peripheral\scb/cy_scb_spi.h **** *
1015:Generated_Source\PSoC6\pdl\drivers\peripheral\scb/cy_scb_spi.h **** * \note
1016:Generated_Source\PSoC6\pdl\drivers\peripheral\scb/cy_scb_spi.h **** * The SCB must be idle or disabled before calling this function.
1017:Generated_Source\PSoC6\pdl\drivers\peripheral\scb/cy_scb_spi.h **** *
1018:Generated_Source\PSoC6\pdl\drivers\peripheral\scb/cy_scb_spi.h **** *******************************************************************************/
1019:Generated_Source\PSoC6\pdl\drivers\peripheral\scb/cy_scb_spi.h **** __STATIC_INLINE void Cy_SCB_SPI_SetActiveSlaveSelect(CySCB_Type *base, cy_en_scb_spi_slave_select_t
1020:Generated_Source\PSoC6\pdl\drivers\peripheral\scb/cy_scb_spi.h **** {
1021:Generated_Source\PSoC6\pdl\drivers\peripheral\scb/cy_scb_spi.h ****     CY_ASSERT_L3(CY_SCB_SPI_IS_SLAVE_SEL_VALID(slaveSelect));
1022:Generated_Source\PSoC6\pdl\drivers\peripheral\scb/cy_scb_spi.h **** 
1023:Generated_Source\PSoC6\pdl\drivers\peripheral\scb/cy_scb_spi.h ****     CY_REG32_CLR_SET(SCB_SPI_CTRL(base), SCB_SPI_CTRL_SSEL, (uint32_t) slaveSelect);
1024:Generated_Source\PSoC6\pdl\drivers\peripheral\scb/cy_scb_spi.h **** }
1025:Generated_Source\PSoC6\pdl\drivers\peripheral\scb/cy_scb_spi.h **** 
1026:Generated_Source\PSoC6\pdl\drivers\peripheral\scb/cy_scb_spi.h **** 
1027:Generated_Source\PSoC6\pdl\drivers\peripheral\scb/cy_scb_spi.h **** /*******************************************************************************
1028:Generated_Source\PSoC6\pdl\drivers\peripheral\scb/cy_scb_spi.h **** * Function Name: Cy_SCB_SPI_SetActiveSlaveSelectPolarity
1029:Generated_Source\PSoC6\pdl\drivers\peripheral\scb/cy_scb_spi.h **** ****************************************************************************//**
1030:Generated_Source\PSoC6\pdl\drivers\peripheral\scb/cy_scb_spi.h **** *
1031:Generated_Source\PSoC6\pdl\drivers\peripheral\scb/cy_scb_spi.h **** * Sets the active polarity for the slave select line.
1032:Generated_Source\PSoC6\pdl\drivers\peripheral\scb/cy_scb_spi.h **** *
1033:Generated_Source\PSoC6\pdl\drivers\peripheral\scb/cy_scb_spi.h **** * \param base
1034:Generated_Source\PSoC6\pdl\drivers\peripheral\scb/cy_scb_spi.h **** * The pointer to the SPI SCB instance.
1035:Generated_Source\PSoC6\pdl\drivers\peripheral\scb/cy_scb_spi.h **** *
1036:Generated_Source\PSoC6\pdl\drivers\peripheral\scb/cy_scb_spi.h **** * \param slaveSelect
1037:Generated_Source\PSoC6\pdl\drivers\peripheral\scb/cy_scb_spi.h **** * The slave select line number.
1038:Generated_Source\PSoC6\pdl\drivers\peripheral\scb/cy_scb_spi.h **** * See \ref cy_en_scb_spi_slave_select_t for the set of constants.
1039:Generated_Source\PSoC6\pdl\drivers\peripheral\scb/cy_scb_spi.h **** *
1040:Generated_Source\PSoC6\pdl\drivers\peripheral\scb/cy_scb_spi.h **** * \param polarity
1041:Generated_Source\PSoC6\pdl\drivers\peripheral\scb/cy_scb_spi.h **** * The polarity of the slave select line.
1042:Generated_Source\PSoC6\pdl\drivers\peripheral\scb/cy_scb_spi.h **** * See \ref cy_en_scb_spi_polarity_t for the set of constants.
1043:Generated_Source\PSoC6\pdl\drivers\peripheral\scb/cy_scb_spi.h **** *
1044:Generated_Source\PSoC6\pdl\drivers\peripheral\scb/cy_scb_spi.h **** * \note
1045:Generated_Source\PSoC6\pdl\drivers\peripheral\scb/cy_scb_spi.h **** * The SCB must be idle or disabled before calling this function.
1046:Generated_Source\PSoC6\pdl\drivers\peripheral\scb/cy_scb_spi.h **** *
1047:Generated_Source\PSoC6\pdl\drivers\peripheral\scb/cy_scb_spi.h **** *******************************************************************************/
1048:Generated_Source\PSoC6\pdl\drivers\peripheral\scb/cy_scb_spi.h **** __STATIC_INLINE void Cy_SCB_SPI_SetActiveSlaveSelectPolarity(CySCB_Type *base,
1049:Generated_Source\PSoC6\pdl\drivers\peripheral\scb/cy_scb_spi.h ****                                 cy_en_scb_spi_slave_select_t slaveSelect,
1050:Generated_Source\PSoC6\pdl\drivers\peripheral\scb/cy_scb_spi.h ****                                 cy_en_scb_spi_polarity_t polarity)
1051:Generated_Source\PSoC6\pdl\drivers\peripheral\scb/cy_scb_spi.h **** {
1052:Generated_Source\PSoC6\pdl\drivers\peripheral\scb/cy_scb_spi.h ****     uint32_t mask = _VAL2FLD(CY_SCB_SPI_CTRL_SSEL_POLARITY, (0x01UL << slaveSelect));
1053:Generated_Source\PSoC6\pdl\drivers\peripheral\scb/cy_scb_spi.h **** 
1054:Generated_Source\PSoC6\pdl\drivers\peripheral\scb/cy_scb_spi.h ****     CY_ASSERT_L3(CY_SCB_SPI_IS_SLAVE_SEL_VALID(slaveSelect));
1055:Generated_Source\PSoC6\pdl\drivers\peripheral\scb/cy_scb_spi.h ****     CY_ASSERT_L3(CY_SCB_SPI_IS_POLARITY_VALID (polarity));
1056:Generated_Source\PSoC6\pdl\drivers\peripheral\scb/cy_scb_spi.h **** 
1057:Generated_Source\PSoC6\pdl\drivers\peripheral\scb/cy_scb_spi.h ****     if (CY_SCB_SPI_ACTIVE_HIGH != polarity)
1058:Generated_Source\PSoC6\pdl\drivers\peripheral\scb/cy_scb_spi.h ****     {
1059:Generated_Source\PSoC6\pdl\drivers\peripheral\scb/cy_scb_spi.h ****         SCB_SPI_CTRL(base) |= (uint32_t)  mask;
1060:Generated_Source\PSoC6\pdl\drivers\peripheral\scb/cy_scb_spi.h ****     }
1061:Generated_Source\PSoC6\pdl\drivers\peripheral\scb/cy_scb_spi.h ****     else
1062:Generated_Source\PSoC6\pdl\drivers\peripheral\scb/cy_scb_spi.h ****     {
1063:Generated_Source\PSoC6\pdl\drivers\peripheral\scb/cy_scb_spi.h ****         SCB_SPI_CTRL(base) &= (uint32_t) ~mask;
1064:Generated_Source\PSoC6\pdl\drivers\peripheral\scb/cy_scb_spi.h ****     }
ARM GAS  C:\Users\mcfdo\AppData\Local\Temp\ccxaSBqv.s 			page 22


1065:Generated_Source\PSoC6\pdl\drivers\peripheral\scb/cy_scb_spi.h **** }
1066:Generated_Source\PSoC6\pdl\drivers\peripheral\scb/cy_scb_spi.h **** /** \} group_scb_spi_general_functions */
1067:Generated_Source\PSoC6\pdl\drivers\peripheral\scb/cy_scb_spi.h **** 
1068:Generated_Source\PSoC6\pdl\drivers\peripheral\scb/cy_scb_spi.h **** 
1069:Generated_Source\PSoC6\pdl\drivers\peripheral\scb/cy_scb_spi.h **** /**
1070:Generated_Source\PSoC6\pdl\drivers\peripheral\scb/cy_scb_spi.h **** * \addtogroup group_scb_spi_low_level_functions
1071:Generated_Source\PSoC6\pdl\drivers\peripheral\scb/cy_scb_spi.h **** * \{
1072:Generated_Source\PSoC6\pdl\drivers\peripheral\scb/cy_scb_spi.h **** */
1073:Generated_Source\PSoC6\pdl\drivers\peripheral\scb/cy_scb_spi.h **** /*******************************************************************************
1074:Generated_Source\PSoC6\pdl\drivers\peripheral\scb/cy_scb_spi.h **** * Function Name: Cy_SCB_SPI_GetRxFifoStatus
1075:Generated_Source\PSoC6\pdl\drivers\peripheral\scb/cy_scb_spi.h **** ****************************************************************************//**
1076:Generated_Source\PSoC6\pdl\drivers\peripheral\scb/cy_scb_spi.h **** *
1077:Generated_Source\PSoC6\pdl\drivers\peripheral\scb/cy_scb_spi.h **** * Returns the current status of the RX FIFO.
1078:Generated_Source\PSoC6\pdl\drivers\peripheral\scb/cy_scb_spi.h **** *
1079:Generated_Source\PSoC6\pdl\drivers\peripheral\scb/cy_scb_spi.h **** * \param base
1080:Generated_Source\PSoC6\pdl\drivers\peripheral\scb/cy_scb_spi.h **** * The pointer to the SPI SCB instance.
1081:Generated_Source\PSoC6\pdl\drivers\peripheral\scb/cy_scb_spi.h **** *
1082:Generated_Source\PSoC6\pdl\drivers\peripheral\scb/cy_scb_spi.h **** * \return
1083:Generated_Source\PSoC6\pdl\drivers\peripheral\scb/cy_scb_spi.h **** * \ref group_scb_spi_macros_rx_fifo_status
1084:Generated_Source\PSoC6\pdl\drivers\peripheral\scb/cy_scb_spi.h **** *
1085:Generated_Source\PSoC6\pdl\drivers\peripheral\scb/cy_scb_spi.h **** *******************************************************************************/
1086:Generated_Source\PSoC6\pdl\drivers\peripheral\scb/cy_scb_spi.h **** __STATIC_INLINE uint32_t Cy_SCB_SPI_GetRxFifoStatus(CySCB_Type const *base)
1087:Generated_Source\PSoC6\pdl\drivers\peripheral\scb/cy_scb_spi.h **** {
1088:Generated_Source\PSoC6\pdl\drivers\peripheral\scb/cy_scb_spi.h ****     return (Cy_SCB_GetRxInterruptStatus(base) & CY_SCB_SPI_RX_INTR_MASK);
1089:Generated_Source\PSoC6\pdl\drivers\peripheral\scb/cy_scb_spi.h **** }
1090:Generated_Source\PSoC6\pdl\drivers\peripheral\scb/cy_scb_spi.h **** 
1091:Generated_Source\PSoC6\pdl\drivers\peripheral\scb/cy_scb_spi.h **** 
1092:Generated_Source\PSoC6\pdl\drivers\peripheral\scb/cy_scb_spi.h **** /*******************************************************************************
1093:Generated_Source\PSoC6\pdl\drivers\peripheral\scb/cy_scb_spi.h **** * Function Name: Cy_SCB_SPI_ClearRxFifoStatus
1094:Generated_Source\PSoC6\pdl\drivers\peripheral\scb/cy_scb_spi.h **** ****************************************************************************//**
1095:Generated_Source\PSoC6\pdl\drivers\peripheral\scb/cy_scb_spi.h **** *
1096:Generated_Source\PSoC6\pdl\drivers\peripheral\scb/cy_scb_spi.h **** * Clears the selected statuses of the RX FIFO.
1097:Generated_Source\PSoC6\pdl\drivers\peripheral\scb/cy_scb_spi.h **** *
1098:Generated_Source\PSoC6\pdl\drivers\peripheral\scb/cy_scb_spi.h **** * \param base
1099:Generated_Source\PSoC6\pdl\drivers\peripheral\scb/cy_scb_spi.h **** * The pointer to the SPI SCB instance.
1100:Generated_Source\PSoC6\pdl\drivers\peripheral\scb/cy_scb_spi.h **** *
1101:Generated_Source\PSoC6\pdl\drivers\peripheral\scb/cy_scb_spi.h **** * \param clearMask
1102:Generated_Source\PSoC6\pdl\drivers\peripheral\scb/cy_scb_spi.h **** * The mask of which statuses to clear.
1103:Generated_Source\PSoC6\pdl\drivers\peripheral\scb/cy_scb_spi.h **** * See \ref group_scb_spi_macros_rx_fifo_status for the set of constants.
1104:Generated_Source\PSoC6\pdl\drivers\peripheral\scb/cy_scb_spi.h **** *
1105:Generated_Source\PSoC6\pdl\drivers\peripheral\scb/cy_scb_spi.h **** * \note
1106:Generated_Source\PSoC6\pdl\drivers\peripheral\scb/cy_scb_spi.h **** * * This status is also used for interrupt generation, so clearing it also
1107:Generated_Source\PSoC6\pdl\drivers\peripheral\scb/cy_scb_spi.h **** *   clears the interrupt sources.
1108:Generated_Source\PSoC6\pdl\drivers\peripheral\scb/cy_scb_spi.h **** * * Level sensitive statuses such as \ref CY_SCB_SPI_RX_TRIGGER,
1109:Generated_Source\PSoC6\pdl\drivers\peripheral\scb/cy_scb_spi.h **** *   \ref CY_SCB_SPI_RX_NOT_EMPTY and \ref CY_SCB_SPI_RX_FULL set high again after
1110:Generated_Source\PSoC6\pdl\drivers\peripheral\scb/cy_scb_spi.h **** *   being cleared if the condition remains true.
1111:Generated_Source\PSoC6\pdl\drivers\peripheral\scb/cy_scb_spi.h **** *
1112:Generated_Source\PSoC6\pdl\drivers\peripheral\scb/cy_scb_spi.h **** *******************************************************************************/
1113:Generated_Source\PSoC6\pdl\drivers\peripheral\scb/cy_scb_spi.h **** __STATIC_INLINE void Cy_SCB_SPI_ClearRxFifoStatus(CySCB_Type *base, uint32_t clearMask)
1114:Generated_Source\PSoC6\pdl\drivers\peripheral\scb/cy_scb_spi.h **** {
1115:Generated_Source\PSoC6\pdl\drivers\peripheral\scb/cy_scb_spi.h ****     CY_ASSERT_L2(CY_SCB_IS_INTR_VALID(clearMask, CY_SCB_SPI_RX_INTR_MASK));
1116:Generated_Source\PSoC6\pdl\drivers\peripheral\scb/cy_scb_spi.h **** 
1117:Generated_Source\PSoC6\pdl\drivers\peripheral\scb/cy_scb_spi.h ****     Cy_SCB_ClearRxInterrupt(base, clearMask);
1118:Generated_Source\PSoC6\pdl\drivers\peripheral\scb/cy_scb_spi.h **** }
1119:Generated_Source\PSoC6\pdl\drivers\peripheral\scb/cy_scb_spi.h **** 
1120:Generated_Source\PSoC6\pdl\drivers\peripheral\scb/cy_scb_spi.h **** 
1121:Generated_Source\PSoC6\pdl\drivers\peripheral\scb/cy_scb_spi.h **** /*******************************************************************************
ARM GAS  C:\Users\mcfdo\AppData\Local\Temp\ccxaSBqv.s 			page 23


1122:Generated_Source\PSoC6\pdl\drivers\peripheral\scb/cy_scb_spi.h **** * Function Name: Cy_SCB_SPI_GetNumInRxFifo
1123:Generated_Source\PSoC6\pdl\drivers\peripheral\scb/cy_scb_spi.h **** ****************************************************************************//**
1124:Generated_Source\PSoC6\pdl\drivers\peripheral\scb/cy_scb_spi.h **** *
1125:Generated_Source\PSoC6\pdl\drivers\peripheral\scb/cy_scb_spi.h **** * Returns the number of data elements in the SPI RX FIFO.
1126:Generated_Source\PSoC6\pdl\drivers\peripheral\scb/cy_scb_spi.h **** *
1127:Generated_Source\PSoC6\pdl\drivers\peripheral\scb/cy_scb_spi.h **** * \param base
1128:Generated_Source\PSoC6\pdl\drivers\peripheral\scb/cy_scb_spi.h **** * The pointer to the SPI SCB instance.
1129:Generated_Source\PSoC6\pdl\drivers\peripheral\scb/cy_scb_spi.h **** *
1130:Generated_Source\PSoC6\pdl\drivers\peripheral\scb/cy_scb_spi.h **** * \return
1131:Generated_Source\PSoC6\pdl\drivers\peripheral\scb/cy_scb_spi.h **** * The number of data elements in the RX FIFO.
1132:Generated_Source\PSoC6\pdl\drivers\peripheral\scb/cy_scb_spi.h **** * The size of a data element defined by the configured RX data width.
1133:Generated_Source\PSoC6\pdl\drivers\peripheral\scb/cy_scb_spi.h **** *
1134:Generated_Source\PSoC6\pdl\drivers\peripheral\scb/cy_scb_spi.h **** * \note
1135:Generated_Source\PSoC6\pdl\drivers\peripheral\scb/cy_scb_spi.h **** * This number does not include any data currently in the RX shifter.
1136:Generated_Source\PSoC6\pdl\drivers\peripheral\scb/cy_scb_spi.h **** *
1137:Generated_Source\PSoC6\pdl\drivers\peripheral\scb/cy_scb_spi.h **** *******************************************************************************/
1138:Generated_Source\PSoC6\pdl\drivers\peripheral\scb/cy_scb_spi.h **** __STATIC_INLINE uint32_t Cy_SCB_SPI_GetNumInRxFifo(CySCB_Type const *base)
1139:Generated_Source\PSoC6\pdl\drivers\peripheral\scb/cy_scb_spi.h **** {
1140:Generated_Source\PSoC6\pdl\drivers\peripheral\scb/cy_scb_spi.h ****     return Cy_SCB_GetNumInRxFifo(base);
1141:Generated_Source\PSoC6\pdl\drivers\peripheral\scb/cy_scb_spi.h **** }
1142:Generated_Source\PSoC6\pdl\drivers\peripheral\scb/cy_scb_spi.h **** 
1143:Generated_Source\PSoC6\pdl\drivers\peripheral\scb/cy_scb_spi.h **** 
1144:Generated_Source\PSoC6\pdl\drivers\peripheral\scb/cy_scb_spi.h **** /*******************************************************************************
1145:Generated_Source\PSoC6\pdl\drivers\peripheral\scb/cy_scb_spi.h **** * Function Name: Cy_SCB_SPI_ClearRxFifo
1146:Generated_Source\PSoC6\pdl\drivers\peripheral\scb/cy_scb_spi.h **** ****************************************************************************//**
1147:Generated_Source\PSoC6\pdl\drivers\peripheral\scb/cy_scb_spi.h **** *
1148:Generated_Source\PSoC6\pdl\drivers\peripheral\scb/cy_scb_spi.h **** * Clears all data out of the SPI RX FIFO.
1149:Generated_Source\PSoC6\pdl\drivers\peripheral\scb/cy_scb_spi.h **** *
1150:Generated_Source\PSoC6\pdl\drivers\peripheral\scb/cy_scb_spi.h **** * \param base
1151:Generated_Source\PSoC6\pdl\drivers\peripheral\scb/cy_scb_spi.h **** * The pointer to the SPI SCB instance.
1152:Generated_Source\PSoC6\pdl\drivers\peripheral\scb/cy_scb_spi.h **** *
1153:Generated_Source\PSoC6\pdl\drivers\peripheral\scb/cy_scb_spi.h **** * \sideeffect
1154:Generated_Source\PSoC6\pdl\drivers\peripheral\scb/cy_scb_spi.h **** * Any data currently in the shifter is cleared and lost.
1155:Generated_Source\PSoC6\pdl\drivers\peripheral\scb/cy_scb_spi.h **** *
1156:Generated_Source\PSoC6\pdl\drivers\peripheral\scb/cy_scb_spi.h **** *******************************************************************************/
1157:Generated_Source\PSoC6\pdl\drivers\peripheral\scb/cy_scb_spi.h **** __STATIC_INLINE void Cy_SCB_SPI_ClearRxFifo(CySCB_Type *base)
1158:Generated_Source\PSoC6\pdl\drivers\peripheral\scb/cy_scb_spi.h **** {
1159:Generated_Source\PSoC6\pdl\drivers\peripheral\scb/cy_scb_spi.h ****     Cy_SCB_ClearRxFifo(base);
1160:Generated_Source\PSoC6\pdl\drivers\peripheral\scb/cy_scb_spi.h **** }
1161:Generated_Source\PSoC6\pdl\drivers\peripheral\scb/cy_scb_spi.h **** 
1162:Generated_Source\PSoC6\pdl\drivers\peripheral\scb/cy_scb_spi.h **** 
1163:Generated_Source\PSoC6\pdl\drivers\peripheral\scb/cy_scb_spi.h **** /*******************************************************************************
1164:Generated_Source\PSoC6\pdl\drivers\peripheral\scb/cy_scb_spi.h **** * Function Name: Cy_SCB_SPI_GetTxFifoStatus
1165:Generated_Source\PSoC6\pdl\drivers\peripheral\scb/cy_scb_spi.h **** ****************************************************************************//**
1166:Generated_Source\PSoC6\pdl\drivers\peripheral\scb/cy_scb_spi.h **** *
1167:Generated_Source\PSoC6\pdl\drivers\peripheral\scb/cy_scb_spi.h **** * Returns the current status of the TX FIFO.
1168:Generated_Source\PSoC6\pdl\drivers\peripheral\scb/cy_scb_spi.h **** *
1169:Generated_Source\PSoC6\pdl\drivers\peripheral\scb/cy_scb_spi.h **** * \param base
1170:Generated_Source\PSoC6\pdl\drivers\peripheral\scb/cy_scb_spi.h **** * The pointer to the SPI SCB instance.
1171:Generated_Source\PSoC6\pdl\drivers\peripheral\scb/cy_scb_spi.h **** *
1172:Generated_Source\PSoC6\pdl\drivers\peripheral\scb/cy_scb_spi.h **** * \return
1173:Generated_Source\PSoC6\pdl\drivers\peripheral\scb/cy_scb_spi.h **** * \ref group_scb_spi_macros_tx_fifo_status
1174:Generated_Source\PSoC6\pdl\drivers\peripheral\scb/cy_scb_spi.h **** *
1175:Generated_Source\PSoC6\pdl\drivers\peripheral\scb/cy_scb_spi.h **** *******************************************************************************/
1176:Generated_Source\PSoC6\pdl\drivers\peripheral\scb/cy_scb_spi.h **** __STATIC_INLINE uint32_t Cy_SCB_SPI_GetTxFifoStatus(CySCB_Type const *base)
1177:Generated_Source\PSoC6\pdl\drivers\peripheral\scb/cy_scb_spi.h **** {
1178:Generated_Source\PSoC6\pdl\drivers\peripheral\scb/cy_scb_spi.h ****     return (Cy_SCB_GetTxInterruptStatus(base) & CY_SCB_SPI_TX_INTR_MASK);
ARM GAS  C:\Users\mcfdo\AppData\Local\Temp\ccxaSBqv.s 			page 24


1179:Generated_Source\PSoC6\pdl\drivers\peripheral\scb/cy_scb_spi.h **** }
1180:Generated_Source\PSoC6\pdl\drivers\peripheral\scb/cy_scb_spi.h **** 
1181:Generated_Source\PSoC6\pdl\drivers\peripheral\scb/cy_scb_spi.h **** 
1182:Generated_Source\PSoC6\pdl\drivers\peripheral\scb/cy_scb_spi.h **** /*******************************************************************************
1183:Generated_Source\PSoC6\pdl\drivers\peripheral\scb/cy_scb_spi.h **** * Function Name: Cy_SCB_SPI_ClearTxFifoStatus
1184:Generated_Source\PSoC6\pdl\drivers\peripheral\scb/cy_scb_spi.h **** ****************************************************************************//**
1185:Generated_Source\PSoC6\pdl\drivers\peripheral\scb/cy_scb_spi.h **** *
1186:Generated_Source\PSoC6\pdl\drivers\peripheral\scb/cy_scb_spi.h **** * Clears the selected statuses of the TX FIFO.
1187:Generated_Source\PSoC6\pdl\drivers\peripheral\scb/cy_scb_spi.h **** *
1188:Generated_Source\PSoC6\pdl\drivers\peripheral\scb/cy_scb_spi.h **** * \param base
1189:Generated_Source\PSoC6\pdl\drivers\peripheral\scb/cy_scb_spi.h **** * The pointer to the SPI SCB instance.
1190:Generated_Source\PSoC6\pdl\drivers\peripheral\scb/cy_scb_spi.h **** *
1191:Generated_Source\PSoC6\pdl\drivers\peripheral\scb/cy_scb_spi.h **** * \param clearMask
1192:Generated_Source\PSoC6\pdl\drivers\peripheral\scb/cy_scb_spi.h **** * The mask of which statuses to clear.
1193:Generated_Source\PSoC6\pdl\drivers\peripheral\scb/cy_scb_spi.h **** * See \ref group_scb_spi_macros_tx_fifo_status for the set of constants.
1194:Generated_Source\PSoC6\pdl\drivers\peripheral\scb/cy_scb_spi.h **** *
1195:Generated_Source\PSoC6\pdl\drivers\peripheral\scb/cy_scb_spi.h **** * \note
1196:Generated_Source\PSoC6\pdl\drivers\peripheral\scb/cy_scb_spi.h **** * * The status is also used for interrupt generation, so clearing it also
1197:Generated_Source\PSoC6\pdl\drivers\peripheral\scb/cy_scb_spi.h **** *   clears the interrupt sources.
1198:Generated_Source\PSoC6\pdl\drivers\peripheral\scb/cy_scb_spi.h **** * * Level sensitive statuses such as \ref CY_SCB_SPI_TX_TRIGGER,
1199:Generated_Source\PSoC6\pdl\drivers\peripheral\scb/cy_scb_spi.h **** *   \ref CY_SCB_SPI_TX_EMPTY and \ref CY_SCB_SPI_TX_NOT_FULL set high again after
1200:Generated_Source\PSoC6\pdl\drivers\peripheral\scb/cy_scb_spi.h **** *   being cleared if the condition remains true.
1201:Generated_Source\PSoC6\pdl\drivers\peripheral\scb/cy_scb_spi.h **** *
1202:Generated_Source\PSoC6\pdl\drivers\peripheral\scb/cy_scb_spi.h **** *******************************************************************************/
1203:Generated_Source\PSoC6\pdl\drivers\peripheral\scb/cy_scb_spi.h **** __STATIC_INLINE void Cy_SCB_SPI_ClearTxFifoStatus(CySCB_Type *base, uint32_t clearMask)
1204:Generated_Source\PSoC6\pdl\drivers\peripheral\scb/cy_scb_spi.h **** {
1205:Generated_Source\PSoC6\pdl\drivers\peripheral\scb/cy_scb_spi.h ****     CY_ASSERT_L2(CY_SCB_IS_INTR_VALID(clearMask, CY_SCB_SPI_TX_INTR_MASK));
1206:Generated_Source\PSoC6\pdl\drivers\peripheral\scb/cy_scb_spi.h **** 
1207:Generated_Source\PSoC6\pdl\drivers\peripheral\scb/cy_scb_spi.h ****     Cy_SCB_ClearTxInterrupt(base, clearMask);
1208:Generated_Source\PSoC6\pdl\drivers\peripheral\scb/cy_scb_spi.h **** }
1209:Generated_Source\PSoC6\pdl\drivers\peripheral\scb/cy_scb_spi.h **** 
1210:Generated_Source\PSoC6\pdl\drivers\peripheral\scb/cy_scb_spi.h **** 
1211:Generated_Source\PSoC6\pdl\drivers\peripheral\scb/cy_scb_spi.h **** /*******************************************************************************
1212:Generated_Source\PSoC6\pdl\drivers\peripheral\scb/cy_scb_spi.h **** * Function Name: Cy_SCB_SPI_GetNumInTxFifo
1213:Generated_Source\PSoC6\pdl\drivers\peripheral\scb/cy_scb_spi.h **** ****************************************************************************//**
1214:Generated_Source\PSoC6\pdl\drivers\peripheral\scb/cy_scb_spi.h **** *
1215:Generated_Source\PSoC6\pdl\drivers\peripheral\scb/cy_scb_spi.h **** * Returns the number of data elements in the SPI TX FIFO.
1216:Generated_Source\PSoC6\pdl\drivers\peripheral\scb/cy_scb_spi.h **** *
1217:Generated_Source\PSoC6\pdl\drivers\peripheral\scb/cy_scb_spi.h **** * \param base
1218:Generated_Source\PSoC6\pdl\drivers\peripheral\scb/cy_scb_spi.h **** * The pointer to the SPI SCB instance.
1219:Generated_Source\PSoC6\pdl\drivers\peripheral\scb/cy_scb_spi.h **** *
1220:Generated_Source\PSoC6\pdl\drivers\peripheral\scb/cy_scb_spi.h **** * \return
1221:Generated_Source\PSoC6\pdl\drivers\peripheral\scb/cy_scb_spi.h **** * The number of data elements in the TX FIFO.
1222:Generated_Source\PSoC6\pdl\drivers\peripheral\scb/cy_scb_spi.h **** * The size of a data element defined by the configured TX data width.
1223:Generated_Source\PSoC6\pdl\drivers\peripheral\scb/cy_scb_spi.h **** *
1224:Generated_Source\PSoC6\pdl\drivers\peripheral\scb/cy_scb_spi.h **** * \note
1225:Generated_Source\PSoC6\pdl\drivers\peripheral\scb/cy_scb_spi.h **** * This number does not include any data currently in the TX shifter.
1226:Generated_Source\PSoC6\pdl\drivers\peripheral\scb/cy_scb_spi.h **** *
1227:Generated_Source\PSoC6\pdl\drivers\peripheral\scb/cy_scb_spi.h **** *******************************************************************************/
1228:Generated_Source\PSoC6\pdl\drivers\peripheral\scb/cy_scb_spi.h **** __STATIC_INLINE uint32_t Cy_SCB_SPI_GetNumInTxFifo(CySCB_Type const *base)
1229:Generated_Source\PSoC6\pdl\drivers\peripheral\scb/cy_scb_spi.h **** {
1230:Generated_Source\PSoC6\pdl\drivers\peripheral\scb/cy_scb_spi.h ****     return Cy_SCB_GetNumInTxFifo(base);
1231:Generated_Source\PSoC6\pdl\drivers\peripheral\scb/cy_scb_spi.h **** }
1232:Generated_Source\PSoC6\pdl\drivers\peripheral\scb/cy_scb_spi.h **** 
1233:Generated_Source\PSoC6\pdl\drivers\peripheral\scb/cy_scb_spi.h **** 
1234:Generated_Source\PSoC6\pdl\drivers\peripheral\scb/cy_scb_spi.h **** /*******************************************************************************
1235:Generated_Source\PSoC6\pdl\drivers\peripheral\scb/cy_scb_spi.h **** * Function Name: Cy_SCB_SPI_IsTxComplete
ARM GAS  C:\Users\mcfdo\AppData\Local\Temp\ccxaSBqv.s 			page 25


1236:Generated_Source\PSoC6\pdl\drivers\peripheral\scb/cy_scb_spi.h **** ****************************************************************************//**
1237:Generated_Source\PSoC6\pdl\drivers\peripheral\scb/cy_scb_spi.h **** *
1238:Generated_Source\PSoC6\pdl\drivers\peripheral\scb/cy_scb_spi.h **** * Checks whether the TX FIFO and Shifter are empty and there is no more data to send
1239:Generated_Source\PSoC6\pdl\drivers\peripheral\scb/cy_scb_spi.h **** *
1240:Generated_Source\PSoC6\pdl\drivers\peripheral\scb/cy_scb_spi.h **** * \param base
1241:Generated_Source\PSoC6\pdl\drivers\peripheral\scb/cy_scb_spi.h **** * Pointer to the SPI SCB instance.
1242:Generated_Source\PSoC6\pdl\drivers\peripheral\scb/cy_scb_spi.h **** *
1243:Generated_Source\PSoC6\pdl\drivers\peripheral\scb/cy_scb_spi.h **** * \return
1244:Generated_Source\PSoC6\pdl\drivers\peripheral\scb/cy_scb_spi.h **** * If true, transmission complete. If false, transmission is not complete.
1245:Generated_Source\PSoC6\pdl\drivers\peripheral\scb/cy_scb_spi.h **** *
1246:Generated_Source\PSoC6\pdl\drivers\peripheral\scb/cy_scb_spi.h **** *******************************************************************************/
1247:Generated_Source\PSoC6\pdl\drivers\peripheral\scb/cy_scb_spi.h **** __STATIC_INLINE bool Cy_SCB_SPI_IsTxComplete(CySCB_Type const *base)
1248:Generated_Source\PSoC6\pdl\drivers\peripheral\scb/cy_scb_spi.h **** {
1249:Generated_Source\PSoC6\pdl\drivers\peripheral\scb/cy_scb_spi.h ****     return Cy_SCB_IsTxComplete(base);
1250:Generated_Source\PSoC6\pdl\drivers\peripheral\scb/cy_scb_spi.h **** }
1251:Generated_Source\PSoC6\pdl\drivers\peripheral\scb/cy_scb_spi.h **** 
1252:Generated_Source\PSoC6\pdl\drivers\peripheral\scb/cy_scb_spi.h **** 
1253:Generated_Source\PSoC6\pdl\drivers\peripheral\scb/cy_scb_spi.h **** /*******************************************************************************
1254:Generated_Source\PSoC6\pdl\drivers\peripheral\scb/cy_scb_spi.h **** * Function Name: Cy_SCB_SPI_ClearTxFifo
1255:Generated_Source\PSoC6\pdl\drivers\peripheral\scb/cy_scb_spi.h **** ****************************************************************************//**
1256:Generated_Source\PSoC6\pdl\drivers\peripheral\scb/cy_scb_spi.h **** *
1257:Generated_Source\PSoC6\pdl\drivers\peripheral\scb/cy_scb_spi.h **** * Clears all data out of the SPI TX FIFO.
1258:Generated_Source\PSoC6\pdl\drivers\peripheral\scb/cy_scb_spi.h **** *
1259:Generated_Source\PSoC6\pdl\drivers\peripheral\scb/cy_scb_spi.h **** * \param base
1260:Generated_Source\PSoC6\pdl\drivers\peripheral\scb/cy_scb_spi.h **** * The pointer to the SPI SCB instance.
1261:Generated_Source\PSoC6\pdl\drivers\peripheral\scb/cy_scb_spi.h **** *
1262:Generated_Source\PSoC6\pdl\drivers\peripheral\scb/cy_scb_spi.h **** * \sideeffect
1263:Generated_Source\PSoC6\pdl\drivers\peripheral\scb/cy_scb_spi.h **** * The TX FIFO clear operation also clears the shift register;
1264:Generated_Source\PSoC6\pdl\drivers\peripheral\scb/cy_scb_spi.h **** * the shifter can be cleared in the middle of a data element transfer,
1265:Generated_Source\PSoC6\pdl\drivers\peripheral\scb/cy_scb_spi.h **** * corrupting it. The data element corruption means that all bits that have
1266:Generated_Source\PSoC6\pdl\drivers\peripheral\scb/cy_scb_spi.h **** * not been transmitted are transmitted as 1s on the bus.
1267:Generated_Source\PSoC6\pdl\drivers\peripheral\scb/cy_scb_spi.h **** *
1268:Generated_Source\PSoC6\pdl\drivers\peripheral\scb/cy_scb_spi.h **** *******************************************************************************/
1269:Generated_Source\PSoC6\pdl\drivers\peripheral\scb/cy_scb_spi.h **** __STATIC_INLINE void Cy_SCB_SPI_ClearTxFifo(CySCB_Type *base)
1270:Generated_Source\PSoC6\pdl\drivers\peripheral\scb/cy_scb_spi.h **** {
1271:Generated_Source\PSoC6\pdl\drivers\peripheral\scb/cy_scb_spi.h ****     Cy_SCB_ClearTxFifo(base);
1272:Generated_Source\PSoC6\pdl\drivers\peripheral\scb/cy_scb_spi.h **** }
1273:Generated_Source\PSoC6\pdl\drivers\peripheral\scb/cy_scb_spi.h **** 
1274:Generated_Source\PSoC6\pdl\drivers\peripheral\scb/cy_scb_spi.h **** 
1275:Generated_Source\PSoC6\pdl\drivers\peripheral\scb/cy_scb_spi.h **** /*******************************************************************************
1276:Generated_Source\PSoC6\pdl\drivers\peripheral\scb/cy_scb_spi.h **** * Function Name: Cy_SCB_SPI_GetSlaveMasterStatus
1277:Generated_Source\PSoC6\pdl\drivers\peripheral\scb/cy_scb_spi.h **** ****************************************************************************//**
1278:Generated_Source\PSoC6\pdl\drivers\peripheral\scb/cy_scb_spi.h **** *
1279:Generated_Source\PSoC6\pdl\drivers\peripheral\scb/cy_scb_spi.h **** * Returns the current status of either the slave or the master, depending
1280:Generated_Source\PSoC6\pdl\drivers\peripheral\scb/cy_scb_spi.h **** * on the configured SPI mode.
1281:Generated_Source\PSoC6\pdl\drivers\peripheral\scb/cy_scb_spi.h **** *
1282:Generated_Source\PSoC6\pdl\drivers\peripheral\scb/cy_scb_spi.h **** * \param base
1283:Generated_Source\PSoC6\pdl\drivers\peripheral\scb/cy_scb_spi.h **** * The pointer to the SPI SCB instance.
1284:Generated_Source\PSoC6\pdl\drivers\peripheral\scb/cy_scb_spi.h **** *
1285:Generated_Source\PSoC6\pdl\drivers\peripheral\scb/cy_scb_spi.h **** * \return
1286:Generated_Source\PSoC6\pdl\drivers\peripheral\scb/cy_scb_spi.h **** * \ref group_scb_spi_macros_master_slave_status
1287:Generated_Source\PSoC6\pdl\drivers\peripheral\scb/cy_scb_spi.h **** *
1288:Generated_Source\PSoC6\pdl\drivers\peripheral\scb/cy_scb_spi.h **** *******************************************************************************/
1289:Generated_Source\PSoC6\pdl\drivers\peripheral\scb/cy_scb_spi.h **** __STATIC_INLINE uint32_t Cy_SCB_SPI_GetSlaveMasterStatus(CySCB_Type const *base)
1290:Generated_Source\PSoC6\pdl\drivers\peripheral\scb/cy_scb_spi.h **** {
1291:Generated_Source\PSoC6\pdl\drivers\peripheral\scb/cy_scb_spi.h ****     uint32_t retStatus;
1292:Generated_Source\PSoC6\pdl\drivers\peripheral\scb/cy_scb_spi.h **** 
ARM GAS  C:\Users\mcfdo\AppData\Local\Temp\ccxaSBqv.s 			page 26


1293:Generated_Source\PSoC6\pdl\drivers\peripheral\scb/cy_scb_spi.h ****     if (_FLD2BOOL(SCB_SPI_CTRL_MASTER_MODE, SCB_SPI_CTRL(base)))
1294:Generated_Source\PSoC6\pdl\drivers\peripheral\scb/cy_scb_spi.h ****     {
1295:Generated_Source\PSoC6\pdl\drivers\peripheral\scb/cy_scb_spi.h ****         retStatus = (Cy_SCB_GetMasterInterruptStatus(base) & CY_SCB_MASTER_INTR_SPI_DONE);
1296:Generated_Source\PSoC6\pdl\drivers\peripheral\scb/cy_scb_spi.h ****     }
1297:Generated_Source\PSoC6\pdl\drivers\peripheral\scb/cy_scb_spi.h ****     else
1298:Generated_Source\PSoC6\pdl\drivers\peripheral\scb/cy_scb_spi.h ****     {
1299:Generated_Source\PSoC6\pdl\drivers\peripheral\scb/cy_scb_spi.h ****         retStatus = (Cy_SCB_GetSlaveInterruptStatus(base) & CY_SCB_SLAVE_INTR_SPI_BUS_ERROR);
1300:Generated_Source\PSoC6\pdl\drivers\peripheral\scb/cy_scb_spi.h ****     }
1301:Generated_Source\PSoC6\pdl\drivers\peripheral\scb/cy_scb_spi.h **** 
1302:Generated_Source\PSoC6\pdl\drivers\peripheral\scb/cy_scb_spi.h ****     return (retStatus);
1303:Generated_Source\PSoC6\pdl\drivers\peripheral\scb/cy_scb_spi.h **** }
1304:Generated_Source\PSoC6\pdl\drivers\peripheral\scb/cy_scb_spi.h **** 
1305:Generated_Source\PSoC6\pdl\drivers\peripheral\scb/cy_scb_spi.h **** 
1306:Generated_Source\PSoC6\pdl\drivers\peripheral\scb/cy_scb_spi.h **** /*******************************************************************************
1307:Generated_Source\PSoC6\pdl\drivers\peripheral\scb/cy_scb_spi.h **** * Function Name: Cy_SCB_SPI_ClearSlaveMasterStatus
1308:Generated_Source\PSoC6\pdl\drivers\peripheral\scb/cy_scb_spi.h **** ****************************************************************************//**
1309:Generated_Source\PSoC6\pdl\drivers\peripheral\scb/cy_scb_spi.h **** *
1310:Generated_Source\PSoC6\pdl\drivers\peripheral\scb/cy_scb_spi.h **** * Clears the selected statuses of either the slave or the master.
1311:Generated_Source\PSoC6\pdl\drivers\peripheral\scb/cy_scb_spi.h **** *
1312:Generated_Source\PSoC6\pdl\drivers\peripheral\scb/cy_scb_spi.h **** * \param base
1313:Generated_Source\PSoC6\pdl\drivers\peripheral\scb/cy_scb_spi.h **** * The pointer to the SPI SCB instance.
1314:Generated_Source\PSoC6\pdl\drivers\peripheral\scb/cy_scb_spi.h **** *
1315:Generated_Source\PSoC6\pdl\drivers\peripheral\scb/cy_scb_spi.h **** * \param clearMask
1316:Generated_Source\PSoC6\pdl\drivers\peripheral\scb/cy_scb_spi.h **** * The mask of which statuses to clear.
1317:Generated_Source\PSoC6\pdl\drivers\peripheral\scb/cy_scb_spi.h **** * See \ref group_scb_spi_macros_master_slave_status for the set of constants.
1318:Generated_Source\PSoC6\pdl\drivers\peripheral\scb/cy_scb_spi.h **** *
1319:Generated_Source\PSoC6\pdl\drivers\peripheral\scb/cy_scb_spi.h **** *******************************************************************************/
1320:Generated_Source\PSoC6\pdl\drivers\peripheral\scb/cy_scb_spi.h **** __STATIC_INLINE void Cy_SCB_SPI_ClearSlaveMasterStatus(CySCB_Type *base, uint32_t clearMask)
1321:Generated_Source\PSoC6\pdl\drivers\peripheral\scb/cy_scb_spi.h **** {
1322:Generated_Source\PSoC6\pdl\drivers\peripheral\scb/cy_scb_spi.h ****     if (_FLD2BOOL(SCB_SPI_CTRL_MASTER_MODE, SCB_SPI_CTRL(base)))
1323:Generated_Source\PSoC6\pdl\drivers\peripheral\scb/cy_scb_spi.h ****     {
1324:Generated_Source\PSoC6\pdl\drivers\peripheral\scb/cy_scb_spi.h ****         CY_ASSERT_L2(CY_SCB_IS_INTR_VALID(clearMask, CY_SCB_MASTER_INTR_SPI_DONE));
1325:Generated_Source\PSoC6\pdl\drivers\peripheral\scb/cy_scb_spi.h **** 
1326:Generated_Source\PSoC6\pdl\drivers\peripheral\scb/cy_scb_spi.h ****         Cy_SCB_ClearMasterInterrupt(base, clearMask);
1327:Generated_Source\PSoC6\pdl\drivers\peripheral\scb/cy_scb_spi.h ****     }
1328:Generated_Source\PSoC6\pdl\drivers\peripheral\scb/cy_scb_spi.h ****     else
1329:Generated_Source\PSoC6\pdl\drivers\peripheral\scb/cy_scb_spi.h ****     {
1330:Generated_Source\PSoC6\pdl\drivers\peripheral\scb/cy_scb_spi.h ****         CY_ASSERT_L2(CY_SCB_IS_INTR_VALID(clearMask, CY_SCB_SLAVE_INTR_SPI_BUS_ERROR));
1331:Generated_Source\PSoC6\pdl\drivers\peripheral\scb/cy_scb_spi.h **** 
1332:Generated_Source\PSoC6\pdl\drivers\peripheral\scb/cy_scb_spi.h ****         Cy_SCB_ClearSlaveInterrupt(base, clearMask);
1333:Generated_Source\PSoC6\pdl\drivers\peripheral\scb/cy_scb_spi.h ****     }
1334:Generated_Source\PSoC6\pdl\drivers\peripheral\scb/cy_scb_spi.h **** }
1335:Generated_Source\PSoC6\pdl\drivers\peripheral\scb/cy_scb_spi.h **** 
1336:Generated_Source\PSoC6\pdl\drivers\peripheral\scb/cy_scb_spi.h **** 
1337:Generated_Source\PSoC6\pdl\drivers\peripheral\scb/cy_scb_spi.h **** /*******************************************************************************
1338:Generated_Source\PSoC6\pdl\drivers\peripheral\scb/cy_scb_spi.h **** * Function Name: Cy_SCB_SPI_Read
1339:Generated_Source\PSoC6\pdl\drivers\peripheral\scb/cy_scb_spi.h **** ****************************************************************************//**
1340:Generated_Source\PSoC6\pdl\drivers\peripheral\scb/cy_scb_spi.h **** *
1341:Generated_Source\PSoC6\pdl\drivers\peripheral\scb/cy_scb_spi.h **** * Reads a single data element from the SPI RX FIFO.
1342:Generated_Source\PSoC6\pdl\drivers\peripheral\scb/cy_scb_spi.h **** * This function does not check whether the RX FIFO has data before reading it.
1343:Generated_Source\PSoC6\pdl\drivers\peripheral\scb/cy_scb_spi.h **** * If the RX FIFO is empty, the function returns \ref CY_SCB_SPI_RX_NO_DATA.
1344:Generated_Source\PSoC6\pdl\drivers\peripheral\scb/cy_scb_spi.h **** *
1345:Generated_Source\PSoC6\pdl\drivers\peripheral\scb/cy_scb_spi.h **** * \param base
1346:Generated_Source\PSoC6\pdl\drivers\peripheral\scb/cy_scb_spi.h **** * The pointer to the SPI SCB instance.
1347:Generated_Source\PSoC6\pdl\drivers\peripheral\scb/cy_scb_spi.h **** *
1348:Generated_Source\PSoC6\pdl\drivers\peripheral\scb/cy_scb_spi.h **** * \return
1349:Generated_Source\PSoC6\pdl\drivers\peripheral\scb/cy_scb_spi.h **** * Data from the RX FIFO.
ARM GAS  C:\Users\mcfdo\AppData\Local\Temp\ccxaSBqv.s 			page 27


1350:Generated_Source\PSoC6\pdl\drivers\peripheral\scb/cy_scb_spi.h **** * The data element size is defined by the configured RX data width.
1351:Generated_Source\PSoC6\pdl\drivers\peripheral\scb/cy_scb_spi.h **** *
1352:Generated_Source\PSoC6\pdl\drivers\peripheral\scb/cy_scb_spi.h **** * \note
1353:Generated_Source\PSoC6\pdl\drivers\peripheral\scb/cy_scb_spi.h **** * * This function only reads data available in the RX FIFO. It does not
1354:Generated_Source\PSoC6\pdl\drivers\peripheral\scb/cy_scb_spi.h **** *   initiate an SPI transfer.
1355:Generated_Source\PSoC6\pdl\drivers\peripheral\scb/cy_scb_spi.h **** * * When in the master mode, this function writes data into the TX FIFO and 
1356:Generated_Source\PSoC6\pdl\drivers\peripheral\scb/cy_scb_spi.h **** *   waits until the transfer is completed before reading data from the RX FIFO.
1357:Generated_Source\PSoC6\pdl\drivers\peripheral\scb/cy_scb_spi.h **** *
1358:Generated_Source\PSoC6\pdl\drivers\peripheral\scb/cy_scb_spi.h **** *******************************************************************************/
1359:Generated_Source\PSoC6\pdl\drivers\peripheral\scb/cy_scb_spi.h **** __STATIC_INLINE uint32_t Cy_SCB_SPI_Read(CySCB_Type const *base)
1360:Generated_Source\PSoC6\pdl\drivers\peripheral\scb/cy_scb_spi.h **** {
1361:Generated_Source\PSoC6\pdl\drivers\peripheral\scb/cy_scb_spi.h ****     return Cy_SCB_ReadRxFifo(base);
1362:Generated_Source\PSoC6\pdl\drivers\peripheral\scb/cy_scb_spi.h **** }
1363:Generated_Source\PSoC6\pdl\drivers\peripheral\scb/cy_scb_spi.h **** 
1364:Generated_Source\PSoC6\pdl\drivers\peripheral\scb/cy_scb_spi.h **** 
1365:Generated_Source\PSoC6\pdl\drivers\peripheral\scb/cy_scb_spi.h **** /*******************************************************************************
1366:Generated_Source\PSoC6\pdl\drivers\peripheral\scb/cy_scb_spi.h **** * Function Name: Cy_SCB_SPI_ReadArray
1367:Generated_Source\PSoC6\pdl\drivers\peripheral\scb/cy_scb_spi.h **** ****************************************************************************//**
1368:Generated_Source\PSoC6\pdl\drivers\peripheral\scb/cy_scb_spi.h **** *
1369:Generated_Source\PSoC6\pdl\drivers\peripheral\scb/cy_scb_spi.h **** * Reads an array of data out of the SPI RX FIFO.
1370:Generated_Source\PSoC6\pdl\drivers\peripheral\scb/cy_scb_spi.h **** * This function does not block. It returns how many data elements were read
1371:Generated_Source\PSoC6\pdl\drivers\peripheral\scb/cy_scb_spi.h **** * from the RX FIFO.
1372:Generated_Source\PSoC6\pdl\drivers\peripheral\scb/cy_scb_spi.h **** *
1373:Generated_Source\PSoC6\pdl\drivers\peripheral\scb/cy_scb_spi.h **** * \param base
1374:Generated_Source\PSoC6\pdl\drivers\peripheral\scb/cy_scb_spi.h **** * The pointer to the SPI SCB instance.
1375:Generated_Source\PSoC6\pdl\drivers\peripheral\scb/cy_scb_spi.h **** *
1376:Generated_Source\PSoC6\pdl\drivers\peripheral\scb/cy_scb_spi.h **** * \param buffer
1377:Generated_Source\PSoC6\pdl\drivers\peripheral\scb/cy_scb_spi.h **** * The pointer to the location to place data read from the RX FIFO.
1378:Generated_Source\PSoC6\pdl\drivers\peripheral\scb/cy_scb_spi.h **** * The element size is defined by the data type, which depends on the configured
1379:Generated_Source\PSoC6\pdl\drivers\peripheral\scb/cy_scb_spi.h **** * RX data width.
1380:Generated_Source\PSoC6\pdl\drivers\peripheral\scb/cy_scb_spi.h **** *
1381:Generated_Source\PSoC6\pdl\drivers\peripheral\scb/cy_scb_spi.h **** * \param size
1382:Generated_Source\PSoC6\pdl\drivers\peripheral\scb/cy_scb_spi.h **** * The number of data elements to read from the RX FIFO.
1383:Generated_Source\PSoC6\pdl\drivers\peripheral\scb/cy_scb_spi.h **** *
1384:Generated_Source\PSoC6\pdl\drivers\peripheral\scb/cy_scb_spi.h **** * \return
1385:Generated_Source\PSoC6\pdl\drivers\peripheral\scb/cy_scb_spi.h **** * The number of data elements read from the RX FIFO.
1386:Generated_Source\PSoC6\pdl\drivers\peripheral\scb/cy_scb_spi.h **** *
1387:Generated_Source\PSoC6\pdl\drivers\peripheral\scb/cy_scb_spi.h **** * \note
1388:Generated_Source\PSoC6\pdl\drivers\peripheral\scb/cy_scb_spi.h **** * * This function only reads data available in the RX FIFO. It does not
1389:Generated_Source\PSoC6\pdl\drivers\peripheral\scb/cy_scb_spi.h **** *   initiate an SPI transfer.
1390:Generated_Source\PSoC6\pdl\drivers\peripheral\scb/cy_scb_spi.h **** * * When in the master mode, this function writes data into the TX FIFO and 
1391:Generated_Source\PSoC6\pdl\drivers\peripheral\scb/cy_scb_spi.h **** *   waits until the transfer is completed before reading data from the RX FIFO.
1392:Generated_Source\PSoC6\pdl\drivers\peripheral\scb/cy_scb_spi.h **** *
1393:Generated_Source\PSoC6\pdl\drivers\peripheral\scb/cy_scb_spi.h **** *******************************************************************************/
1394:Generated_Source\PSoC6\pdl\drivers\peripheral\scb/cy_scb_spi.h **** __STATIC_INLINE uint32_t Cy_SCB_SPI_ReadArray(CySCB_Type const *base, void *buffer, uint32_t size)
1395:Generated_Source\PSoC6\pdl\drivers\peripheral\scb/cy_scb_spi.h **** {
1396:Generated_Source\PSoC6\pdl\drivers\peripheral\scb/cy_scb_spi.h ****     CY_ASSERT_L1(CY_SCB_IS_BUFFER_VALID(buffer, size));
1397:Generated_Source\PSoC6\pdl\drivers\peripheral\scb/cy_scb_spi.h **** 
1398:Generated_Source\PSoC6\pdl\drivers\peripheral\scb/cy_scb_spi.h ****     return Cy_SCB_ReadArray(base, buffer, size);
1399:Generated_Source\PSoC6\pdl\drivers\peripheral\scb/cy_scb_spi.h **** }
1400:Generated_Source\PSoC6\pdl\drivers\peripheral\scb/cy_scb_spi.h **** 
1401:Generated_Source\PSoC6\pdl\drivers\peripheral\scb/cy_scb_spi.h **** 
1402:Generated_Source\PSoC6\pdl\drivers\peripheral\scb/cy_scb_spi.h **** /*******************************************************************************
1403:Generated_Source\PSoC6\pdl\drivers\peripheral\scb/cy_scb_spi.h **** * Function Name: Cy_SCB_SPI_Write
1404:Generated_Source\PSoC6\pdl\drivers\peripheral\scb/cy_scb_spi.h **** ****************************************************************************//**
1405:Generated_Source\PSoC6\pdl\drivers\peripheral\scb/cy_scb_spi.h **** *
1406:Generated_Source\PSoC6\pdl\drivers\peripheral\scb/cy_scb_spi.h **** * Places a single data element in the SPI TX FIFO.
ARM GAS  C:\Users\mcfdo\AppData\Local\Temp\ccxaSBqv.s 			page 28


1407:Generated_Source\PSoC6\pdl\drivers\peripheral\scb/cy_scb_spi.h **** * This function does not block. It returns how many data elements were placed
1408:Generated_Source\PSoC6\pdl\drivers\peripheral\scb/cy_scb_spi.h **** * in the TX FIFO.
1409:Generated_Source\PSoC6\pdl\drivers\peripheral\scb/cy_scb_spi.h **** *
1410:Generated_Source\PSoC6\pdl\drivers\peripheral\scb/cy_scb_spi.h **** * \param base
1411:Generated_Source\PSoC6\pdl\drivers\peripheral\scb/cy_scb_spi.h **** * The pointer to the SPI SCB instance.
1412:Generated_Source\PSoC6\pdl\drivers\peripheral\scb/cy_scb_spi.h **** *
1413:Generated_Source\PSoC6\pdl\drivers\peripheral\scb/cy_scb_spi.h **** * \param data
1414:Generated_Source\PSoC6\pdl\drivers\peripheral\scb/cy_scb_spi.h **** * Data to put in the TX FIFO.
1415:Generated_Source\PSoC6\pdl\drivers\peripheral\scb/cy_scb_spi.h **** * The element size is defined by the data type, which depends on the configured
1416:Generated_Source\PSoC6\pdl\drivers\peripheral\scb/cy_scb_spi.h **** * TX data width.
1417:Generated_Source\PSoC6\pdl\drivers\peripheral\scb/cy_scb_spi.h **** *
1418:Generated_Source\PSoC6\pdl\drivers\peripheral\scb/cy_scb_spi.h **** * \return
1419:Generated_Source\PSoC6\pdl\drivers\peripheral\scb/cy_scb_spi.h **** * The number of data elements placed in the TX FIFO: 0 or 1.
1420:Generated_Source\PSoC6\pdl\drivers\peripheral\scb/cy_scb_spi.h **** *
1421:Generated_Source\PSoC6\pdl\drivers\peripheral\scb/cy_scb_spi.h **** * \note
1422:Generated_Source\PSoC6\pdl\drivers\peripheral\scb/cy_scb_spi.h **** * * When in the master mode, writing data into the TX FIFO starts an SPI
1423:Generated_Source\PSoC6\pdl\drivers\peripheral\scb/cy_scb_spi.h **** *   transfer.
1424:Generated_Source\PSoC6\pdl\drivers\peripheral\scb/cy_scb_spi.h **** * * When in the slave mode, writing data into the TX FIFO does not start
1425:Generated_Source\PSoC6\pdl\drivers\peripheral\scb/cy_scb_spi.h **** *   an SPI transfer. The data is loaded in the TX FIFO and will be sent
1426:Generated_Source\PSoC6\pdl\drivers\peripheral\scb/cy_scb_spi.h **** *   to the master on its request.
1427:Generated_Source\PSoC6\pdl\drivers\peripheral\scb/cy_scb_spi.h **** * * The SPI interface is full-duplex, therefore reads and writes occur
1428:Generated_Source\PSoC6\pdl\drivers\peripheral\scb/cy_scb_spi.h **** *   at the same time. Thus, for every data element transferred out of the
1429:Generated_Source\PSoC6\pdl\drivers\peripheral\scb/cy_scb_spi.h **** *   TX FIFO, one is transferred into the RX FIFO.
1430:Generated_Source\PSoC6\pdl\drivers\peripheral\scb/cy_scb_spi.h **** *
1431:Generated_Source\PSoC6\pdl\drivers\peripheral\scb/cy_scb_spi.h **** *******************************************************************************/
1432:Generated_Source\PSoC6\pdl\drivers\peripheral\scb/cy_scb_spi.h **** __STATIC_INLINE uint32_t Cy_SCB_SPI_Write(CySCB_Type *base, uint32_t data)
1433:Generated_Source\PSoC6\pdl\drivers\peripheral\scb/cy_scb_spi.h **** {
1434:Generated_Source\PSoC6\pdl\drivers\peripheral\scb/cy_scb_spi.h ****     return Cy_SCB_Write(base, data);
1435:Generated_Source\PSoC6\pdl\drivers\peripheral\scb/cy_scb_spi.h **** }
1436:Generated_Source\PSoC6\pdl\drivers\peripheral\scb/cy_scb_spi.h **** 
1437:Generated_Source\PSoC6\pdl\drivers\peripheral\scb/cy_scb_spi.h **** 
1438:Generated_Source\PSoC6\pdl\drivers\peripheral\scb/cy_scb_spi.h **** /*******************************************************************************
1439:Generated_Source\PSoC6\pdl\drivers\peripheral\scb/cy_scb_spi.h **** * Function Name: Cy_SCB_SPI_WriteArray
1440:Generated_Source\PSoC6\pdl\drivers\peripheral\scb/cy_scb_spi.h **** ****************************************************************************//**
1441:Generated_Source\PSoC6\pdl\drivers\peripheral\scb/cy_scb_spi.h **** *
1442:Generated_Source\PSoC6\pdl\drivers\peripheral\scb/cy_scb_spi.h **** * Places an array of data in the SPI TX FIFO. This function does not
1443:Generated_Source\PSoC6\pdl\drivers\peripheral\scb/cy_scb_spi.h **** * block. It returns how many data elements were placed in the TX FIFO.
1444:Generated_Source\PSoC6\pdl\drivers\peripheral\scb/cy_scb_spi.h **** *
1445:Generated_Source\PSoC6\pdl\drivers\peripheral\scb/cy_scb_spi.h **** * \param base
1446:Generated_Source\PSoC6\pdl\drivers\peripheral\scb/cy_scb_spi.h **** * The pointer to the SPI SCB instance.
1447:Generated_Source\PSoC6\pdl\drivers\peripheral\scb/cy_scb_spi.h **** *
1448:Generated_Source\PSoC6\pdl\drivers\peripheral\scb/cy_scb_spi.h **** * \param buffer
1449:Generated_Source\PSoC6\pdl\drivers\peripheral\scb/cy_scb_spi.h **** * The pointer to the data to place in the TX FIFO.
1450:Generated_Source\PSoC6\pdl\drivers\peripheral\scb/cy_scb_spi.h **** * The element size is defined by the data type, which depends on the configured
1451:Generated_Source\PSoC6\pdl\drivers\peripheral\scb/cy_scb_spi.h **** * TX data width.
1452:Generated_Source\PSoC6\pdl\drivers\peripheral\scb/cy_scb_spi.h **** *
1453:Generated_Source\PSoC6\pdl\drivers\peripheral\scb/cy_scb_spi.h **** * \param size
1454:Generated_Source\PSoC6\pdl\drivers\peripheral\scb/cy_scb_spi.h **** * The number of data elements to transmit.
1455:Generated_Source\PSoC6\pdl\drivers\peripheral\scb/cy_scb_spi.h **** *
1456:Generated_Source\PSoC6\pdl\drivers\peripheral\scb/cy_scb_spi.h **** * \return
1457:Generated_Source\PSoC6\pdl\drivers\peripheral\scb/cy_scb_spi.h **** * The number of data elements placed in the TX FIFO.
1458:Generated_Source\PSoC6\pdl\drivers\peripheral\scb/cy_scb_spi.h **** *
1459:Generated_Source\PSoC6\pdl\drivers\peripheral\scb/cy_scb_spi.h **** * \note
1460:Generated_Source\PSoC6\pdl\drivers\peripheral\scb/cy_scb_spi.h **** * * When in the master mode, writing data into the TX FIFO starts an SPI
1461:Generated_Source\PSoC6\pdl\drivers\peripheral\scb/cy_scb_spi.h **** *   transfer.
1462:Generated_Source\PSoC6\pdl\drivers\peripheral\scb/cy_scb_spi.h **** * * When in the slave mode, writing data into the TX FIFO does not start
1463:Generated_Source\PSoC6\pdl\drivers\peripheral\scb/cy_scb_spi.h **** *   an SPI transfer. The data is loaded in the TX FIFO and will be sent to
ARM GAS  C:\Users\mcfdo\AppData\Local\Temp\ccxaSBqv.s 			page 29


1464:Generated_Source\PSoC6\pdl\drivers\peripheral\scb/cy_scb_spi.h **** *   the master on its request.
1465:Generated_Source\PSoC6\pdl\drivers\peripheral\scb/cy_scb_spi.h **** * * The SPI interface is full-duplex, therefore reads and writes occur
1466:Generated_Source\PSoC6\pdl\drivers\peripheral\scb/cy_scb_spi.h **** *   at the same time. Thus, for every data element transferred out of the
1467:Generated_Source\PSoC6\pdl\drivers\peripheral\scb/cy_scb_spi.h **** *   TX FIFO, one is transferred into the RX FIFO.
1468:Generated_Source\PSoC6\pdl\drivers\peripheral\scb/cy_scb_spi.h **** *
1469:Generated_Source\PSoC6\pdl\drivers\peripheral\scb/cy_scb_spi.h **** *******************************************************************************/
1470:Generated_Source\PSoC6\pdl\drivers\peripheral\scb/cy_scb_spi.h **** __STATIC_INLINE uint32_t Cy_SCB_SPI_WriteArray(CySCB_Type *base, void *buffer, uint32_t size)
1471:Generated_Source\PSoC6\pdl\drivers\peripheral\scb/cy_scb_spi.h **** {
1472:Generated_Source\PSoC6\pdl\drivers\peripheral\scb/cy_scb_spi.h ****     CY_ASSERT_L1(CY_SCB_IS_BUFFER_VALID(buffer, size));
1473:Generated_Source\PSoC6\pdl\drivers\peripheral\scb/cy_scb_spi.h **** 
1474:Generated_Source\PSoC6\pdl\drivers\peripheral\scb/cy_scb_spi.h ****     return Cy_SCB_WriteArray(base, buffer, size);
1475:Generated_Source\PSoC6\pdl\drivers\peripheral\scb/cy_scb_spi.h **** }
1476:Generated_Source\PSoC6\pdl\drivers\peripheral\scb/cy_scb_spi.h **** 
1477:Generated_Source\PSoC6\pdl\drivers\peripheral\scb/cy_scb_spi.h **** 
1478:Generated_Source\PSoC6\pdl\drivers\peripheral\scb/cy_scb_spi.h **** /*******************************************************************************
1479:Generated_Source\PSoC6\pdl\drivers\peripheral\scb/cy_scb_spi.h **** * Function Name: Cy_SCB_SPI_WriteArrayBlocking
1480:Generated_Source\PSoC6\pdl\drivers\peripheral\scb/cy_scb_spi.h **** ****************************************************************************//**
1481:Generated_Source\PSoC6\pdl\drivers\peripheral\scb/cy_scb_spi.h **** *
1482:Generated_Source\PSoC6\pdl\drivers\peripheral\scb/cy_scb_spi.h **** * Places an array of data in the SPI TX FIFO. This function blocks
1483:Generated_Source\PSoC6\pdl\drivers\peripheral\scb/cy_scb_spi.h **** * until the number of data elements specified by size is placed in the SPI
1484:Generated_Source\PSoC6\pdl\drivers\peripheral\scb/cy_scb_spi.h **** * TX FIFO.
1485:Generated_Source\PSoC6\pdl\drivers\peripheral\scb/cy_scb_spi.h **** *
1486:Generated_Source\PSoC6\pdl\drivers\peripheral\scb/cy_scb_spi.h **** * \param base
1487:Generated_Source\PSoC6\pdl\drivers\peripheral\scb/cy_scb_spi.h **** * The pointer to the SPI SCB instance.
1488:Generated_Source\PSoC6\pdl\drivers\peripheral\scb/cy_scb_spi.h **** *
1489:Generated_Source\PSoC6\pdl\drivers\peripheral\scb/cy_scb_spi.h **** * \param buffer
1490:Generated_Source\PSoC6\pdl\drivers\peripheral\scb/cy_scb_spi.h **** * The pointer to data to place in the TX FIFO.
1491:Generated_Source\PSoC6\pdl\drivers\peripheral\scb/cy_scb_spi.h **** * The element size is defined by the data type, which depends on the configured
1492:Generated_Source\PSoC6\pdl\drivers\peripheral\scb/cy_scb_spi.h **** * TX data width.
1493:Generated_Source\PSoC6\pdl\drivers\peripheral\scb/cy_scb_spi.h **** *
1494:Generated_Source\PSoC6\pdl\drivers\peripheral\scb/cy_scb_spi.h **** * \param size
1495:Generated_Source\PSoC6\pdl\drivers\peripheral\scb/cy_scb_spi.h **** * The number of data elements to write into the TX FIFO.
1496:Generated_Source\PSoC6\pdl\drivers\peripheral\scb/cy_scb_spi.h **** *
1497:Generated_Source\PSoC6\pdl\drivers\peripheral\scb/cy_scb_spi.h **** * \note
1498:Generated_Source\PSoC6\pdl\drivers\peripheral\scb/cy_scb_spi.h **** * * When in the master mode, writing data into the TX FIFO starts an SPI
1499:Generated_Source\PSoC6\pdl\drivers\peripheral\scb/cy_scb_spi.h **** *   transfer.
1500:Generated_Source\PSoC6\pdl\drivers\peripheral\scb/cy_scb_spi.h **** * * When in the slave mode, writing data into the TX FIFO does not start
1501:Generated_Source\PSoC6\pdl\drivers\peripheral\scb/cy_scb_spi.h **** *   an SPI transfer. The data is loaded in the TX FIFO and will be sent to
1502:Generated_Source\PSoC6\pdl\drivers\peripheral\scb/cy_scb_spi.h **** *   the master on its request.
1503:Generated_Source\PSoC6\pdl\drivers\peripheral\scb/cy_scb_spi.h **** * * The SPI interface is full-duplex, therefore reads and writes occur
1504:Generated_Source\PSoC6\pdl\drivers\peripheral\scb/cy_scb_spi.h **** *   at the same time. Thus, for every data element transferred out of the
1505:Generated_Source\PSoC6\pdl\drivers\peripheral\scb/cy_scb_spi.h **** *   TX FIFO, one is transferred into the RX FIFO.
1506:Generated_Source\PSoC6\pdl\drivers\peripheral\scb/cy_scb_spi.h **** *
1507:Generated_Source\PSoC6\pdl\drivers\peripheral\scb/cy_scb_spi.h **** *******************************************************************************/
1508:Generated_Source\PSoC6\pdl\drivers\peripheral\scb/cy_scb_spi.h **** __STATIC_INLINE void Cy_SCB_SPI_WriteArrayBlocking(CySCB_Type *base, void *buffer, uint32_t size)
1509:Generated_Source\PSoC6\pdl\drivers\peripheral\scb/cy_scb_spi.h **** {
1510:Generated_Source\PSoC6\pdl\drivers\peripheral\scb/cy_scb_spi.h ****     CY_ASSERT_L1(CY_SCB_IS_BUFFER_VALID(buffer, size));
1511:Generated_Source\PSoC6\pdl\drivers\peripheral\scb/cy_scb_spi.h **** 
1512:Generated_Source\PSoC6\pdl\drivers\peripheral\scb/cy_scb_spi.h ****     Cy_SCB_WriteArrayBlocking(base, buffer, size);
1513:Generated_Source\PSoC6\pdl\drivers\peripheral\scb/cy_scb_spi.h **** }
1514:Generated_Source\PSoC6\pdl\drivers\peripheral\scb/cy_scb_spi.h **** /** \} group_scb_spi_low_level_functions */
1515:Generated_Source\PSoC6\pdl\drivers\peripheral\scb/cy_scb_spi.h **** 
1516:Generated_Source\PSoC6\pdl\drivers\peripheral\scb/cy_scb_spi.h **** 
1517:Generated_Source\PSoC6\pdl\drivers\peripheral\scb/cy_scb_spi.h **** /**
1518:Generated_Source\PSoC6\pdl\drivers\peripheral\scb/cy_scb_spi.h **** * \addtogroup group_scb_spi_interrupt_functions
1519:Generated_Source\PSoC6\pdl\drivers\peripheral\scb/cy_scb_spi.h **** * \{
1520:Generated_Source\PSoC6\pdl\drivers\peripheral\scb/cy_scb_spi.h **** */
ARM GAS  C:\Users\mcfdo\AppData\Local\Temp\ccxaSBqv.s 			page 30


1521:Generated_Source\PSoC6\pdl\drivers\peripheral\scb/cy_scb_spi.h **** /*******************************************************************************
1522:Generated_Source\PSoC6\pdl\drivers\peripheral\scb/cy_scb_spi.h **** * Function Name: Cy_SCB_SPI_RegisterCallback
1523:Generated_Source\PSoC6\pdl\drivers\peripheral\scb/cy_scb_spi.h **** ****************************************************************************//**
1524:Generated_Source\PSoC6\pdl\drivers\peripheral\scb/cy_scb_spi.h **** *
1525:Generated_Source\PSoC6\pdl\drivers\peripheral\scb/cy_scb_spi.h **** * Registers a callback function, which notifies that
1526:Generated_Source\PSoC6\pdl\drivers\peripheral\scb/cy_scb_spi.h **** * \ref group_scb_spi_macros_callback_events occurred in the
1527:Generated_Source\PSoC6\pdl\drivers\peripheral\scb/cy_scb_spi.h **** * \ref Cy_SCB_SPI_Interrupt.
1528:Generated_Source\PSoC6\pdl\drivers\peripheral\scb/cy_scb_spi.h **** *
1529:Generated_Source\PSoC6\pdl\drivers\peripheral\scb/cy_scb_spi.h **** * \param base
1530:Generated_Source\PSoC6\pdl\drivers\peripheral\scb/cy_scb_spi.h **** * The pointer to the SPI SCB instance.
1531:Generated_Source\PSoC6\pdl\drivers\peripheral\scb/cy_scb_spi.h **** *
1532:Generated_Source\PSoC6\pdl\drivers\peripheral\scb/cy_scb_spi.h **** * \param callback
1533:Generated_Source\PSoC6\pdl\drivers\peripheral\scb/cy_scb_spi.h **** * The pointer to the callback function.
1534:Generated_Source\PSoC6\pdl\drivers\peripheral\scb/cy_scb_spi.h **** * See \ref cy_cb_scb_spi_handle_events_t for the function prototype.
1535:Generated_Source\PSoC6\pdl\drivers\peripheral\scb/cy_scb_spi.h **** *
1536:Generated_Source\PSoC6\pdl\drivers\peripheral\scb/cy_scb_spi.h **** * \param context
1537:Generated_Source\PSoC6\pdl\drivers\peripheral\scb/cy_scb_spi.h **** * The pointer to the context structure \ref cy_stc_scb_spi_context_t allocated
1538:Generated_Source\PSoC6\pdl\drivers\peripheral\scb/cy_scb_spi.h **** * by the user. The structure is used during the SPI operation for internal
1539:Generated_Source\PSoC6\pdl\drivers\peripheral\scb/cy_scb_spi.h **** * configuration and data retention. The user should not modify anything
1540:Generated_Source\PSoC6\pdl\drivers\peripheral\scb/cy_scb_spi.h **** * in this structure.
1541:Generated_Source\PSoC6\pdl\drivers\peripheral\scb/cy_scb_spi.h **** *
1542:Generated_Source\PSoC6\pdl\drivers\peripheral\scb/cy_scb_spi.h **** * \note
1543:Generated_Source\PSoC6\pdl\drivers\peripheral\scb/cy_scb_spi.h **** * To remove the callback, pass NULL as the pointer to the callback function.
1544:Generated_Source\PSoC6\pdl\drivers\peripheral\scb/cy_scb_spi.h **** *
1545:Generated_Source\PSoC6\pdl\drivers\peripheral\scb/cy_scb_spi.h **** *******************************************************************************/
1546:Generated_Source\PSoC6\pdl\drivers\peripheral\scb/cy_scb_spi.h **** __STATIC_INLINE void Cy_SCB_SPI_RegisterCallback(CySCB_Type const *base,
1547:Generated_Source\PSoC6\pdl\drivers\peripheral\scb/cy_scb_spi.h ****             cy_cb_scb_spi_handle_events_t callback, cy_stc_scb_spi_context_t *context)
1548:Generated_Source\PSoC6\pdl\drivers\peripheral\scb/cy_scb_spi.h **** {
1549:Generated_Source\PSoC6\pdl\drivers\peripheral\scb/cy_scb_spi.h ****     /* Suppress a compiler warning about unused variables */
1550:Generated_Source\PSoC6\pdl\drivers\peripheral\scb/cy_scb_spi.h ****     (void) base;
1551:Generated_Source\PSoC6\pdl\drivers\peripheral\scb/cy_scb_spi.h **** 
1552:Generated_Source\PSoC6\pdl\drivers\peripheral\scb/cy_scb_spi.h ****     context->cbEvents = callback;
1553:Generated_Source\PSoC6\pdl\drivers\peripheral\scb/cy_scb_spi.h **** }
1554:Generated_Source\PSoC6\pdl\drivers\peripheral\scb/cy_scb_spi.h **** 
1555:Generated_Source\PSoC6\pdl\drivers\peripheral\scb/cy_scb_spi.h **** /** \cond INTERNAL */
1556:Generated_Source\PSoC6\pdl\drivers\peripheral\scb/cy_scb_spi.h **** /*******************************************************************************
1557:Generated_Source\PSoC6\pdl\drivers\peripheral\scb/cy_scb_spi.h **** * Function Name: CY_SCB_SPI_GetSclkMode
1558:Generated_Source\PSoC6\pdl\drivers\peripheral\scb/cy_scb_spi.h **** ****************************************************************************//**
1559:Generated_Source\PSoC6\pdl\drivers\peripheral\scb/cy_scb_spi.h **** *
1560:Generated_Source\PSoC6\pdl\drivers\peripheral\scb/cy_scb_spi.h **** * Return correct SCLK mode depends on selected sub mode.
1561:Generated_Source\PSoC6\pdl\drivers\peripheral\scb/cy_scb_spi.h **** *
1562:Generated_Source\PSoC6\pdl\drivers\peripheral\scb/cy_scb_spi.h **** * \param subMode
1563:Generated_Source\PSoC6\pdl\drivers\peripheral\scb/cy_scb_spi.h **** * \ref cy_en_scb_spi_sub_mode_t
1564:Generated_Source\PSoC6\pdl\drivers\peripheral\scb/cy_scb_spi.h **** *
1565:Generated_Source\PSoC6\pdl\drivers\peripheral\scb/cy_scb_spi.h **** * \param sclkMode
1566:Generated_Source\PSoC6\pdl\drivers\peripheral\scb/cy_scb_spi.h **** * \ref cy_en_scb_spi_sclk_mode_t
1567:Generated_Source\PSoC6\pdl\drivers\peripheral\scb/cy_scb_spi.h **** *
1568:Generated_Source\PSoC6\pdl\drivers\peripheral\scb/cy_scb_spi.h **** * \return
1569:Generated_Source\PSoC6\pdl\drivers\peripheral\scb/cy_scb_spi.h **** * \ref cy_en_scb_spi_sclk_mode_t
1570:Generated_Source\PSoC6\pdl\drivers\peripheral\scb/cy_scb_spi.h **** *
1571:Generated_Source\PSoC6\pdl\drivers\peripheral\scb/cy_scb_spi.h **** *******************************************************************************/
1572:Generated_Source\PSoC6\pdl\drivers\peripheral\scb/cy_scb_spi.h **** __STATIC_INLINE uint32_t CY_SCB_SPI_GetSclkMode(cy_en_scb_spi_sub_mode_t subMode , cy_en_scb_spi_sc
1573:Generated_Source\PSoC6\pdl\drivers\peripheral\scb/cy_scb_spi.h **** {
1574:Generated_Source\PSoC6\pdl\drivers\peripheral\scb/cy_scb_spi.h ****     switch (subMode)
  57              		.loc 2 1574 0
  58 0016 B9F1050F 		cmp	r9, #5
  59 001a 07D8     		bhi	.L6
ARM GAS  C:\Users\mcfdo\AppData\Local\Temp\ccxaSBqv.s 			page 31


  60 001c DFE809F0 		tbb	[pc, r9]
  61              	.L5:
  62 0020 06       		.byte	(.L6-.L5)/2
  63 0021 05       		.byte	(.L19-.L5)/2
  64 0022 03       		.byte	(.L7-.L5)/2
  65 0023 06       		.byte	(.L6-.L5)/2
  66 0024 06       		.byte	(.L6-.L5)/2
  67 0025 05       		.byte	(.L19-.L5)/2
  68              		.p2align 1
  69              	.L7:
1575:Generated_Source\PSoC6\pdl\drivers\peripheral\scb/cy_scb_spi.h ****     {
1576:Generated_Source\PSoC6\pdl\drivers\peripheral\scb/cy_scb_spi.h ****         case CY_SCB_SPI_TI_PRECEDES:
1577:Generated_Source\PSoC6\pdl\drivers\peripheral\scb/cy_scb_spi.h ****         case CY_SCB_SPI_TI_COINCIDES:
1578:Generated_Source\PSoC6\pdl\drivers\peripheral\scb/cy_scb_spi.h ****             return (uint32_t) CY_SCB_SPI_CPHA1_CPOL0;
1579:Generated_Source\PSoC6\pdl\drivers\peripheral\scb/cy_scb_spi.h **** 
1580:Generated_Source\PSoC6\pdl\drivers\peripheral\scb/cy_scb_spi.h ****         case CY_SCB_SPI_NATIONAL:
1581:Generated_Source\PSoC6\pdl\drivers\peripheral\scb/cy_scb_spi.h ****             return (uint32_t) CY_SCB_SPI_CPHA0_CPOL0;
  70              		.loc 2 1581 0
  71 0026 0023     		movs	r3, #0
  72              	.LVL2:
  73 0028 00E0     		b	.L6
  74              	.LVL3:
  75              	.L19:
1578:Generated_Source\PSoC6\pdl\drivers\peripheral\scb/cy_scb_spi.h **** 
  76              		.loc 2 1578 0
  77 002a 0223     		movs	r3, #2
  78              	.LVL4:
  79              	.L6:
  80              	.LBE125:
  81              	.LBE124:
  78:Generated_Source\PSoC6\pdl\drivers\peripheral\scb/cy_scb_spi.c **** 
  79:Generated_Source\PSoC6\pdl\drivers\peripheral\scb/cy_scb_spi.c ****     bool byteMode = (config->rxDataWidth <= CY_SCB_BYTE_WIDTH) && (config->txDataWidth <= CY_SCB_BY
  82              		.loc 1 79 0
  83 002c 8D68     		ldr	r5, [r1, #8]
  84 002e CE68     		ldr	r6, [r1, #12]
  85 0030 082D     		cmp	r5, #8
  86 0032 05D8     		bhi	.L20
  80:Generated_Source\PSoC6\pdl\drivers\peripheral\scb/cy_scb_spi.c **** 
  81:Generated_Source\PSoC6\pdl\drivers\peripheral\scb/cy_scb_spi.c ****     /* Configure an SPI interface */
  82:Generated_Source\PSoC6\pdl\drivers\peripheral\scb/cy_scb_spi.c ****     SCB_CTRL(base) = _BOOL2FLD(SCB_CTRL_BYTE_MODE, byteMode)                     |
  87              		.loc 1 82 0 discriminator 1
  88 0034 082E     		cmp	r6, #8
  89 0036 8CBF     		ite	hi
  90 0038 0027     		movhi	r7, #0
  91 003a 4FF40067 		movls	r7, #2048
  92 003e 00E0     		b	.L8
  93              	.L20:
  94              		.loc 1 82 0 is_stmt 0
  95 0040 0027     		movs	r7, #0
  96              	.L8:
  83:Generated_Source\PSoC6\pdl\drivers\peripheral\scb/cy_scb_spi.c ****                  _BOOL2FLD(SCB_CTRL_EC_AM_MODE, config->enableWakeFromSleep) |
  97              		.loc 1 83 0 is_stmt 1
  98 0042 0C7F     		ldrb	r4, [r1, #28]	@ zero_extendqisi2
  84:Generated_Source\PSoC6\pdl\drivers\peripheral\scb/cy_scb_spi.c ****                  _VAL2FLD(SCB_CTRL_OVS, (config->oversample - 1UL))          |
  85:Generated_Source\PSoC6\pdl\drivers\peripheral\scb/cy_scb_spi.c ****                  _VAL2FLD(SCB_CTRL_MODE, CY_SCB_CTRL_MODE_SPI);
  86:Generated_Source\PSoC6\pdl\drivers\peripheral\scb/cy_scb_spi.c **** 
  87:Generated_Source\PSoC6\pdl\drivers\peripheral\scb/cy_scb_spi.c ****     /* Configure SCB_CTRL.BYTE_MODE then verify levels */
ARM GAS  C:\Users\mcfdo\AppData\Local\Temp\ccxaSBqv.s 			page 32


  88:Generated_Source\PSoC6\pdl\drivers\peripheral\scb/cy_scb_spi.c ****     CY_ASSERT_L2(CY_SCB_IS_TRIGGER_LEVEL_VALID(base, config->rxFifoTriggerLevel));
  89:Generated_Source\PSoC6\pdl\drivers\peripheral\scb/cy_scb_spi.c ****     CY_ASSERT_L2(CY_SCB_IS_TRIGGER_LEVEL_VALID(base, config->txFifoTriggerLevel));
  90:Generated_Source\PSoC6\pdl\drivers\peripheral\scb/cy_scb_spi.c **** 
  91:Generated_Source\PSoC6\pdl\drivers\peripheral\scb/cy_scb_spi.c ****     SCB_SPI_CTRL(base) = _BOOL2FLD(SCB_SPI_CTRL_SSEL_CONTINUOUS, (!config->enableTransferSeperation
  99              		.loc 1 91 0
 100 0044 91F814A0 		ldrb	r10, [r1, #20]	@ zero_extendqisi2
  83:Generated_Source\PSoC6\pdl\drivers\peripheral\scb/cy_scb_spi.c ****                  _BOOL2FLD(SCB_CTRL_EC_AM_MODE, config->enableWakeFromSleep) |
 101              		.loc 1 83 0
 102 0048 002C     		cmp	r4, #0
  84:Generated_Source\PSoC6\pdl\drivers\peripheral\scb/cy_scb_spi.c ****                  _VAL2FLD(SCB_CTRL_OVS, (config->oversample - 1UL))          |
 103              		.loc 1 84 0
 104 004a 4C68     		ldr	r4, [r1, #4]
 105 004c 04F1FF34 		add	r4, r4, #-1
 106 0050 04F00F04 		and	r4, r4, #15
 107 0054 44F08074 		orr	r4, r4, #16777216
  83:Generated_Source\PSoC6\pdl\drivers\peripheral\scb/cy_scb_spi.c ****                  _BOOL2FLD(SCB_CTRL_EC_AM_MODE, config->enableWakeFromSleep) |
 108              		.loc 1 83 0
 109 0058 14BF     		ite	ne
 110 005a 4FF4807E 		movne	lr, #256
 111 005e 4FF0000E 		moveq	lr, #0
  84:Generated_Source\PSoC6\pdl\drivers\peripheral\scb/cy_scb_spi.c ****                  _VAL2FLD(SCB_CTRL_OVS, (config->oversample - 1UL))          |
 112              		.loc 1 84 0
 113 0062 3C43     		orrs	r4, r4, r7
 114 0064 44EA0E04 		orr	r4, r4, lr
  82:Generated_Source\PSoC6\pdl\drivers\peripheral\scb/cy_scb_spi.c ****                  _BOOL2FLD(SCB_CTRL_EC_AM_MODE, config->enableWakeFromSleep) |
 115              		.loc 1 82 0
 116 0068 0460     		str	r4, [r0]
  92:Generated_Source\PSoC6\pdl\drivers\peripheral\scb/cy_scb_spi.c ****                      _BOOL2FLD(SCB_SPI_CTRL_SELECT_PRECEDE,  (CY_SCB_SPI_TI_PRECEDES == config->sub
  93:Generated_Source\PSoC6\pdl\drivers\peripheral\scb/cy_scb_spi.c ****                      _BOOL2FLD(SCB_SPI_CTRL_LATE_MISO_SAMPLE, config->enableMisoLateSample)       |
 117              		.loc 1 93 0
 118 006a CC7C     		ldrb	r4, [r1, #19]	@ zero_extendqisi2
  92:Generated_Source\PSoC6\pdl\drivers\peripheral\scb/cy_scb_spi.c ****                      _BOOL2FLD(SCB_SPI_CTRL_SELECT_PRECEDE,  (CY_SCB_SPI_TI_PRECEDES == config->sub
 119              		.loc 1 92 0
 120 006c B9F1050F 		cmp	r9, #5
 121 0070 0CBF     		ite	eq
 122 0072 4FF00208 		moveq	r8, #2
 123 0076 4FF00008 		movne	r8, #0
 124              		.loc 1 93 0
 125 007a 002C     		cmp	r4, #0
  94:Generated_Source\PSoC6\pdl\drivers\peripheral\scb/cy_scb_spi.c ****                      _BOOL2FLD(SCB_SPI_CTRL_SCLK_CONTINUOUS,  config->enableFreeRunSclk)          |
 126              		.loc 1 94 0
 127 007c 4C7C     		ldrb	r4, [r1, #17]	@ zero_extendqisi2
  93:Generated_Source\PSoC6\pdl\drivers\peripheral\scb/cy_scb_spi.c ****                      _BOOL2FLD(SCB_SPI_CTRL_SCLK_CONTINUOUS,  config->enableFreeRunSclk)          |
 128              		.loc 1 93 0
 129 007e 14BF     		ite	ne
 130 0080 4FF0100C 		movne	ip, #16
 131 0084 4FF0000C 		moveq	ip, #0
 132              		.loc 1 94 0
 133 0088 002C     		cmp	r4, #0
  95:Generated_Source\PSoC6\pdl\drivers\peripheral\scb/cy_scb_spi.c ****                      _BOOL2FLD(SCB_SPI_CTRL_MASTER_MODE,     (CY_SCB_SPI_MASTER == config->spiMode)
 134              		.loc 1 95 0
 135 008a 0C78     		ldrb	r4, [r1]	@ zero_extendqisi2
  94:Generated_Source\PSoC6\pdl\drivers\peripheral\scb/cy_scb_spi.c ****                      _BOOL2FLD(SCB_SPI_CTRL_SCLK_CONTINUOUS,  config->enableFreeRunSclk)          |
 136              		.loc 1 94 0
 137 008c 14BF     		ite	ne
 138 008e 4FF0200E 		movne	lr, #32
 139 0092 4FF0000E 		moveq	lr, #0
ARM GAS  C:\Users\mcfdo\AppData\Local\Temp\ccxaSBqv.s 			page 33


 140              		.loc 1 95 0
 141 0096 012C     		cmp	r4, #1
  96:Generated_Source\PSoC6\pdl\drivers\peripheral\scb/cy_scb_spi.c ****                      _VAL2FLD(CY_SCB_SPI_CTRL_CLK_MODE,      locSclkMode)                         |
  97:Generated_Source\PSoC6\pdl\drivers\peripheral\scb/cy_scb_spi.c ****                      _VAL2FLD(CY_SCB_SPI_CTRL_SSEL_POLARITY, config->ssPolarity)                  |
 142              		.loc 1 97 0
 143 0098 8C69     		ldr	r4, [r1, #24]
 144 009a 4FEA0424 		lsl	r4, r4, #8
  91:Generated_Source\PSoC6\pdl\drivers\peripheral\scb/cy_scb_spi.c ****                      _BOOL2FLD(SCB_SPI_CTRL_SELECT_PRECEDE,  (CY_SCB_SPI_TI_PRECEDES == config->sub
 145              		.loc 1 91 0
 146 009e 8AF0010A 		eor	r10, r10, #1
 147              		.loc 1 97 0
 148 00a2 04F47064 		and	r4, r4, #3840
 149 00a6 4FEA0969 		lsl	r9, r9, #24
 150 00aa 44EA0A04 		orr	r4, r4, r10
 151 00ae 4FEA8303 		lsl	r3, r3, #2
 152 00b2 09F04079 		and	r9, r9, #50331648
 153 00b6 44EA0909 		orr	r9, r4, r9
 154 00ba 03F00C04 		and	r4, r3, #12
 155 00be 49EA0403 		orr	r3, r9, r4
 156 00c2 43EA0803 		orr	r3, r3, r8
 157 00c6 43EA0C0C 		orr	ip, r3, ip
  98:Generated_Source\PSoC6\pdl\drivers\peripheral\scb/cy_scb_spi.c ****                      _VAL2FLD(SCB_SPI_CTRL_MODE,  (uint32_t) config->subMode);
  99:Generated_Source\PSoC6\pdl\drivers\peripheral\scb/cy_scb_spi.c **** 
 100:Generated_Source\PSoC6\pdl\drivers\peripheral\scb/cy_scb_spi.c ****     /* Configure the RX direction */
 101:Generated_Source\PSoC6\pdl\drivers\peripheral\scb/cy_scb_spi.c ****     SCB_RX_CTRL(base) = _BOOL2FLD(SCB_RX_CTRL_MSB_FIRST, config->enableMsbFirst) |
 158              		.loc 1 101 0
 159 00ca 0B7C     		ldrb	r3, [r1, #16]	@ zero_extendqisi2
 102:Generated_Source\PSoC6\pdl\drivers\peripheral\scb/cy_scb_spi.c ****                     _BOOL2FLD(SCB_RX_CTRL_MEDIAN, config->enableInputFilter) |
 160              		.loc 1 102 0
 161 00cc 8C7C     		ldrb	r4, [r1, #18]	@ zero_extendqisi2
  95:Generated_Source\PSoC6\pdl\drivers\peripheral\scb/cy_scb_spi.c ****                      _VAL2FLD(CY_SCB_SPI_CTRL_CLK_MODE,      locSclkMode)                         |
 162              		.loc 1 95 0
 163 00ce 0CBF     		ite	eq
 164 00d0 4FF00047 		moveq	r7, #-2147483648
 165 00d4 0027     		movne	r7, #0
 166              		.loc 1 102 0
 167 00d6 013D     		subs	r5, r5, #1
 101:Generated_Source\PSoC6\pdl\drivers\peripheral\scb/cy_scb_spi.c ****                     _BOOL2FLD(SCB_RX_CTRL_MEDIAN, config->enableInputFilter) |
 168              		.loc 1 101 0
 169 00d8 002B     		cmp	r3, #0
 170 00da 14BF     		ite	ne
 171 00dc 4FF48073 		movne	r3, #256
 172 00e0 0023     		moveq	r3, #0
 173              		.loc 1 102 0
 174 00e2 05F00F05 		and	r5, r5, #15
 175 00e6 002C     		cmp	r4, #0
 103:Generated_Source\PSoC6\pdl\drivers\peripheral\scb/cy_scb_spi.c ****                     _VAL2FLD(SCB_RX_CTRL_DATA_WIDTH, (config->rxDataWidth - 1UL));
 104:Generated_Source\PSoC6\pdl\drivers\peripheral\scb/cy_scb_spi.c **** 
 105:Generated_Source\PSoC6\pdl\drivers\peripheral\scb/cy_scb_spi.c ****     SCB_RX_FIFO_CTRL(base) = _VAL2FLD(SCB_RX_FIFO_CTRL_TRIGGER_LEVEL, config->rxFifoTriggerLevel);
 106:Generated_Source\PSoC6\pdl\drivers\peripheral\scb/cy_scb_spi.c **** 
 107:Generated_Source\PSoC6\pdl\drivers\peripheral\scb/cy_scb_spi.c ****     /* Configure the TX direction */
 108:Generated_Source\PSoC6\pdl\drivers\peripheral\scb/cy_scb_spi.c ****     SCB_TX_CTRL(base) = _BOOL2FLD(SCB_TX_CTRL_MSB_FIRST, config->enableMsbFirst) |
 176              		.loc 1 108 0
 177 00e8 06F1FF36 		add	r6, r6, #-1
 102:Generated_Source\PSoC6\pdl\drivers\peripheral\scb/cy_scb_spi.c ****                     _VAL2FLD(SCB_RX_CTRL_DATA_WIDTH, (config->rxDataWidth - 1UL));
 178              		.loc 1 102 0
 179 00ec 14BF     		ite	ne
ARM GAS  C:\Users\mcfdo\AppData\Local\Temp\ccxaSBqv.s 			page 34


 180 00ee 4FF40074 		movne	r4, #512
 181 00f2 0024     		moveq	r4, #0
 182 00f4 1D43     		orrs	r5, r5, r3
  97:Generated_Source\PSoC6\pdl\drivers\peripheral\scb/cy_scb_spi.c ****                      _VAL2FLD(SCB_SPI_CTRL_MODE,  (uint32_t) config->subMode);
 183              		.loc 1 97 0
 184 00f6 4CEA0E0E 		orr	lr, ip, lr
 185              		.loc 1 108 0
 186 00fa 06F00F06 		and	r6, r6, #15
 102:Generated_Source\PSoC6\pdl\drivers\peripheral\scb/cy_scb_spi.c ****                     _VAL2FLD(SCB_RX_CTRL_DATA_WIDTH, (config->rxDataWidth - 1UL));
 187              		.loc 1 102 0
 188 00fe 2543     		orrs	r5, r5, r4
 189              		.loc 1 108 0
 190 0100 1E43     		orrs	r6, r6, r3
 105:Generated_Source\PSoC6\pdl\drivers\peripheral\scb/cy_scb_spi.c **** 
 191              		.loc 1 105 0
 192 0102 91F82040 		ldrb	r4, [r1, #32]	@ zero_extendqisi2
 109:Generated_Source\PSoC6\pdl\drivers\peripheral\scb/cy_scb_spi.c ****                     _VAL2FLD(SCB_TX_CTRL_DATA_WIDTH, (config->txDataWidth - 1UL));
 110:Generated_Source\PSoC6\pdl\drivers\peripheral\scb/cy_scb_spi.c **** 
 111:Generated_Source\PSoC6\pdl\drivers\peripheral\scb/cy_scb_spi.c ****     SCB_TX_FIFO_CTRL(base) = _VAL2FLD(SCB_TX_FIFO_CTRL_TRIGGER_LEVEL, config->txFifoTriggerLevel);
 193              		.loc 1 111 0
 194 0106 91F82830 		ldrb	r3, [r1, #40]	@ zero_extendqisi2
  97:Generated_Source\PSoC6\pdl\drivers\peripheral\scb/cy_scb_spi.c ****                      _VAL2FLD(SCB_SPI_CTRL_MODE,  (uint32_t) config->subMode);
 195              		.loc 1 97 0
 196 010a 4EEA0707 		orr	r7, lr, r7
  91:Generated_Source\PSoC6\pdl\drivers\peripheral\scb/cy_scb_spi.c ****                      _BOOL2FLD(SCB_SPI_CTRL_SELECT_PRECEDE,  (CY_SCB_SPI_TI_PRECEDES == config->sub
 197              		.loc 1 91 0
 198 010e 0762     		str	r7, [r0, #32]
 101:Generated_Source\PSoC6\pdl\drivers\peripheral\scb/cy_scb_spi.c ****                     _BOOL2FLD(SCB_RX_CTRL_MEDIAN, config->enableInputFilter) |
 199              		.loc 1 101 0
 200 0110 C0F80053 		str	r5, [r0, #768]
 105:Generated_Source\PSoC6\pdl\drivers\peripheral\scb/cy_scb_spi.c **** 
 201              		.loc 1 105 0
 202 0114 C0F80443 		str	r4, [r0, #772]
 108:Generated_Source\PSoC6\pdl\drivers\peripheral\scb/cy_scb_spi.c ****                     _VAL2FLD(SCB_TX_CTRL_DATA_WIDTH, (config->txDataWidth - 1UL));
 203              		.loc 1 108 0
 204 0118 C0F80062 		str	r6, [r0, #512]
 205              		.loc 1 111 0
 206 011c C0F80432 		str	r3, [r0, #516]
 112:Generated_Source\PSoC6\pdl\drivers\peripheral\scb/cy_scb_spi.c **** 
 113:Generated_Source\PSoC6\pdl\drivers\peripheral\scb/cy_scb_spi.c ****     /* Set up interrupt sources */
 114:Generated_Source\PSoC6\pdl\drivers\peripheral\scb/cy_scb_spi.c ****     SCB_INTR_RX_MASK(base) = (config->rxFifoIntEnableMask & CY_SCB_SPI_RX_INTR_MASK);
 207              		.loc 1 114 0
 208 0120 4B6A     		ldr	r3, [r1, #36]
 209 0122 03F06D03 		and	r3, r3, #109
 210 0126 C0F8C83F 		str	r3, [r0, #4040]
 115:Generated_Source\PSoC6\pdl\drivers\peripheral\scb/cy_scb_spi.c ****     SCB_INTR_TX_MASK(base) = (config->txFifoIntEnableMask & CY_SCB_SPI_TX_INTR_MASK);
 211              		.loc 1 115 0
 212 012a CB6A     		ldr	r3, [r1, #44]
 213 012c 03F07303 		and	r3, r3, #115
 214 0130 C0F8883F 		str	r3, [r0, #3976]
 116:Generated_Source\PSoC6\pdl\drivers\peripheral\scb/cy_scb_spi.c ****     SCB_INTR_M(base)       = (config->masterSlaveIntEnableMask & CY_SCB_SPI_MASTER_DONE);
 215              		.loc 1 116 0
 216 0134 0B6B     		ldr	r3, [r1, #48]
 217 0136 03F40071 		and	r1, r3, #512
 218              	.LVL5:
 117:Generated_Source\PSoC6\pdl\drivers\peripheral\scb/cy_scb_spi.c ****     SCB_INTR_S(base)       = (config->masterSlaveIntEnableMask & CY_SCB_SPI_SLAVE_ERR);
 219              		.loc 1 117 0
ARM GAS  C:\Users\mcfdo\AppData\Local\Temp\ccxaSBqv.s 			page 35


 220 013a 03F40063 		and	r3, r3, #2048
 116:Generated_Source\PSoC6\pdl\drivers\peripheral\scb/cy_scb_spi.c ****     SCB_INTR_M(base)       = (config->masterSlaveIntEnableMask & CY_SCB_SPI_MASTER_DONE);
 221              		.loc 1 116 0
 222 013e C0F8001F 		str	r1, [r0, #3840]
 223              		.loc 1 117 0
 224 0142 C0F8403F 		str	r3, [r0, #3904]
 118:Generated_Source\PSoC6\pdl\drivers\peripheral\scb/cy_scb_spi.c ****     SCB_INTR_SPI_EC_MASK(base) = 0UL;
 225              		.loc 1 118 0
 226 0146 0023     		movs	r3, #0
 227 0148 C0F8C83E 		str	r3, [r0, #3784]
 119:Generated_Source\PSoC6\pdl\drivers\peripheral\scb/cy_scb_spi.c **** 
 120:Generated_Source\PSoC6\pdl\drivers\peripheral\scb/cy_scb_spi.c ****     /* Initialize the context */
 121:Generated_Source\PSoC6\pdl\drivers\peripheral\scb/cy_scb_spi.c ****     if (NULL != context)
 228              		.loc 1 121 0
 229 014c 4AB1     		cbz	r2, .L30
 122:Generated_Source\PSoC6\pdl\drivers\peripheral\scb/cy_scb_spi.c ****     {
 123:Generated_Source\PSoC6\pdl\drivers\peripheral\scb/cy_scb_spi.c ****         context->status    = 0UL;
 230              		.loc 1 123 0
 231 014e 1360     		str	r3, [r2]
 124:Generated_Source\PSoC6\pdl\drivers\peripheral\scb/cy_scb_spi.c **** 
 125:Generated_Source\PSoC6\pdl\drivers\peripheral\scb/cy_scb_spi.c ****         context->txBufIdx  = 0UL;
 126:Generated_Source\PSoC6\pdl\drivers\peripheral\scb/cy_scb_spi.c ****         context->rxBufIdx  = 0UL;
 127:Generated_Source\PSoC6\pdl\drivers\peripheral\scb/cy_scb_spi.c **** 
 128:Generated_Source\PSoC6\pdl\drivers\peripheral\scb/cy_scb_spi.c ****         context->cbEvents = NULL;
 232              		.loc 1 128 0
 233 0150 D361     		str	r3, [r2, #28]
 125:Generated_Source\PSoC6\pdl\drivers\peripheral\scb/cy_scb_spi.c ****         context->rxBufIdx  = 0UL;
 234              		.loc 1 125 0
 235 0152 9361     		str	r3, [r2, #24]
 129:Generated_Source\PSoC6\pdl\drivers\peripheral\scb/cy_scb_spi.c **** 
 130:Generated_Source\PSoC6\pdl\drivers\peripheral\scb/cy_scb_spi.c ****     #if !defined(NDEBUG)
 131:Generated_Source\PSoC6\pdl\drivers\peripheral\scb/cy_scb_spi.c ****         /* Put an initialization key into the initKey variable to verify
 132:Generated_Source\PSoC6\pdl\drivers\peripheral\scb/cy_scb_spi.c ****         * context initialization in the transfer API.
 133:Generated_Source\PSoC6\pdl\drivers\peripheral\scb/cy_scb_spi.c ****         */
 134:Generated_Source\PSoC6\pdl\drivers\peripheral\scb/cy_scb_spi.c ****         context->initKey = CY_SCB_SPI_INIT_KEY;
 135:Generated_Source\PSoC6\pdl\drivers\peripheral\scb/cy_scb_spi.c ****     #endif /* !(NDEBUG) */
 136:Generated_Source\PSoC6\pdl\drivers\peripheral\scb/cy_scb_spi.c ****     }
 137:Generated_Source\PSoC6\pdl\drivers\peripheral\scb/cy_scb_spi.c **** 
 138:Generated_Source\PSoC6\pdl\drivers\peripheral\scb/cy_scb_spi.c ****     return CY_SCB_SPI_SUCCESS;
 236              		.loc 1 138 0
 237 0154 1846     		mov	r0, r3
 238              	.LVL6:
 126:Generated_Source\PSoC6\pdl\drivers\peripheral\scb/cy_scb_spi.c **** 
 239              		.loc 1 126 0
 240 0156 D360     		str	r3, [r2, #12]
 241 0158 BDE8F087 		pop	{r4, r5, r6, r7, r8, r9, r10, pc}
 242              	.LVL7:
 243              	.L18:
  60:Generated_Source\PSoC6\pdl\drivers\peripheral\scb/cy_scb_spi.c ****     }
 244              		.loc 1 60 0
 245 015c 0248     		ldr	r0, .L32
 246              	.LVL8:
 247 015e BDE8F087 		pop	{r4, r5, r6, r7, r8, r9, r10, pc}
 248              	.LVL9:
 249              	.L30:
 250              		.loc 1 138 0
 251 0162 1046     		mov	r0, r2
ARM GAS  C:\Users\mcfdo\AppData\Local\Temp\ccxaSBqv.s 			page 36


 252              	.LVL10:
 139:Generated_Source\PSoC6\pdl\drivers\peripheral\scb/cy_scb_spi.c **** }
 253              		.loc 1 139 0
 254 0164 BDE8F087 		pop	{r4, r5, r6, r7, r8, r9, r10, pc}
 255              	.L33:
 256              		.align	2
 257              	.L32:
 258 0168 0140AA00 		.word	11157505
 259              		.cfi_endproc
 260              	.LFE240:
 261              		.size	Cy_SCB_SPI_Init, .-Cy_SCB_SPI_Init
 262              		.section	.text.Cy_SCB_SPI_DeInit,"ax",%progbits
 263              		.align	1
 264              		.global	Cy_SCB_SPI_DeInit
 265              		.thumb
 266              		.thumb_func
 267              		.type	Cy_SCB_SPI_DeInit, %function
 268              	Cy_SCB_SPI_DeInit:
 269              	.LFB241:
 140:Generated_Source\PSoC6\pdl\drivers\peripheral\scb/cy_scb_spi.c **** 
 141:Generated_Source\PSoC6\pdl\drivers\peripheral\scb/cy_scb_spi.c **** 
 142:Generated_Source\PSoC6\pdl\drivers\peripheral\scb/cy_scb_spi.c **** /*******************************************************************************
 143:Generated_Source\PSoC6\pdl\drivers\peripheral\scb/cy_scb_spi.c **** * Function Name: Cy_SCB_SPI_DeInit
 144:Generated_Source\PSoC6\pdl\drivers\peripheral\scb/cy_scb_spi.c **** ****************************************************************************//**
 145:Generated_Source\PSoC6\pdl\drivers\peripheral\scb/cy_scb_spi.c **** *
 146:Generated_Source\PSoC6\pdl\drivers\peripheral\scb/cy_scb_spi.c **** * De-initializes the SCB block; returns the register values to default.
 147:Generated_Source\PSoC6\pdl\drivers\peripheral\scb/cy_scb_spi.c **** *
 148:Generated_Source\PSoC6\pdl\drivers\peripheral\scb/cy_scb_spi.c **** * \param base
 149:Generated_Source\PSoC6\pdl\drivers\peripheral\scb/cy_scb_spi.c **** * The pointer to the SPI SCB instance.
 150:Generated_Source\PSoC6\pdl\drivers\peripheral\scb/cy_scb_spi.c **** *
 151:Generated_Source\PSoC6\pdl\drivers\peripheral\scb/cy_scb_spi.c **** * \note
 152:Generated_Source\PSoC6\pdl\drivers\peripheral\scb/cy_scb_spi.c **** * Ensure that the SCB block is disabled before calling this function.
 153:Generated_Source\PSoC6\pdl\drivers\peripheral\scb/cy_scb_spi.c **** *
 154:Generated_Source\PSoC6\pdl\drivers\peripheral\scb/cy_scb_spi.c **** *******************************************************************************/
 155:Generated_Source\PSoC6\pdl\drivers\peripheral\scb/cy_scb_spi.c **** void Cy_SCB_SPI_DeInit(CySCB_Type *base)
 156:Generated_Source\PSoC6\pdl\drivers\peripheral\scb/cy_scb_spi.c **** {
 270              		.loc 1 156 0
 271              		.cfi_startproc
 272              		@ args = 0, pretend = 0, frame = 0
 273              		@ frame_needed = 0, uses_anonymous_args = 0
 274              		@ link register save eliminated.
 275              	.LVL11:
 157:Generated_Source\PSoC6\pdl\drivers\peripheral\scb/cy_scb_spi.c ****     /* SPI interface */
 158:Generated_Source\PSoC6\pdl\drivers\peripheral\scb/cy_scb_spi.c ****     SCB_CTRL(base)         = CY_SCB_CTRL_DEF_VAL;
 276              		.loc 1 158 0
 277 0000 0E4B     		ldr	r3, .L35
 278 0002 0360     		str	r3, [r0]
 159:Generated_Source\PSoC6\pdl\drivers\peripheral\scb/cy_scb_spi.c ****     SCB_SPI_CTRL(base)     = CY_SCB_SPI_CTRL_DEF_VAL;
 279              		.loc 1 159 0
 280 0004 4FF04073 		mov	r3, #50331648
 281 0008 0362     		str	r3, [r0, #32]
 160:Generated_Source\PSoC6\pdl\drivers\peripheral\scb/cy_scb_spi.c **** 
 161:Generated_Source\PSoC6\pdl\drivers\peripheral\scb/cy_scb_spi.c ****     /* RX direction */
 162:Generated_Source\PSoC6\pdl\drivers\peripheral\scb/cy_scb_spi.c ****     SCB_RX_CTRL(base)      = CY_SCB_RX_CTRL_DEF_VAL;
 282              		.loc 1 162 0
 283 000a 40F20712 		movw	r2, #263
 163:Generated_Source\PSoC6\pdl\drivers\peripheral\scb/cy_scb_spi.c ****     SCB_RX_FIFO_CTRL(base) = 0UL;
ARM GAS  C:\Users\mcfdo\AppData\Local\Temp\ccxaSBqv.s 			page 37


 284              		.loc 1 163 0
 285 000e 0023     		movs	r3, #0
 162:Generated_Source\PSoC6\pdl\drivers\peripheral\scb/cy_scb_spi.c ****     SCB_RX_FIFO_CTRL(base) = 0UL;
 286              		.loc 1 162 0
 287 0010 C0F80023 		str	r2, [r0, #768]
 288              		.loc 1 163 0
 289 0014 C0F80433 		str	r3, [r0, #772]
 164:Generated_Source\PSoC6\pdl\drivers\peripheral\scb/cy_scb_spi.c **** 
 165:Generated_Source\PSoC6\pdl\drivers\peripheral\scb/cy_scb_spi.c ****     /* TX direction */
 166:Generated_Source\PSoC6\pdl\drivers\peripheral\scb/cy_scb_spi.c ****     SCB_TX_CTRL(base)      = CY_SCB_TX_CTRL_DEF_VAL;
 290              		.loc 1 166 0
 291 0018 C0F80022 		str	r2, [r0, #512]
 167:Generated_Source\PSoC6\pdl\drivers\peripheral\scb/cy_scb_spi.c ****     SCB_TX_FIFO_CTRL(base) = 0UL;
 292              		.loc 1 167 0
 293 001c C0F80432 		str	r3, [r0, #516]
 168:Generated_Source\PSoC6\pdl\drivers\peripheral\scb/cy_scb_spi.c **** 
 169:Generated_Source\PSoC6\pdl\drivers\peripheral\scb/cy_scb_spi.c ****     /* Disable all interrupt sources */
 170:Generated_Source\PSoC6\pdl\drivers\peripheral\scb/cy_scb_spi.c ****     SCB_INTR_SPI_EC_MASK(base) = 0UL;
 294              		.loc 1 170 0
 295 0020 C0F8C83E 		str	r3, [r0, #3784]
 171:Generated_Source\PSoC6\pdl\drivers\peripheral\scb/cy_scb_spi.c ****     SCB_INTR_I2C_EC_MASK(base) = 0UL;
 296              		.loc 1 171 0
 297 0024 C0F8883E 		str	r3, [r0, #3720]
 172:Generated_Source\PSoC6\pdl\drivers\peripheral\scb/cy_scb_spi.c ****     SCB_INTR_RX_MASK(base)     = 0UL;
 298              		.loc 1 172 0
 299 0028 C0F8C83F 		str	r3, [r0, #4040]
 173:Generated_Source\PSoC6\pdl\drivers\peripheral\scb/cy_scb_spi.c ****     SCB_INTR_TX_MASK(base)     = 0UL;
 300              		.loc 1 173 0
 301 002c C0F8883F 		str	r3, [r0, #3976]
 174:Generated_Source\PSoC6\pdl\drivers\peripheral\scb/cy_scb_spi.c ****     SCB_INTR_M_MASK(base)      = 0UL;
 302              		.loc 1 174 0
 303 0030 C0F8083F 		str	r3, [r0, #3848]
 175:Generated_Source\PSoC6\pdl\drivers\peripheral\scb/cy_scb_spi.c ****     SCB_INTR_S_MASK(base)      = 0UL;
 304              		.loc 1 175 0
 305 0034 C0F8483F 		str	r3, [r0, #3912]
 306 0038 7047     		bx	lr
 307              	.L36:
 308 003a 00BF     		.align	2
 309              	.L35:
 310 003c 0F000003 		.word	50331663
 311              		.cfi_endproc
 312              	.LFE241:
 313              		.size	Cy_SCB_SPI_DeInit, .-Cy_SCB_SPI_DeInit
 314              		.section	.text.Cy_SCB_SPI_Disable,"ax",%progbits
 315              		.align	1
 316              		.global	Cy_SCB_SPI_Disable
 317              		.thumb
 318              		.thumb_func
 319              		.type	Cy_SCB_SPI_Disable, %function
 320              	Cy_SCB_SPI_Disable:
 321              	.LFB242:
 176:Generated_Source\PSoC6\pdl\drivers\peripheral\scb/cy_scb_spi.c **** }
 177:Generated_Source\PSoC6\pdl\drivers\peripheral\scb/cy_scb_spi.c **** 
 178:Generated_Source\PSoC6\pdl\drivers\peripheral\scb/cy_scb_spi.c **** 
 179:Generated_Source\PSoC6\pdl\drivers\peripheral\scb/cy_scb_spi.c **** /*******************************************************************************
 180:Generated_Source\PSoC6\pdl\drivers\peripheral\scb/cy_scb_spi.c **** * Function Name: Cy_SCB_SPI_Disable
 181:Generated_Source\PSoC6\pdl\drivers\peripheral\scb/cy_scb_spi.c **** ****************************************************************************//**
ARM GAS  C:\Users\mcfdo\AppData\Local\Temp\ccxaSBqv.s 			page 38


 182:Generated_Source\PSoC6\pdl\drivers\peripheral\scb/cy_scb_spi.c **** *
 183:Generated_Source\PSoC6\pdl\drivers\peripheral\scb/cy_scb_spi.c **** * Disables the SCB block, clears context statuses, and disables
 184:Generated_Source\PSoC6\pdl\drivers\peripheral\scb/cy_scb_spi.c **** * TX and RX interrupt sources.
 185:Generated_Source\PSoC6\pdl\drivers\peripheral\scb/cy_scb_spi.c **** * Note that after the block is disabled, the TX and RX FIFOs and
 186:Generated_Source\PSoC6\pdl\drivers\peripheral\scb/cy_scb_spi.c **** * hardware statuses are cleared. Also, the hardware stops driving the output
 187:Generated_Source\PSoC6\pdl\drivers\peripheral\scb/cy_scb_spi.c **** * and ignores the input. Refer to section \ref group_scb_spi_lp for more 
 188:Generated_Source\PSoC6\pdl\drivers\peripheral\scb/cy_scb_spi.c **** * information about SPI pins when SCB disabled.
 189:Generated_Source\PSoC6\pdl\drivers\peripheral\scb/cy_scb_spi.c **** *
 190:Generated_Source\PSoC6\pdl\drivers\peripheral\scb/cy_scb_spi.c **** * \param base
 191:Generated_Source\PSoC6\pdl\drivers\peripheral\scb/cy_scb_spi.c **** * The pointer to the SPI SCB instance.
 192:Generated_Source\PSoC6\pdl\drivers\peripheral\scb/cy_scb_spi.c **** *
 193:Generated_Source\PSoC6\pdl\drivers\peripheral\scb/cy_scb_spi.c **** * \param context
 194:Generated_Source\PSoC6\pdl\drivers\peripheral\scb/cy_scb_spi.c **** * The pointer to the context structure \ref cy_stc_scb_spi_context_t allocated
 195:Generated_Source\PSoC6\pdl\drivers\peripheral\scb/cy_scb_spi.c **** * by the user. The structure is used during the SPI operation for internal
 196:Generated_Source\PSoC6\pdl\drivers\peripheral\scb/cy_scb_spi.c **** * configuration and data retention. The user must not modify anything
 197:Generated_Source\PSoC6\pdl\drivers\peripheral\scb/cy_scb_spi.c **** * in this structure.
 198:Generated_Source\PSoC6\pdl\drivers\peripheral\scb/cy_scb_spi.c **** * If only SPI functions that do not require context will be used to pass NULL
 199:Generated_Source\PSoC6\pdl\drivers\peripheral\scb/cy_scb_spi.c **** * as pointer to context.
 200:Generated_Source\PSoC6\pdl\drivers\peripheral\scb/cy_scb_spi.c **** *
 201:Generated_Source\PSoC6\pdl\drivers\peripheral\scb/cy_scb_spi.c **** * \note
 202:Generated_Source\PSoC6\pdl\drivers\peripheral\scb/cy_scb_spi.c **** * Calling this function when the SPI is busy (master preforms data transfer or
 203:Generated_Source\PSoC6\pdl\drivers\peripheral\scb/cy_scb_spi.c **** * slave communicates with the master) may cause transfer corruption because the
 204:Generated_Source\PSoC6\pdl\drivers\peripheral\scb/cy_scb_spi.c **** * hardware stops driving the outputs and ignores the inputs.
 205:Generated_Source\PSoC6\pdl\drivers\peripheral\scb/cy_scb_spi.c **** * Ensure that the SPI is not busy before calling this function.
 206:Generated_Source\PSoC6\pdl\drivers\peripheral\scb/cy_scb_spi.c **** *
 207:Generated_Source\PSoC6\pdl\drivers\peripheral\scb/cy_scb_spi.c **** *******************************************************************************/
 208:Generated_Source\PSoC6\pdl\drivers\peripheral\scb/cy_scb_spi.c **** void Cy_SCB_SPI_Disable(CySCB_Type *base, cy_stc_scb_spi_context_t *context)
 209:Generated_Source\PSoC6\pdl\drivers\peripheral\scb/cy_scb_spi.c **** {
 322              		.loc 1 209 0
 323              		.cfi_startproc
 324              		@ args = 0, pretend = 0, frame = 0
 325              		@ frame_needed = 0, uses_anonymous_args = 0
 326              		@ link register save eliminated.
 327              	.LVL12:
 210:Generated_Source\PSoC6\pdl\drivers\peripheral\scb/cy_scb_spi.c ****     SCB_CTRL(base) &= (uint32_t) ~SCB_CTRL_ENABLED_Msk;
 328              		.loc 1 210 0
 329 0000 0368     		ldr	r3, [r0]
 330 0002 23F00043 		bic	r3, r3, #-2147483648
 331 0006 0360     		str	r3, [r0]
 211:Generated_Source\PSoC6\pdl\drivers\peripheral\scb/cy_scb_spi.c **** 
 212:Generated_Source\PSoC6\pdl\drivers\peripheral\scb/cy_scb_spi.c ****     if (NULL != context)
 332              		.loc 1 212 0
 333 0008 19B1     		cbz	r1, .L38
 213:Generated_Source\PSoC6\pdl\drivers\peripheral\scb/cy_scb_spi.c ****     {
 214:Generated_Source\PSoC6\pdl\drivers\peripheral\scb/cy_scb_spi.c ****         context->status    = 0UL;
 334              		.loc 1 214 0
 335 000a 0023     		movs	r3, #0
 336 000c 0B60     		str	r3, [r1]
 215:Generated_Source\PSoC6\pdl\drivers\peripheral\scb/cy_scb_spi.c **** 
 216:Generated_Source\PSoC6\pdl\drivers\peripheral\scb/cy_scb_spi.c ****         context->rxBufIdx  = 0UL;
 337              		.loc 1 216 0
 338 000e CB60     		str	r3, [r1, #12]
 217:Generated_Source\PSoC6\pdl\drivers\peripheral\scb/cy_scb_spi.c ****         context->txBufIdx  = 0UL;
 339              		.loc 1 217 0
 340 0010 8B61     		str	r3, [r1, #24]
 341              	.L38:
 218:Generated_Source\PSoC6\pdl\drivers\peripheral\scb/cy_scb_spi.c ****     }
ARM GAS  C:\Users\mcfdo\AppData\Local\Temp\ccxaSBqv.s 			page 39


 219:Generated_Source\PSoC6\pdl\drivers\peripheral\scb/cy_scb_spi.c **** 
 220:Generated_Source\PSoC6\pdl\drivers\peripheral\scb/cy_scb_spi.c ****     /* Disable RX and TX interrupt sources for the slave because
 221:Generated_Source\PSoC6\pdl\drivers\peripheral\scb/cy_scb_spi.c ****     * RX overflow and TX underflow are kept enabled after the 1st call of
 222:Generated_Source\PSoC6\pdl\drivers\peripheral\scb/cy_scb_spi.c ****     * Cy_SCB_SPI_Transfer().
 223:Generated_Source\PSoC6\pdl\drivers\peripheral\scb/cy_scb_spi.c ****     */
 224:Generated_Source\PSoC6\pdl\drivers\peripheral\scb/cy_scb_spi.c ****     if (!_FLD2BOOL(SCB_SPI_CTRL_MASTER_MODE, SCB_SPI_CTRL(base)))
 342              		.loc 1 224 0
 343 0012 036A     		ldr	r3, [r0, #32]
 344 0014 002B     		cmp	r3, #0
 345              	.LVL13:
 346              	.LBB126:
 347              	.LBB127:
 348              		.file 3 "Generated_Source\\PSoC6\\pdl\\drivers\\peripheral\\scb\\cy_scb_common.h"
   1:Generated_Source\PSoC6\pdl\drivers\peripheral\scb/cy_scb_common.h **** /***************************************************************************//**
   2:Generated_Source\PSoC6\pdl\drivers\peripheral\scb/cy_scb_common.h **** * \file cy_scb_common.h
   3:Generated_Source\PSoC6\pdl\drivers\peripheral\scb/cy_scb_common.h **** * \version 2.20
   4:Generated_Source\PSoC6\pdl\drivers\peripheral\scb/cy_scb_common.h **** *
   5:Generated_Source\PSoC6\pdl\drivers\peripheral\scb/cy_scb_common.h **** * Provides common API declarations of the SCB driver.
   6:Generated_Source\PSoC6\pdl\drivers\peripheral\scb/cy_scb_common.h **** *
   7:Generated_Source\PSoC6\pdl\drivers\peripheral\scb/cy_scb_common.h **** ********************************************************************************
   8:Generated_Source\PSoC6\pdl\drivers\peripheral\scb/cy_scb_common.h **** * \copyright
   9:Generated_Source\PSoC6\pdl\drivers\peripheral\scb/cy_scb_common.h **** * Copyright 2016-2018, Cypress Semiconductor Corporation.  All rights reserved.
  10:Generated_Source\PSoC6\pdl\drivers\peripheral\scb/cy_scb_common.h **** * You may use this file only in accordance with the license, terms, conditions,
  11:Generated_Source\PSoC6\pdl\drivers\peripheral\scb/cy_scb_common.h **** * disclaimers, and limitations in the end user license agreement accompanying
  12:Generated_Source\PSoC6\pdl\drivers\peripheral\scb/cy_scb_common.h **** * the software package with which this file was provided.
  13:Generated_Source\PSoC6\pdl\drivers\peripheral\scb/cy_scb_common.h **** *******************************************************************************/
  14:Generated_Source\PSoC6\pdl\drivers\peripheral\scb/cy_scb_common.h **** 
  15:Generated_Source\PSoC6\pdl\drivers\peripheral\scb/cy_scb_common.h **** /**
  16:Generated_Source\PSoC6\pdl\drivers\peripheral\scb/cy_scb_common.h **** * \addtogroup group_scb
  17:Generated_Source\PSoC6\pdl\drivers\peripheral\scb/cy_scb_common.h **** * \{
  18:Generated_Source\PSoC6\pdl\drivers\peripheral\scb/cy_scb_common.h **** * The Serial Communications Block (SCB) supports three serial communication 
  19:Generated_Source\PSoC6\pdl\drivers\peripheral\scb/cy_scb_common.h **** * protocols: Serial Peripheral Interface (SPI), Universal Asynchronous Receiver 
  20:Generated_Source\PSoC6\pdl\drivers\peripheral\scb/cy_scb_common.h **** * Transmitter (UART), and Inter Integrated Circuit (I2C or IIC). Only one of 
  21:Generated_Source\PSoC6\pdl\drivers\peripheral\scb/cy_scb_common.h **** * the protocols is supported by an SCB at any given time.
  22:Generated_Source\PSoC6\pdl\drivers\peripheral\scb/cy_scb_common.h **** *
  23:Generated_Source\PSoC6\pdl\drivers\peripheral\scb/cy_scb_common.h **** * The functions and other declarations used in this driver are in cy_scb_spi.h, 
  24:Generated_Source\PSoC6\pdl\drivers\peripheral\scb/cy_scb_common.h **** * cy_scb_uart.h, cy_scb_ezi2c.h, cy_scb_i2c.h respectively. Include cy_pdl.h 
  25:Generated_Source\PSoC6\pdl\drivers\peripheral\scb/cy_scb_common.h **** * (ModusToolbox only) to get access to all functions and declarations in the PDL.
  26:Generated_Source\PSoC6\pdl\drivers\peripheral\scb/cy_scb_common.h **** 
  27:Generated_Source\PSoC6\pdl\drivers\peripheral\scb/cy_scb_common.h **** * \defgroup group_scb_common Common
  28:Generated_Source\PSoC6\pdl\drivers\peripheral\scb/cy_scb_common.h **** * \defgroup group_scb_ezi2c  EZI2C (SCB)
  29:Generated_Source\PSoC6\pdl\drivers\peripheral\scb/cy_scb_common.h **** * \defgroup group_scb_i2c    I2C (SCB)
  30:Generated_Source\PSoC6\pdl\drivers\peripheral\scb/cy_scb_common.h **** * \defgroup group_scb_spi    SPI (SCB)
  31:Generated_Source\PSoC6\pdl\drivers\peripheral\scb/cy_scb_common.h **** * \defgroup group_scb_uart   UART (SCB)
  32:Generated_Source\PSoC6\pdl\drivers\peripheral\scb/cy_scb_common.h **** * \} */
  33:Generated_Source\PSoC6\pdl\drivers\peripheral\scb/cy_scb_common.h **** 
  34:Generated_Source\PSoC6\pdl\drivers\peripheral\scb/cy_scb_common.h **** /**
  35:Generated_Source\PSoC6\pdl\drivers\peripheral\scb/cy_scb_common.h **** * \addtogroup group_scb_common
  36:Generated_Source\PSoC6\pdl\drivers\peripheral\scb/cy_scb_common.h **** * \{
  37:Generated_Source\PSoC6\pdl\drivers\peripheral\scb/cy_scb_common.h **** *
  38:Generated_Source\PSoC6\pdl\drivers\peripheral\scb/cy_scb_common.h **** * Common API for the Serial Communication Block.
  39:Generated_Source\PSoC6\pdl\drivers\peripheral\scb/cy_scb_common.h **** *
  40:Generated_Source\PSoC6\pdl\drivers\peripheral\scb/cy_scb_common.h **** * This is the common API that provides an interface to the SCB hardware.
  41:Generated_Source\PSoC6\pdl\drivers\peripheral\scb/cy_scb_common.h **** * The I2C, SPI, and UART drivers use this common API.
  42:Generated_Source\PSoC6\pdl\drivers\peripheral\scb/cy_scb_common.h **** * Most users will use individual drivers and do not need to use the common
  43:Generated_Source\PSoC6\pdl\drivers\peripheral\scb/cy_scb_common.h **** * API for the SCB. However, you can use the common SCB API to implement
  44:Generated_Source\PSoC6\pdl\drivers\peripheral\scb/cy_scb_common.h **** * a custom driver based on the SCB hardware.
ARM GAS  C:\Users\mcfdo\AppData\Local\Temp\ccxaSBqv.s 			page 40


  45:Generated_Source\PSoC6\pdl\drivers\peripheral\scb/cy_scb_common.h **** *
  46:Generated_Source\PSoC6\pdl\drivers\peripheral\scb/cy_scb_common.h **** * The functions and other declarations used in this part of the driver are in 
  47:Generated_Source\PSoC6\pdl\drivers\peripheral\scb/cy_scb_common.h **** * cy_scb_common.h. You can include either of cy_scb_spi.h, cy_scb_uart.h, 
  48:Generated_Source\PSoC6\pdl\drivers\peripheral\scb/cy_scb_common.h **** * cy_scb_ezi2c.h, cy_scb_i2c.h depending on the desired functionality. 
  49:Generated_Source\PSoC6\pdl\drivers\peripheral\scb/cy_scb_common.h **** * You can also include cy_pdl.h to get access to all functions and declarations 
  50:Generated_Source\PSoC6\pdl\drivers\peripheral\scb/cy_scb_common.h **** * in the PDL.
  51:Generated_Source\PSoC6\pdl\drivers\peripheral\scb/cy_scb_common.h **** *
  52:Generated_Source\PSoC6\pdl\drivers\peripheral\scb/cy_scb_common.h **** *******************************************************************************
  53:Generated_Source\PSoC6\pdl\drivers\peripheral\scb/cy_scb_common.h **** * \section group_scb_common_configuration Configuration Considerations
  54:Generated_Source\PSoC6\pdl\drivers\peripheral\scb/cy_scb_common.h **** ********************************************************************************
  55:Generated_Source\PSoC6\pdl\drivers\peripheral\scb/cy_scb_common.h **** * This is not a driver and it does not require configuration.
  56:Generated_Source\PSoC6\pdl\drivers\peripheral\scb/cy_scb_common.h **** *
  57:Generated_Source\PSoC6\pdl\drivers\peripheral\scb/cy_scb_common.h **** *******************************************************************************
  58:Generated_Source\PSoC6\pdl\drivers\peripheral\scb/cy_scb_common.h **** * \section group_scb_common_more_information More Information
  59:Generated_Source\PSoC6\pdl\drivers\peripheral\scb/cy_scb_common.h **** *******************************************************************************
  60:Generated_Source\PSoC6\pdl\drivers\peripheral\scb/cy_scb_common.h **** * Refer to the SCB chapter of the technical reference manual (TRM).
  61:Generated_Source\PSoC6\pdl\drivers\peripheral\scb/cy_scb_common.h **** *
  62:Generated_Source\PSoC6\pdl\drivers\peripheral\scb/cy_scb_common.h **** *******************************************************************************
  63:Generated_Source\PSoC6\pdl\drivers\peripheral\scb/cy_scb_common.h **** * \section group_scb_common_MISRA MISRA-C Compliance
  64:Generated_Source\PSoC6\pdl\drivers\peripheral\scb/cy_scb_common.h **** *******************************************************************************
  65:Generated_Source\PSoC6\pdl\drivers\peripheral\scb/cy_scb_common.h **** * <table class="doxtable">
  66:Generated_Source\PSoC6\pdl\drivers\peripheral\scb/cy_scb_common.h **** *   <tr>
  67:Generated_Source\PSoC6\pdl\drivers\peripheral\scb/cy_scb_common.h **** *     <th>MISRA rule</th>
  68:Generated_Source\PSoC6\pdl\drivers\peripheral\scb/cy_scb_common.h **** *     <th>Rule Class (Required/Advisory)</th>
  69:Generated_Source\PSoC6\pdl\drivers\peripheral\scb/cy_scb_common.h **** *     <th>Rule Description</th>
  70:Generated_Source\PSoC6\pdl\drivers\peripheral\scb/cy_scb_common.h **** *     <th>Description of Deviation(s)</th>
  71:Generated_Source\PSoC6\pdl\drivers\peripheral\scb/cy_scb_common.h **** *   </tr>
  72:Generated_Source\PSoC6\pdl\drivers\peripheral\scb/cy_scb_common.h **** *   <tr>
  73:Generated_Source\PSoC6\pdl\drivers\peripheral\scb/cy_scb_common.h **** *     <td>11.4</td>
  74:Generated_Source\PSoC6\pdl\drivers\peripheral\scb/cy_scb_common.h **** *     <td>A</td>
  75:Generated_Source\PSoC6\pdl\drivers\peripheral\scb/cy_scb_common.h **** *     <td>A cast should not be performed between a pointer to object type and
  76:Generated_Source\PSoC6\pdl\drivers\peripheral\scb/cy_scb_common.h **** *         a different pointer to object type.</td>
  77:Generated_Source\PSoC6\pdl\drivers\peripheral\scb/cy_scb_common.h **** *     <td>The pointer to the buffer memory is void to allow handling of
  78:Generated_Source\PSoC6\pdl\drivers\peripheral\scb/cy_scb_common.h **** *         different data types: uint8_t (4-8 bits) or uint16_t (9-16 bits).
  79:Generated_Source\PSoC6\pdl\drivers\peripheral\scb/cy_scb_common.h **** *         The cast operation is safe because the configuration is verified
  80:Generated_Source\PSoC6\pdl\drivers\peripheral\scb/cy_scb_common.h **** *         before operation is performed.
  81:Generated_Source\PSoC6\pdl\drivers\peripheral\scb/cy_scb_common.h **** *         </td>
  82:Generated_Source\PSoC6\pdl\drivers\peripheral\scb/cy_scb_common.h **** *   </tr>
  83:Generated_Source\PSoC6\pdl\drivers\peripheral\scb/cy_scb_common.h **** * </table>
  84:Generated_Source\PSoC6\pdl\drivers\peripheral\scb/cy_scb_common.h **** *
  85:Generated_Source\PSoC6\pdl\drivers\peripheral\scb/cy_scb_common.h **** *******************************************************************************
  86:Generated_Source\PSoC6\pdl\drivers\peripheral\scb/cy_scb_common.h **** * \section group_scb_common_changelog Changelog
  87:Generated_Source\PSoC6\pdl\drivers\peripheral\scb/cy_scb_common.h **** *******************************************************************************
  88:Generated_Source\PSoC6\pdl\drivers\peripheral\scb/cy_scb_common.h **** * <table class="doxtable">
  89:Generated_Source\PSoC6\pdl\drivers\peripheral\scb/cy_scb_common.h **** *   <tr><th>Version</th><th>Changes</th><th>Reason for Change</th></tr>
  90:Generated_Source\PSoC6\pdl\drivers\peripheral\scb/cy_scb_common.h **** *   <tr>
  91:Generated_Source\PSoC6\pdl\drivers\peripheral\scb/cy_scb_common.h **** *     <td rowspan="2">2.20</td>
  92:Generated_Source\PSoC6\pdl\drivers\peripheral\scb/cy_scb_common.h **** *     <td>Flattened the organization of the driver source code into the single 
  93:Generated_Source\PSoC6\pdl\drivers\peripheral\scb/cy_scb_common.h **** *         source directory and the single include directory.
  94:Generated_Source\PSoC6\pdl\drivers\peripheral\scb/cy_scb_common.h **** *     </td>
  95:Generated_Source\PSoC6\pdl\drivers\peripheral\scb/cy_scb_common.h **** *     <td>Driver library directory-structure simplification.</td>
  96:Generated_Source\PSoC6\pdl\drivers\peripheral\scb/cy_scb_common.h **** *   </tr>
  97:Generated_Source\PSoC6\pdl\drivers\peripheral\scb/cy_scb_common.h **** *   <tr>
  98:Generated_Source\PSoC6\pdl\drivers\peripheral\scb/cy_scb_common.h **** *     <td>Added register access layer. Use register access macros instead
  99:Generated_Source\PSoC6\pdl\drivers\peripheral\scb/cy_scb_common.h **** *         of direct register access using dereferenced pointers.</td>
 100:Generated_Source\PSoC6\pdl\drivers\peripheral\scb/cy_scb_common.h **** *     <td>Makes register access device-independent, so that the PDL does 
 101:Generated_Source\PSoC6\pdl\drivers\peripheral\scb/cy_scb_common.h **** *         not need to be recompiled for each supported part number.</td>
ARM GAS  C:\Users\mcfdo\AppData\Local\Temp\ccxaSBqv.s 			page 41


 102:Generated_Source\PSoC6\pdl\drivers\peripheral\scb/cy_scb_common.h **** *   </tr>
 103:Generated_Source\PSoC6\pdl\drivers\peripheral\scb/cy_scb_common.h **** *   <tr>
 104:Generated_Source\PSoC6\pdl\drivers\peripheral\scb/cy_scb_common.h **** *     <td>2.10</td>
 105:Generated_Source\PSoC6\pdl\drivers\peripheral\scb/cy_scb_common.h **** *     <td>None.</td>
 106:Generated_Source\PSoC6\pdl\drivers\peripheral\scb/cy_scb_common.h **** *     <td>SCB I2C driver updated.</td>
 107:Generated_Source\PSoC6\pdl\drivers\peripheral\scb/cy_scb_common.h **** *   </tr>
 108:Generated_Source\PSoC6\pdl\drivers\peripheral\scb/cy_scb_common.h **** *   <tr>
 109:Generated_Source\PSoC6\pdl\drivers\peripheral\scb/cy_scb_common.h **** *     <td rowspan="2"> 2.0</td>
 110:Generated_Source\PSoC6\pdl\drivers\peripheral\scb/cy_scb_common.h **** *     <td>Added parameters validation for public API.
 111:Generated_Source\PSoC6\pdl\drivers\peripheral\scb/cy_scb_common.h **** *     <td></td>
 112:Generated_Source\PSoC6\pdl\drivers\peripheral\scb/cy_scb_common.h **** *   </tr>
 113:Generated_Source\PSoC6\pdl\drivers\peripheral\scb/cy_scb_common.h **** *   <tr>
 114:Generated_Source\PSoC6\pdl\drivers\peripheral\scb/cy_scb_common.h **** *     <td>Fixed functions which return interrupt status to return only defined
 115:Generated_Source\PSoC6\pdl\drivers\peripheral\scb/cy_scb_common.h **** *         set of interrupt statuses.</td>
 116:Generated_Source\PSoC6\pdl\drivers\peripheral\scb/cy_scb_common.h **** *     <td></td>
 117:Generated_Source\PSoC6\pdl\drivers\peripheral\scb/cy_scb_common.h **** *   </tr>
 118:Generated_Source\PSoC6\pdl\drivers\peripheral\scb/cy_scb_common.h **** *   <tr>
 119:Generated_Source\PSoC6\pdl\drivers\peripheral\scb/cy_scb_common.h **** *     <td>1.0</td>
 120:Generated_Source\PSoC6\pdl\drivers\peripheral\scb/cy_scb_common.h **** *     <td>Initial version.</td>
 121:Generated_Source\PSoC6\pdl\drivers\peripheral\scb/cy_scb_common.h **** *     <td></td>
 122:Generated_Source\PSoC6\pdl\drivers\peripheral\scb/cy_scb_common.h **** *   </tr>
 123:Generated_Source\PSoC6\pdl\drivers\peripheral\scb/cy_scb_common.h **** * </table>
 124:Generated_Source\PSoC6\pdl\drivers\peripheral\scb/cy_scb_common.h **** *
 125:Generated_Source\PSoC6\pdl\drivers\peripheral\scb/cy_scb_common.h **** * \defgroup group_scb_common_macros Macros
 126:Generated_Source\PSoC6\pdl\drivers\peripheral\scb/cy_scb_common.h **** * \defgroup group_scb_common_functions Functions
 127:Generated_Source\PSoC6\pdl\drivers\peripheral\scb/cy_scb_common.h **** * \defgroup group_scb_common_data_structures Data Structures
 128:Generated_Source\PSoC6\pdl\drivers\peripheral\scb/cy_scb_common.h **** *
 129:Generated_Source\PSoC6\pdl\drivers\peripheral\scb/cy_scb_common.h **** */
 130:Generated_Source\PSoC6\pdl\drivers\peripheral\scb/cy_scb_common.h **** 
 131:Generated_Source\PSoC6\pdl\drivers\peripheral\scb/cy_scb_common.h **** #if !defined(CY_SCB_COMMON_H)
 132:Generated_Source\PSoC6\pdl\drivers\peripheral\scb/cy_scb_common.h **** #define CY_SCB_COMMON_H
 133:Generated_Source\PSoC6\pdl\drivers\peripheral\scb/cy_scb_common.h **** 
 134:Generated_Source\PSoC6\pdl\drivers\peripheral\scb/cy_scb_common.h **** #include <stdint.h>
 135:Generated_Source\PSoC6\pdl\drivers\peripheral\scb/cy_scb_common.h **** #include <stddef.h>
 136:Generated_Source\PSoC6\pdl\drivers\peripheral\scb/cy_scb_common.h **** #include <stdbool.h>
 137:Generated_Source\PSoC6\pdl\drivers\peripheral\scb/cy_scb_common.h **** #include "cy_device.h"
 138:Generated_Source\PSoC6\pdl\drivers\peripheral\scb/cy_scb_common.h **** #include "cy_device_headers.h"
 139:Generated_Source\PSoC6\pdl\drivers\peripheral\scb/cy_scb_common.h **** #include "cy_syslib.h"
 140:Generated_Source\PSoC6\pdl\drivers\peripheral\scb/cy_scb_common.h **** #include "cy_syspm.h"
 141:Generated_Source\PSoC6\pdl\drivers\peripheral\scb/cy_scb_common.h **** 
 142:Generated_Source\PSoC6\pdl\drivers\peripheral\scb/cy_scb_common.h **** #ifdef CY_IP_MXSCB
 143:Generated_Source\PSoC6\pdl\drivers\peripheral\scb/cy_scb_common.h **** 
 144:Generated_Source\PSoC6\pdl\drivers\peripheral\scb/cy_scb_common.h **** #if defined(__cplusplus)
 145:Generated_Source\PSoC6\pdl\drivers\peripheral\scb/cy_scb_common.h **** extern "C" {
 146:Generated_Source\PSoC6\pdl\drivers\peripheral\scb/cy_scb_common.h **** #endif
 147:Generated_Source\PSoC6\pdl\drivers\peripheral\scb/cy_scb_common.h **** 
 148:Generated_Source\PSoC6\pdl\drivers\peripheral\scb/cy_scb_common.h **** 
 149:Generated_Source\PSoC6\pdl\drivers\peripheral\scb/cy_scb_common.h **** /*******************************************************************************
 150:Generated_Source\PSoC6\pdl\drivers\peripheral\scb/cy_scb_common.h **** *                            Function Prototypes
 151:Generated_Source\PSoC6\pdl\drivers\peripheral\scb/cy_scb_common.h **** *******************************************************************************/
 152:Generated_Source\PSoC6\pdl\drivers\peripheral\scb/cy_scb_common.h **** 
 153:Generated_Source\PSoC6\pdl\drivers\peripheral\scb/cy_scb_common.h **** /**
 154:Generated_Source\PSoC6\pdl\drivers\peripheral\scb/cy_scb_common.h **** * \addtogroup group_scb_common_functions
 155:Generated_Source\PSoC6\pdl\drivers\peripheral\scb/cy_scb_common.h **** * \{
 156:Generated_Source\PSoC6\pdl\drivers\peripheral\scb/cy_scb_common.h **** */
 157:Generated_Source\PSoC6\pdl\drivers\peripheral\scb/cy_scb_common.h **** __STATIC_INLINE uint32_t Cy_SCB_ReadRxFifo    (CySCB_Type const *base);
 158:Generated_Source\PSoC6\pdl\drivers\peripheral\scb/cy_scb_common.h **** __STATIC_INLINE void     Cy_SCB_SetRxFifoLevel(CySCB_Type *base, uint32_t level);
ARM GAS  C:\Users\mcfdo\AppData\Local\Temp\ccxaSBqv.s 			page 42


 159:Generated_Source\PSoC6\pdl\drivers\peripheral\scb/cy_scb_common.h **** __STATIC_INLINE uint32_t Cy_SCB_GetNumInRxFifo(CySCB_Type const *base);
 160:Generated_Source\PSoC6\pdl\drivers\peripheral\scb/cy_scb_common.h **** __STATIC_INLINE uint32_t Cy_SCB_GetRxSrValid  (CySCB_Type const *base);
 161:Generated_Source\PSoC6\pdl\drivers\peripheral\scb/cy_scb_common.h **** __STATIC_INLINE void     Cy_SCB_ClearRxFifo   (CySCB_Type *base);
 162:Generated_Source\PSoC6\pdl\drivers\peripheral\scb/cy_scb_common.h **** 
 163:Generated_Source\PSoC6\pdl\drivers\peripheral\scb/cy_scb_common.h **** __STATIC_INLINE void     Cy_SCB_WriteTxFifo   (CySCB_Type *base, uint32_t data);
 164:Generated_Source\PSoC6\pdl\drivers\peripheral\scb/cy_scb_common.h **** __STATIC_INLINE void     Cy_SCB_SetTxFifoLevel(CySCB_Type *base, uint32_t level);
 165:Generated_Source\PSoC6\pdl\drivers\peripheral\scb/cy_scb_common.h **** __STATIC_INLINE uint32_t Cy_SCB_GetNumInTxFifo(CySCB_Type const *base);
 166:Generated_Source\PSoC6\pdl\drivers\peripheral\scb/cy_scb_common.h **** __STATIC_INLINE uint32_t Cy_SCB_GetTxSrValid  (CySCB_Type const *base);
 167:Generated_Source\PSoC6\pdl\drivers\peripheral\scb/cy_scb_common.h **** __STATIC_INLINE bool     Cy_SCB_IsTxComplete  (CySCB_Type const *base);
 168:Generated_Source\PSoC6\pdl\drivers\peripheral\scb/cy_scb_common.h **** __STATIC_INLINE void     Cy_SCB_ClearTxFifo   (CySCB_Type *base);
 169:Generated_Source\PSoC6\pdl\drivers\peripheral\scb/cy_scb_common.h **** 
 170:Generated_Source\PSoC6\pdl\drivers\peripheral\scb/cy_scb_common.h **** __STATIC_INLINE void     Cy_SCB_SetByteMode(CySCB_Type *base, bool byteMode);
 171:Generated_Source\PSoC6\pdl\drivers\peripheral\scb/cy_scb_common.h **** 
 172:Generated_Source\PSoC6\pdl\drivers\peripheral\scb/cy_scb_common.h **** __STATIC_INLINE uint32_t Cy_SCB_GetInterruptCause(CySCB_Type const *base);
 173:Generated_Source\PSoC6\pdl\drivers\peripheral\scb/cy_scb_common.h **** 
 174:Generated_Source\PSoC6\pdl\drivers\peripheral\scb/cy_scb_common.h **** __STATIC_INLINE uint32_t Cy_SCB_GetRxInterruptStatus(CySCB_Type const *base);
 175:Generated_Source\PSoC6\pdl\drivers\peripheral\scb/cy_scb_common.h **** __STATIC_INLINE void     Cy_SCB_SetRxInterruptMask  (CySCB_Type *base, uint32_t interruptMask);
 176:Generated_Source\PSoC6\pdl\drivers\peripheral\scb/cy_scb_common.h **** __STATIC_INLINE uint32_t Cy_SCB_GetRxInterruptMask  (CySCB_Type const *base);
 177:Generated_Source\PSoC6\pdl\drivers\peripheral\scb/cy_scb_common.h **** __STATIC_INLINE uint32_t Cy_SCB_GetRxInterruptStatusMasked(CySCB_Type const *base);
 178:Generated_Source\PSoC6\pdl\drivers\peripheral\scb/cy_scb_common.h **** __STATIC_INLINE void     Cy_SCB_ClearRxInterrupt    (CySCB_Type *base, uint32_t interruptMask);
 179:Generated_Source\PSoC6\pdl\drivers\peripheral\scb/cy_scb_common.h **** __STATIC_INLINE void     Cy_SCB_SetRxInterrupt      (CySCB_Type *base, uint32_t interruptMask);
 180:Generated_Source\PSoC6\pdl\drivers\peripheral\scb/cy_scb_common.h **** 
 181:Generated_Source\PSoC6\pdl\drivers\peripheral\scb/cy_scb_common.h **** __STATIC_INLINE uint32_t Cy_SCB_GetTxInterruptStatus(CySCB_Type const *base);
 182:Generated_Source\PSoC6\pdl\drivers\peripheral\scb/cy_scb_common.h **** __STATIC_INLINE void     Cy_SCB_SetTxInterruptMask  (CySCB_Type *base, uint32_t interruptMask);
 183:Generated_Source\PSoC6\pdl\drivers\peripheral\scb/cy_scb_common.h **** __STATIC_INLINE uint32_t Cy_SCB_GetTxInterruptMask  (CySCB_Type const *base);
 184:Generated_Source\PSoC6\pdl\drivers\peripheral\scb/cy_scb_common.h **** __STATIC_INLINE uint32_t Cy_SCB_GetTxInterruptStatusMasked(CySCB_Type const *base);
 185:Generated_Source\PSoC6\pdl\drivers\peripheral\scb/cy_scb_common.h **** __STATIC_INLINE void     Cy_SCB_ClearTxInterrupt    (CySCB_Type *base, uint32_t interruptMask);
 186:Generated_Source\PSoC6\pdl\drivers\peripheral\scb/cy_scb_common.h **** __STATIC_INLINE void     Cy_SCB_SetTxInterrupt      (CySCB_Type *base, uint32_t interruptMask);
 187:Generated_Source\PSoC6\pdl\drivers\peripheral\scb/cy_scb_common.h **** 
 188:Generated_Source\PSoC6\pdl\drivers\peripheral\scb/cy_scb_common.h **** __STATIC_INLINE uint32_t Cy_SCB_GetMasterInterruptStatus(CySCB_Type const *base);
 189:Generated_Source\PSoC6\pdl\drivers\peripheral\scb/cy_scb_common.h **** __STATIC_INLINE void     Cy_SCB_SetMasterInterruptMask  (CySCB_Type *base, uint32_t interruptMask);
 190:Generated_Source\PSoC6\pdl\drivers\peripheral\scb/cy_scb_common.h **** __STATIC_INLINE uint32_t Cy_SCB_GetMasterInterruptMask  (CySCB_Type const *base);
 191:Generated_Source\PSoC6\pdl\drivers\peripheral\scb/cy_scb_common.h **** __STATIC_INLINE uint32_t Cy_SCB_GetMasterInterruptStatusMasked(CySCB_Type const *base);
 192:Generated_Source\PSoC6\pdl\drivers\peripheral\scb/cy_scb_common.h **** __STATIC_INLINE void     Cy_SCB_ClearMasterInterrupt    (CySCB_Type *base, uint32_t interruptMask);
 193:Generated_Source\PSoC6\pdl\drivers\peripheral\scb/cy_scb_common.h **** __STATIC_INLINE void     Cy_SCB_SetMasterInterrupt      (CySCB_Type *base, uint32_t interruptMask);
 194:Generated_Source\PSoC6\pdl\drivers\peripheral\scb/cy_scb_common.h **** 
 195:Generated_Source\PSoC6\pdl\drivers\peripheral\scb/cy_scb_common.h **** __STATIC_INLINE uint32_t Cy_SCB_GetSlaveInterruptStatus(CySCB_Type const *base);
 196:Generated_Source\PSoC6\pdl\drivers\peripheral\scb/cy_scb_common.h **** __STATIC_INLINE void     Cy_SCB_SetSlaveInterruptMask  (CySCB_Type *base, uint32_t interruptMask);
 197:Generated_Source\PSoC6\pdl\drivers\peripheral\scb/cy_scb_common.h **** __STATIC_INLINE uint32_t Cy_SCB_GetSlaveInterruptMask  (CySCB_Type const *base);
 198:Generated_Source\PSoC6\pdl\drivers\peripheral\scb/cy_scb_common.h **** __STATIC_INLINE uint32_t Cy_SCB_GetSlaveInterruptStatusMasked(CySCB_Type const *base);
 199:Generated_Source\PSoC6\pdl\drivers\peripheral\scb/cy_scb_common.h **** __STATIC_INLINE void     Cy_SCB_ClearSlaveInterrupt    (CySCB_Type *base, uint32_t interruptMask);
 200:Generated_Source\PSoC6\pdl\drivers\peripheral\scb/cy_scb_common.h **** __STATIC_INLINE void     Cy_SCB_SetSlaveInterrupt      (CySCB_Type *base, uint32_t interruptMask);
 201:Generated_Source\PSoC6\pdl\drivers\peripheral\scb/cy_scb_common.h **** 
 202:Generated_Source\PSoC6\pdl\drivers\peripheral\scb/cy_scb_common.h **** __STATIC_INLINE uint32_t Cy_SCB_GetI2CInterruptStatus(CySCB_Type const *base);
 203:Generated_Source\PSoC6\pdl\drivers\peripheral\scb/cy_scb_common.h **** __STATIC_INLINE void     Cy_SCB_SetI2CInterruptMask  (CySCB_Type *base, uint32_t interruptMask);
 204:Generated_Source\PSoC6\pdl\drivers\peripheral\scb/cy_scb_common.h **** __STATIC_INLINE uint32_t Cy_SCB_GetI2CInterruptMask  (CySCB_Type const *base);
 205:Generated_Source\PSoC6\pdl\drivers\peripheral\scb/cy_scb_common.h **** __STATIC_INLINE uint32_t Cy_SCB_GetI2CInterruptStatusMasked(CySCB_Type const *base);
 206:Generated_Source\PSoC6\pdl\drivers\peripheral\scb/cy_scb_common.h **** __STATIC_INLINE void     Cy_SCB_ClearI2CInterrupt    (CySCB_Type *base, uint32_t interruptMask);
 207:Generated_Source\PSoC6\pdl\drivers\peripheral\scb/cy_scb_common.h **** 
