ARM GAS  C:\Users\mcfdo\AppData\Local\Temp\cccYIPqL.s 			page 1


   1              		.syntax unified
   2              		.cpu cortex-m4
   3              		.eabi_attribute 27, 1
   4              		.fpu fpv4-sp-d16
   5              		.eabi_attribute 20, 1
   6              		.eabi_attribute 21, 1
   7              		.eabi_attribute 23, 3
   8              		.eabi_attribute 24, 1
   9              		.eabi_attribute 25, 1
  10              		.eabi_attribute 26, 1
  11              		.eabi_attribute 30, 4
  12              		.eabi_attribute 34, 1
  13              		.eabi_attribute 18, 4
  14              		.thumb
  15              		.syntax unified
  16              		.file	"odometry.c"
  17              		.text
  18              	.Ltext0:
  19              		.cfi_sections	.debug_frame
  20              		.global	__aeabi_f2d
  21              		.global	__aeabi_dmul
  22              		.global	__aeabi_dadd
  23              		.global	__aeabi_d2f
  24              		.global	__aeabi_dcmple
  25              		.section	.text.Odometry,"ax",%progbits
  26              		.align	1
  27              		.global	Odometry
  28              		.thumb
  29              		.thumb_func
  30              		.type	Odometry, %function
  31              	Odometry:
  32              	.LFB738:
  33              		.file 1 "odometry.c"
   1:odometry.c    **** #include "project.h"
   2:odometry.c    **** #include "odometry.h"
   3:odometry.c    **** #include "globals.h"
   4:odometry.c    **** #include "math.h"
   5:odometry.c    **** 
   6:odometry.c    **** void Odometry() {
  34              		.loc 1 6 0
  35              		.cfi_startproc
  36              		@ args = 0, pretend = 0, frame = 8
  37              		@ frame_needed = 0, uses_anonymous_args = 0
  38 0000 2DE9F04F 		push	{r4, r5, r6, r7, r8, r9, r10, fp, lr}
  39              		.cfi_def_cfa_offset 36
  40              		.cfi_offset 4, -36
  41              		.cfi_offset 5, -32
  42              		.cfi_offset 6, -28
  43              		.cfi_offset 7, -24
  44              		.cfi_offset 8, -20
  45              		.cfi_offset 9, -16
  46              		.cfi_offset 10, -12
  47              		.cfi_offset 11, -8
  48              		.cfi_offset 14, -4
   7:odometry.c    ****     x = x + ((v_L + v_R) / 2) * cos(theta_act) * dt;
  49              		.loc 1 7 0
  50 0004 644D     		ldr	r5, .L6+8
ARM GAS  C:\Users\mcfdo\AppData\Local\Temp\cccYIPqL.s 			page 2


  51 0006 654C     		ldr	r4, .L6+12
  52 0008 DFF8ACA1 		ldr	r10, .L6+40
  53 000c DFF8ACB1 		ldr	fp, .L6+44
  54 0010 D5ED007A 		vldr.32	s15, [r5]
   6:odometry.c    ****     x = x + ((v_L + v_R) / 2) * cos(theta_act) * dt;
  55              		.loc 1 6 0
  56 0014 2DED048B 		vpush.64	{d8, d9}
  57              		.cfi_def_cfa_offset 52
  58              		.cfi_offset 80, -52
  59              		.cfi_offset 81, -48
  60              		.cfi_offset 82, -44
  61              		.cfi_offset 83, -40
  62              		.loc 1 7 0
  63 0018 9AED008A 		vldr.32	s16, [r10]
  64 001c 9BED009A 		vldr.32	s18, [fp]
  65 0020 2068     		ldr	r0, [r4]	@ float
   6:odometry.c    ****     x = x + ((v_L + v_R) / 2) * cos(theta_act) * dt;
  66              		.loc 1 6 0
  67 0022 83B0     		sub	sp, sp, #12
  68              		.cfi_def_cfa_offset 64
  69              		.loc 1 7 0
  70 0024 CDED007A 		vstr.32	s15, [sp]
  71 0028 FFF7FEFF 		bl	__aeabi_f2d
  72              	.LVL0:
  73 002c FFF7FEFF 		bl	cos
  74              	.LVL1:
  75 0030 5B4B     		ldr	r3, .L6+16
  76 0032 D3ED008A 		vldr.32	s17, [r3]
  77 0036 8046     		mov	r8, r0
  78 0038 18EE900A 		vmov	r0, s17
  79 003c 8946     		mov	r9, r1
  80 003e FFF7FEFF 		bl	__aeabi_f2d
  81              	.LVL2:
  82 0042 78EE097A 		vadd.f32	s15, s16, s18
  83 0046 B6EE009A 		vmov.f32	s18, #5.0e-1
  84 004a 67EE897A 		vmul.f32	s15, s15, s18
  85 004e 0646     		mov	r6, r0
  86 0050 17EE900A 		vmov	r0, s15
  87 0054 0F46     		mov	r7, r1
  88 0056 FFF7FEFF 		bl	__aeabi_f2d
  89              	.LVL3:
  90 005a 4246     		mov	r2, r8
  91 005c 4B46     		mov	r3, r9
  92 005e FFF7FEFF 		bl	__aeabi_dmul
  93              	.LVL4:
  94 0062 3246     		mov	r2, r6
  95 0064 3B46     		mov	r3, r7
  96 0066 FFF7FEFF 		bl	__aeabi_dmul
  97              	.LVL5:
  98 006a 8046     		mov	r8, r0
  99 006c 0098     		ldr	r0, [sp]	@ float
 100 006e 8946     		mov	r9, r1
 101 0070 FFF7FEFF 		bl	__aeabi_f2d
 102              	.LVL6:
 103 0074 0246     		mov	r2, r0
 104 0076 0B46     		mov	r3, r1
 105 0078 4046     		mov	r0, r8
ARM GAS  C:\Users\mcfdo\AppData\Local\Temp\cccYIPqL.s 			page 3


 106 007a 4946     		mov	r1, r9
 107 007c FFF7FEFF 		bl	__aeabi_dadd
 108              	.LVL7:
 109 0080 FFF7FEFF 		bl	__aeabi_d2f
 110              	.LVL8:
   8:odometry.c    ****     y = y + ((v_L + v_R) / 2) * sin(theta_act) * dt;
 111              		.loc 1 8 0
 112 0084 DFF83881 		ldr	r8, .L6+48
   7:odometry.c    ****     x = x + ((v_L + v_R) / 2) * cos(theta_act) * dt;
 113              		.loc 1 7 0
 114 0088 2860     		str	r0, [r5]	@ float
 115              		.loc 1 8 0
 116 008a D8F80090 		ldr	r9, [r8]	@ float
 117 008e 9AED008A 		vldr.32	s16, [r10]
 118 0092 DBED009A 		vldr.32	s19, [fp]
 119 0096 2068     		ldr	r0, [r4]	@ float
 120 0098 FFF7FEFF 		bl	__aeabi_f2d
 121              	.LVL9:
 122 009c FFF7FEFF 		bl	sin
 123              	.LVL10:
 124 00a0 78EE297A 		vadd.f32	s15, s16, s19
 125 00a4 0246     		mov	r2, r0
 126 00a6 67EE897A 		vmul.f32	s15, s15, s18
 127 00aa 0B46     		mov	r3, r1
 128 00ac 17EE900A 		vmov	r0, s15
 129 00b0 CDE90023 		strd	r2, [sp]
 130 00b4 FFF7FEFF 		bl	__aeabi_f2d
 131              	.LVL11:
 132 00b8 DDE90023 		ldrd	r2, [sp]
 133 00bc FFF7FEFF 		bl	__aeabi_dmul
 134              	.LVL12:
 135 00c0 3246     		mov	r2, r6
 136 00c2 3B46     		mov	r3, r7
 137 00c4 FFF7FEFF 		bl	__aeabi_dmul
 138              	.LVL13:
 139 00c8 0646     		mov	r6, r0
 140 00ca 4846     		mov	r0, r9	@ float
 141 00cc 0F46     		mov	r7, r1
 142 00ce FFF7FEFF 		bl	__aeabi_f2d
 143              	.LVL14:
 144 00d2 0246     		mov	r2, r0
 145 00d4 0B46     		mov	r3, r1
 146 00d6 3046     		mov	r0, r6
 147 00d8 3946     		mov	r1, r7
 148 00da FFF7FEFF 		bl	__aeabi_dadd
 149              	.LVL15:
 150 00de FFF7FEFF 		bl	__aeabi_d2f
 151              	.LVL16:
 152 00e2 C8F80000 		str	r0, [r8]	@ float
   9:odometry.c    ****     theta_act = theta_act + ((v_R - v_L) / d) * dt;
 153              		.loc 1 9 0
 154 00e6 9BED007A 		vldr.32	s14, [fp]
 155 00ea 2E4B     		ldr	r3, .L6+20
 156 00ec DAED006A 		vldr.32	s13, [r10]
 157 00f0 D4ED007A 		vldr.32	s15, [r4]
 158 00f4 93ED006A 		vldr.32	s12, [r3]
  10:odometry.c    ****     error = sqrt(pow((x_des - x), 2) + pow((y_des - y), 2));
ARM GAS  C:\Users\mcfdo\AppData\Local\Temp\cccYIPqL.s 			page 4


 159              		.loc 1 10 0
 160 00f8 2B4B     		ldr	r3, .L6+24
   9:odometry.c    ****     theta_act = theta_act + ((v_R - v_L) / d) * dt;
 161              		.loc 1 9 0
 162 00fa 37EE667A 		vsub.f32	s14, s14, s13
 163 00fe C7EE066A 		vdiv.f32	s13, s14, s12
 164 0102 E8EEA67A 		vfma.f32	s15, s17, s13
 165 0106 C4ED007A 		vstr.32	s15, [r4]
 166              		.loc 1 10 0
 167 010a 93ED007A 		vldr.32	s14, [r3]
 168 010e D5ED007A 		vldr.32	s15, [r5]
 169 0112 77EE677A 		vsub.f32	s15, s14, s15
 170 0116 17EE900A 		vmov	r0, s15
 171 011a FFF7FEFF 		bl	__aeabi_f2d
 172              	.LVL17:
 173 011e 234B     		ldr	r3, .L6+28
 174 0120 93ED007A 		vldr.32	s14, [r3]
 175 0124 D8ED007A 		vldr.32	s15, [r8]
 176 0128 77EE677A 		vsub.f32	s15, s14, s15
 177 012c 0646     		mov	r6, r0
 178 012e 17EE900A 		vmov	r0, s15
 179 0132 0F46     		mov	r7, r1
 180 0134 FFF7FEFF 		bl	__aeabi_f2d
 181              	.LVL18:
 182 0138 0246     		mov	r2, r0
 183 013a 0B46     		mov	r3, r1
 184 013c FFF7FEFF 		bl	__aeabi_dmul
 185              	.LVL19:
 186 0140 3246     		mov	r2, r6
 187 0142 0446     		mov	r4, r0
 188 0144 0D46     		mov	r5, r1
 189 0146 3B46     		mov	r3, r7
 190 0148 3046     		mov	r0, r6
 191 014a 3946     		mov	r1, r7
 192 014c FFF7FEFF 		bl	__aeabi_dmul
 193              	.LVL20:
 194 0150 0246     		mov	r2, r0
 195 0152 0B46     		mov	r3, r1
 196 0154 2046     		mov	r0, r4
 197 0156 2946     		mov	r1, r5
 198 0158 FFF7FEFF 		bl	__aeabi_dadd
 199              	.LVL21:
 200 015c FFF7FEFF 		bl	sqrt
 201              	.LVL22:
 202 0160 FFF7FEFF 		bl	__aeabi_d2f
 203              	.LVL23:
 204 0164 124B     		ldr	r3, .L6+32
 205 0166 1860     		str	r0, [r3]	@ float
  11:odometry.c    ****     if (error <= 0.01) {
 206              		.loc 1 11 0
 207 0168 1868     		ldr	r0, [r3]	@ float
 208 016a FFF7FEFF 		bl	__aeabi_f2d
 209              	.LVL24:
 210 016e 08A3     		adr	r3, .L6
 211 0170 D3E90023 		ldrd	r2, [r3]
 212 0174 FFF7FEFF 		bl	__aeabi_dcmple
 213              	.LVL25:
ARM GAS  C:\Users\mcfdo\AppData\Local\Temp\cccYIPqL.s 			page 5


 214 0178 10B1     		cbz	r0, .L1
  12:odometry.c    ****         enable = 0;
 215              		.loc 1 12 0
 216 017a 0E4B     		ldr	r3, .L6+36
 217 017c 0022     		movs	r2, #0
 218 017e 1A60     		str	r2, [r3]
 219              	.L1:
  13:odometry.c    ****     }
  14:odometry.c    **** }
 220              		.loc 1 14 0
 221 0180 03B0     		add	sp, sp, #12
 222              		.cfi_def_cfa_offset 52
 223              		@ sp needed
 224 0182 BDEC048B 		vldm	sp!, {d8-d9}
 225              		.cfi_restore 82
 226              		.cfi_restore 83
 227              		.cfi_restore 80
 228              		.cfi_restore 81
 229              		.cfi_def_cfa_offset 36
 230 0186 BDE8F08F 		pop	{r4, r5, r6, r7, r8, r9, r10, fp, pc}
 231              	.L7:
 232 018a 00BFAFF3 		.align	3
 232      0080
 233              	.L6:
 234 0190 7B14AE47 		.word	1202590843
 235 0194 E17A843F 		.word	1065646817
 236 0198 00000000 		.word	x
 237 019c 00000000 		.word	theta_act
 238 01a0 00000000 		.word	dt
 239 01a4 00000000 		.word	d
 240 01a8 00000000 		.word	x_des
 241 01ac 00000000 		.word	y_des
 242 01b0 00000000 		.word	error
 243 01b4 00000000 		.word	enable
 244 01b8 00000000 		.word	v_L
 245 01bc 00000000 		.word	v_R
 246 01c0 00000000 		.word	y
 247              		.cfi_endproc
 248              	.LFE738:
 249              		.size	Odometry, .-Odometry
 250              		.text
 251              	.Letext0:
 252              		.file 2 "c:\\program files (x86)\\cypress\\psoc creator\\4.4\\psoc creator\\import\\gnu\\arm\\5.4.
 253              		.file 3 "c:\\program files (x86)\\cypress\\psoc creator\\4.4\\psoc creator\\import\\gnu\\arm\\5.4.
 254              		.file 4 "Generated_Source\\PSoC6\\pdl\\drivers/peripheral/device/cy_device.h"
 255              		.file 5 "Generated_Source\\PSoC6\\pdl\\drivers/peripheral/scb/cy_scb_uart.h"
 256              		.file 6 "Generated_Source\\PSoC6\\pdl\\drivers/peripheral/tcpwm/cy_tcpwm_counter.h"
 257              		.file 7 "Generated_Source\\PSoC6\\pdl\\drivers/peripheral/tcpwm/cy_tcpwm_pwm.h"
 258              		.file 8 "Generated_Source\\PSoC6\\pdl\\cmsis/include/core_cm4.h"
 259              		.file 9 "Generated_Source\\PSoC6/UART_1.h"
 260              		.file 10 "Generated_Source\\PSoC6/Counter_1.h"
 261              		.file 11 "Generated_Source\\PSoC6/PWM_L.h"
 262              		.file 12 "Generated_Source\\PSoC6/PWM_R.h"
 263              		.file 13 "Generated_Source\\PSoC6/Counter_2.h"
 264              		.file 14 "Generated_Source\\PSoC6/Counter_4.h"
 265              		.file 15 "Generated_Source\\PSoC6/Counter_3.h"
 266              		.file 16 "globals.h"
ARM GAS  C:\Users\mcfdo\AppData\Local\Temp\cccYIPqL.s 			page 6


 267              		.file 17 "c:\\program files (x86)\\cypress\\psoc creator\\4.4\\psoc creator\\import\\gnu\\arm\\5.4