Archive member included to satisfy reference by file (symbol)

c:/program files (x86)/cypress/psoc creator/4.4/psoc creator/import/gnu/arm/5.4.1/bin/../lib/gcc/arm-none-eabi/5.4.1/armv7e-m/softfp\libgcc.a(_arm_addsubdf3.o)
                              .\CortexM4\ARM_GCC_541\Release\control.o (__aeabi_dsub)
c:/program files (x86)/cypress/psoc creator/4.4/psoc creator/import/gnu/arm/5.4.1/bin/../lib/gcc/arm-none-eabi/5.4.1/armv7e-m/softfp\libgcc.a(_arm_muldivdf3.o)
                              .\CortexM4\ARM_GCC_541\Release\control.o (__aeabi_dmul)
c:/program files (x86)/cypress/psoc creator/4.4/psoc creator/import/gnu/arm/5.4.1/bin/../lib/gcc/arm-none-eabi/5.4.1/armv7e-m/softfp\libgcc.a(_arm_cmpdf2.o)
                              .\CortexM4\ARM_GCC_541\Release\control.o (__aeabi_dcmplt)
c:/program files (x86)/cypress/psoc creator/4.4/psoc creator/import/gnu/arm/5.4.1/bin/../lib/gcc/arm-none-eabi/5.4.1/armv7e-m/softfp\libgcc.a(_arm_fixdfsi.o)
                              .\CortexM4\ARM_GCC_541\Release\control.o (__aeabi_d2iz)
c:/program files (x86)/cypress/psoc creator/4.4/psoc creator/import/gnu/arm/5.4.1/bin/../lib/gcc/arm-none-eabi/5.4.1/armv7e-m/softfp\libgcc.a(_arm_fixunsdfsi.o)
                              .\CortexM4\ARM_GCC_541\Release\control.o (__aeabi_d2uiz)
c:/program files (x86)/cypress/psoc creator/4.4/psoc creator/import/gnu/arm/5.4.1/bin/../lib/gcc/arm-none-eabi/5.4.1/armv7e-m/softfp\libgcc.a(_arm_truncdfsf2.o)
                              .\CortexM4\ARM_GCC_541\Release\control.o (__aeabi_d2f)
c:/program files (x86)/cypress/psoc creator/4.4/psoc creator/import/gnu/arm/5.4.1/bin/../lib/gcc/arm-none-eabi/5.4.1/armv7e-m/softfp\libgcc.a(_aeabi_ldivmod.o)
                              .\CortexM4\ARM_GCC_541\Release\cy_sar.o (__aeabi_ldivmod)
c:/program files (x86)/cypress/psoc creator/4.4/psoc creator/import/gnu/arm/5.4.1/bin/../lib/gcc/arm-none-eabi/5.4.1/armv7e-m/softfp\libgcc.a(_aeabi_uldivmod.o)
                              .\CortexM4\ARM_GCC_541\Release\cy_sysclk.o (__aeabi_uldivmod)
c:/program files (x86)/cypress/psoc creator/4.4/psoc creator/import/gnu/arm/5.4.1/bin/../lib/gcc/arm-none-eabi/5.4.1/armv7e-m/softfp\libgcc.a(_udivmoddi4.o)
                              c:/program files (x86)/cypress/psoc creator/4.4/psoc creator/import/gnu/arm/5.4.1/bin/../lib/gcc/arm-none-eabi/5.4.1/armv7e-m/softfp\libgcc.a(_aeabi_ldivmod.o) (__udivmoddi4)
c:/program files (x86)/cypress/psoc creator/4.4/psoc creator/import/gnu/arm/5.4.1/bin/../lib/gcc/arm-none-eabi/5.4.1/armv7e-m/softfp\libgcc.a(_dvmd_tls.o)
                              c:/program files (x86)/cypress/psoc creator/4.4/psoc creator/import/gnu/arm/5.4.1/bin/../lib/gcc/arm-none-eabi/5.4.1/armv7e-m/softfp\libgcc.a(_aeabi_ldivmod.o) (__aeabi_ldiv0)
c:/program files (x86)/cypress/psoc creator/4.4/psoc creator/import/gnu/arm/5.4.1/bin/../lib/gcc/arm-none-eabi/5.4.1/../../../../arm-none-eabi/lib/armv7e-m/softfp\libg_nano.a(lib_a-exit.o)
                              c:/program files (x86)/cypress/psoc creator/4.4/psoc creator/import/gnu/arm/5.4.1/bin/../lib/gcc/arm-none-eabi/5.4.1/../../../../arm-none-eabi/lib/armv7e-m/softfp/crt0.o (exit)
c:/program files (x86)/cypress/psoc creator/4.4/psoc creator/import/gnu/arm/5.4.1/bin/../lib/gcc/arm-none-eabi/5.4.1/../../../../arm-none-eabi/lib/armv7e-m/softfp\libg_nano.a(lib_a-impure.o)
                              c:/program files (x86)/cypress/psoc creator/4.4/psoc creator/import/gnu/arm/5.4.1/bin/../lib/gcc/arm-none-eabi/5.4.1/../../../../arm-none-eabi/lib/armv7e-m/softfp\libg_nano.a(lib_a-exit.o) (_global_impure_ptr)
c:/program files (x86)/cypress/psoc creator/4.4/psoc creator/import/gnu/arm/5.4.1/bin/../lib/gcc/arm-none-eabi/5.4.1/../../../../arm-none-eabi/lib/armv7e-m/softfp\libg_nano.a(lib_a-init.o)
                              c:/program files (x86)/cypress/psoc creator/4.4/psoc creator/import/gnu/arm/5.4.1/bin/../lib/gcc/arm-none-eabi/5.4.1/../../../../arm-none-eabi/lib/armv7e-m/softfp/crt0.o (__libc_init_array)
c:/program files (x86)/cypress/psoc creator/4.4/psoc creator/import/gnu/arm/5.4.1/bin/../lib/gcc/arm-none-eabi/5.4.1/../../../../arm-none-eabi/lib/armv7e-m/softfp\libg_nano.a(lib_a-memset.o)
                              c:/program files (x86)/cypress/psoc creator/4.4/psoc creator/import/gnu/arm/5.4.1/bin/../lib/gcc/arm-none-eabi/5.4.1/../../../../arm-none-eabi/lib/armv7e-m/softfp/crt0.o (memset)
c:/program files (x86)/cypress/psoc creator/4.4/psoc creator/import/gnu/arm/5.4.1/bin/../lib/gcc/arm-none-eabi/5.4.1/../../../../arm-none-eabi/lib/armv7e-m/softfp\libg_nano.a(lib_a-nano-vfprintf_float.o)
                              (_printf_float)
c:/program files (x86)/cypress/psoc creator/4.4/psoc creator/import/gnu/arm/5.4.1/bin/../lib/gcc/arm-none-eabi/5.4.1/../../../../arm-none-eabi/lib/armv7e-m/softfp\libg_nano.a(lib_a-nano-vfprintf_i.o)
                              c:/program files (x86)/cypress/psoc creator/4.4/psoc creator/import/gnu/arm/5.4.1/bin/../lib/gcc/arm-none-eabi/5.4.1/../../../../arm-none-eabi/lib/armv7e-m/softfp\libg_nano.a(lib_a-nano-vfprintf_float.o) (_printf_common)
c:/program files (x86)/cypress/psoc creator/4.4/psoc creator/import/gnu/arm/5.4.1/bin/../lib/gcc/arm-none-eabi/5.4.1/../../../../arm-none-eabi/lib/armv7e-m/softfp\libg_nano.a(lib_a-snprintf.o)
                              .\CortexM4\ARM_GCC_541\Release\main_cm4.o (snprintf)
c:/program files (x86)/cypress/psoc creator/4.4/psoc creator/import/gnu/arm/5.4.1/bin/../lib/gcc/arm-none-eabi/5.4.1/../../../../arm-none-eabi/lib/armv7e-m/softfp\libg_nano.a(lib_a-sprintf.o)
                              .\CortexM4\ARM_GCC_541\Release\HC-SR04.o (sprintf)
c:/program files (x86)/cypress/psoc creator/4.4/psoc creator/import/gnu/arm/5.4.1/bin/../lib/gcc/arm-none-eabi/5.4.1/../../../../arm-none-eabi/lib/armv7e-m/softfp\libg_nano.a(lib_a-strlen.o)
                              c:/program files (x86)/cypress/psoc creator/4.4/psoc creator/import/gnu/arm/5.4.1/bin/../lib/gcc/arm-none-eabi/5.4.1/../../../../arm-none-eabi/lib/armv7e-m/softfp\libg_nano.a(lib_a-nano-vfprintf_float.o) (strlen)
c:/program files (x86)/cypress/psoc creator/4.4/psoc creator/import/gnu/arm/5.4.1/bin/../lib/gcc/arm-none-eabi/5.4.1/../../../../arm-none-eabi/lib/armv7e-m/softfp\libg_nano.a(lib_a-dtoa.o)
                              c:/program files (x86)/cypress/psoc creator/4.4/psoc creator/import/gnu/arm/5.4.1/bin/../lib/gcc/arm-none-eabi/5.4.1/../../../../arm-none-eabi/lib/armv7e-m/softfp\libg_nano.a(lib_a-nano-vfprintf_float.o) (_dtoa_r)
c:/program files (x86)/cypress/psoc creator/4.4/psoc creator/import/gnu/arm/5.4.1/bin/../lib/gcc/arm-none-eabi/5.4.1/../../../../arm-none-eabi/lib/armv7e-m/softfp\libg_nano.a(lib_a-locale.o)
                              c:/program files (x86)/cypress/psoc creator/4.4/psoc creator/import/gnu/arm/5.4.1/bin/../lib/gcc/arm-none-eabi/5.4.1/../../../../arm-none-eabi/lib/armv7e-m/softfp\libg_nano.a(lib_a-nano-vfprintf_float.o) (_localeconv_r)
c:/program files (x86)/cypress/psoc creator/4.4/psoc creator/import/gnu/arm/5.4.1/bin/../lib/gcc/arm-none-eabi/5.4.1/../../../../arm-none-eabi/lib/armv7e-m/softfp\libg_nano.a(lib_a-malloc.o)
                              c:/program files (x86)/cypress/psoc creator/4.4/psoc creator/import/gnu/arm/5.4.1/bin/../lib/gcc/arm-none-eabi/5.4.1/../../../../arm-none-eabi/lib/armv7e-m/softfp\libg_nano.a(lib_a-dtoa.o) (malloc)
c:/program files (x86)/cypress/psoc creator/4.4/psoc creator/import/gnu/arm/5.4.1/bin/../lib/gcc/arm-none-eabi/5.4.1/../../../../arm-none-eabi/lib/armv7e-m/softfp\libg_nano.a(lib_a-memchr.o)
                              c:/program files (x86)/cypress/psoc creator/4.4/psoc creator/import/gnu/arm/5.4.1/bin/../lib/gcc/arm-none-eabi/5.4.1/../../../../arm-none-eabi/lib/armv7e-m/softfp\libg_nano.a(lib_a-nano-vfprintf_i.o) (memchr)
c:/program files (x86)/cypress/psoc creator/4.4/psoc creator/import/gnu/arm/5.4.1/bin/../lib/gcc/arm-none-eabi/5.4.1/../../../../arm-none-eabi/lib/armv7e-m/softfp\libg_nano.a(lib_a-memcpy-stub.o)
                              c:/program files (x86)/cypress/psoc creator/4.4/psoc creator/import/gnu/arm/5.4.1/bin/../lib/gcc/arm-none-eabi/5.4.1/../../../../arm-none-eabi/lib/armv7e-m/softfp\libg_nano.a(lib_a-dtoa.o) (memcpy)
c:/program files (x86)/cypress/psoc creator/4.4/psoc creator/import/gnu/arm/5.4.1/bin/../lib/gcc/arm-none-eabi/5.4.1/../../../../arm-none-eabi/lib/armv7e-m/softfp\libg_nano.a(lib_a-mprec.o)
                              c:/program files (x86)/cypress/psoc creator/4.4/psoc creator/import/gnu/arm/5.4.1/bin/../lib/gcc/arm-none-eabi/5.4.1/../../../../arm-none-eabi/lib/armv7e-m/softfp\libg_nano.a(lib_a-dtoa.o) (_Balloc)
c:/program files (x86)/cypress/psoc creator/4.4/psoc creator/import/gnu/arm/5.4.1/bin/../lib/gcc/arm-none-eabi/5.4.1/../../../../arm-none-eabi/lib/armv7e-m/softfp\libg_nano.a(lib_a-nano-callocr.o)
                              c:/program files (x86)/cypress/psoc creator/4.4/psoc creator/import/gnu/arm/5.4.1/bin/../lib/gcc/arm-none-eabi/5.4.1/../../../../arm-none-eabi/lib/armv7e-m/softfp\libg_nano.a(lib_a-mprec.o) (_calloc_r)
c:/program files (x86)/cypress/psoc creator/4.4/psoc creator/import/gnu/arm/5.4.1/bin/../lib/gcc/arm-none-eabi/5.4.1/../../../../arm-none-eabi/lib/armv7e-m/softfp\libg_nano.a(lib_a-nano-freer.o)
                              c:/program files (x86)/cypress/psoc creator/4.4/psoc creator/import/gnu/arm/5.4.1/bin/../lib/gcc/arm-none-eabi/5.4.1/../../../../arm-none-eabi/lib/armv7e-m/softfp\libg_nano.a(lib_a-malloc.o) (_free_r)
c:/program files (x86)/cypress/psoc creator/4.4/psoc creator/import/gnu/arm/5.4.1/bin/../lib/gcc/arm-none-eabi/5.4.1/../../../../arm-none-eabi/lib/armv7e-m/softfp\libg_nano.a(lib_a-nano-mallocr.o)
                              c:/program files (x86)/cypress/psoc creator/4.4/psoc creator/import/gnu/arm/5.4.1/bin/../lib/gcc/arm-none-eabi/5.4.1/../../../../arm-none-eabi/lib/armv7e-m/softfp\libg_nano.a(lib_a-malloc.o) (_malloc_r)
c:/program files (x86)/cypress/psoc creator/4.4/psoc creator/import/gnu/arm/5.4.1/bin/../lib/gcc/arm-none-eabi/5.4.1/../../../../arm-none-eabi/lib/armv7e-m/softfp\libg_nano.a(lib_a-nano-svfprintf.o)
                              c:/program files (x86)/cypress/psoc creator/4.4/psoc creator/import/gnu/arm/5.4.1/bin/../lib/gcc/arm-none-eabi/5.4.1/../../../../arm-none-eabi/lib/armv7e-m/softfp\libg_nano.a(lib_a-snprintf.o) (_svfprintf_r)
c:/program files (x86)/cypress/psoc creator/4.4/psoc creator/import/gnu/arm/5.4.1/bin/../lib/gcc/arm-none-eabi/5.4.1/../../../../arm-none-eabi/lib/armv7e-m/softfp\libg_nano.a(lib_a-sbrkr.o)
                              c:/program files (x86)/cypress/psoc creator/4.4/psoc creator/import/gnu/arm/5.4.1/bin/../lib/gcc/arm-none-eabi/5.4.1/../../../../arm-none-eabi/lib/armv7e-m/softfp\libg_nano.a(lib_a-nano-mallocr.o) (_sbrk_r)
c:/program files (x86)/cypress/psoc creator/4.4/psoc creator/import/gnu/arm/5.4.1/bin/../lib/gcc/arm-none-eabi/5.4.1/../../../../arm-none-eabi/lib/armv7e-m/softfp\libg_nano.a(lib_a-strcmp.o)
                              c:/program files (x86)/cypress/psoc creator/4.4/psoc creator/import/gnu/arm/5.4.1/bin/../lib/gcc/arm-none-eabi/5.4.1/../../../../arm-none-eabi/lib/armv7e-m/softfp\libg_nano.a(lib_a-locale.o) (strcmp)
c:/program files (x86)/cypress/psoc creator/4.4/psoc creator/import/gnu/arm/5.4.1/bin/../lib/gcc/arm-none-eabi/5.4.1/../../../../arm-none-eabi/lib/armv7e-m/softfp\libg_nano.a(lib_a-memmove.o)
                              c:/program files (x86)/cypress/psoc creator/4.4/psoc creator/import/gnu/arm/5.4.1/bin/../lib/gcc/arm-none-eabi/5.4.1/../../../../arm-none-eabi/lib/armv7e-m/softfp\libg_nano.a(lib_a-nano-svfprintf.o) (memmove)
c:/program files (x86)/cypress/psoc creator/4.4/psoc creator/import/gnu/arm/5.4.1/bin/../lib/gcc/arm-none-eabi/5.4.1/../../../../arm-none-eabi/lib/armv7e-m/softfp\libg_nano.a(lib_a-mlock.o)
                              c:/program files (x86)/cypress/psoc creator/4.4/psoc creator/import/gnu/arm/5.4.1/bin/../lib/gcc/arm-none-eabi/5.4.1/../../../../arm-none-eabi/lib/armv7e-m/softfp\libg_nano.a(lib_a-nano-freer.o) (__malloc_lock)
c:/program files (x86)/cypress/psoc creator/4.4/psoc creator/import/gnu/arm/5.4.1/bin/../lib/gcc/arm-none-eabi/5.4.1/../../../../arm-none-eabi/lib/armv7e-m/softfp\libg_nano.a(lib_a-nano-reallocr.o)
                              c:/program files (x86)/cypress/psoc creator/4.4/psoc creator/import/gnu/arm/5.4.1/bin/../lib/gcc/arm-none-eabi/5.4.1/../../../../arm-none-eabi/lib/armv7e-m/softfp\libg_nano.a(lib_a-nano-svfprintf.o) (_realloc_r)
c:/program files (x86)/cypress/psoc creator/4.4/psoc creator/import/gnu/arm/5.4.1/bin/../lib/gcc/arm-none-eabi/5.4.1/../../../../arm-none-eabi/lib/armv7e-m/softfp\libg_nano.a(lib_a-reent.o)
                              c:/program files (x86)/cypress/psoc creator/4.4/psoc creator/import/gnu/arm/5.4.1/bin/../lib/gcc/arm-none-eabi/5.4.1/../../../../arm-none-eabi/lib/armv7e-m/softfp\libg_nano.a(lib_a-sbrkr.o) (errno)
c:/program files (x86)/cypress/psoc creator/4.4/psoc creator/import/gnu/arm/5.4.1/bin/../lib/gcc/arm-none-eabi/5.4.1/../../../../arm-none-eabi/lib/armv7e-m/softfp\libg_nano.a(lib_a-nano-msizer.o)
                              c:/program files (x86)/cypress/psoc creator/4.4/psoc creator/import/gnu/arm/5.4.1/bin/../lib/gcc/arm-none-eabi/5.4.1/../../../../arm-none-eabi/lib/armv7e-m/softfp\libg_nano.a(lib_a-nano-reallocr.o) (_malloc_usable_size_r)
c:/program files (x86)/cypress/psoc creator/4.4/psoc creator/import/gnu/arm/5.4.1/bin/../lib/gcc/arm-none-eabi/5.4.1/armv7e-m/softfp\libgcc.a(_arm_unorddf2.o)
                              c:/program files (x86)/cypress/psoc creator/4.4/psoc creator/import/gnu/arm/5.4.1/bin/../lib/gcc/arm-none-eabi/5.4.1/../../../../arm-none-eabi/lib/armv7e-m/softfp\libg_nano.a(lib_a-nano-vfprintf_float.o) (__aeabi_dcmpun)
c:/program files (x86)/cypress/psoc creator/4.4/psoc creator/import/gnu/arm/5.4.1/bin/../lib/gcc/arm-none-eabi/5.4.1/../../../../arm-none-eabi/lib/armv7e-m/softfp\libnosys.a(sbrk.o)
                              c:/program files (x86)/cypress/psoc creator/4.4/psoc creator/import/gnu/arm/5.4.1/bin/../lib/gcc/arm-none-eabi/5.4.1/../../../../arm-none-eabi/lib/armv7e-m/softfp\libg_nano.a(lib_a-sbrkr.o) (_sbrk)
c:/program files (x86)/cypress/psoc creator/4.4/psoc creator/import/gnu/arm/5.4.1/bin/../lib/gcc/arm-none-eabi/5.4.1/../../../../arm-none-eabi/lib/armv7e-m/softfp\libnosys.a(_exit.o)
                              c:/program files (x86)/cypress/psoc creator/4.4/psoc creator/import/gnu/arm/5.4.1/bin/../lib/gcc/arm-none-eabi/5.4.1/../../../../arm-none-eabi/lib/armv7e-m/softfp\libg_nano.a(lib_a-exit.o) (_exit)
c:/program files (x86)/cypress/psoc creator/4.4/psoc creator/import/gnu/arm/5.4.1/bin/../lib/gcc/arm-none-eabi/5.4.1/../../../../arm-none-eabi/lib/armv7e-m/softfp\libm.a(lib_a-s_ceil.o)
                              .\CortexM4\ARM_GCC_541\Release\control.o (ceil)
c:/program files (x86)/cypress/psoc creator/4.4/psoc creator/import/gnu/arm/5.4.1/bin/../lib/gcc/arm-none-eabi/5.4.1/../../../../arm-none-eabi/lib/armv7e-m/softfp\libm.a(lib_a-s_cos.o)
                              .\CortexM4\ARM_GCC_541\Release\control.o (cos)
c:/program files (x86)/cypress/psoc creator/4.4/psoc creator/import/gnu/arm/5.4.1/bin/../lib/gcc/arm-none-eabi/5.4.1/../../../../arm-none-eabi/lib/armv7e-m/softfp\libm.a(lib_a-s_floor.o)
                              .\CortexM4\ARM_GCC_541\Release\cy_sysclk.o (floor)
c:/program files (x86)/cypress/psoc creator/4.4/psoc creator/import/gnu/arm/5.4.1/bin/../lib/gcc/arm-none-eabi/5.4.1/../../../../arm-none-eabi/lib/armv7e-m/softfp\libm.a(lib_a-s_sin.o)
                              .\CortexM4\ARM_GCC_541\Release\control.o (sin)
c:/program files (x86)/cypress/psoc creator/4.4/psoc creator/import/gnu/arm/5.4.1/bin/../lib/gcc/arm-none-eabi/5.4.1/../../../../arm-none-eabi/lib/armv7e-m/softfp\libm.a(lib_a-sf_ceil.o)
                              .\CortexM4\ARM_GCC_541\Release\cy_sysclk.o (ceilf)
c:/program files (x86)/cypress/psoc creator/4.4/psoc creator/import/gnu/arm/5.4.1/bin/../lib/gcc/arm-none-eabi/5.4.1/../../../../arm-none-eabi/lib/armv7e-m/softfp\libm.a(lib_a-w_atan2.o)
                              .\CortexM4\ARM_GCC_541\Release\control.o (atan2)
c:/program files (x86)/cypress/psoc creator/4.4/psoc creator/import/gnu/arm/5.4.1/bin/../lib/gcc/arm-none-eabi/5.4.1/../../../../arm-none-eabi/lib/armv7e-m/softfp\libm.a(lib_a-w_log.o)
                              .\CortexM4\ARM_GCC_541\Release\cy_sysclk.o (log)
c:/program files (x86)/cypress/psoc creator/4.4/psoc creator/import/gnu/arm/5.4.1/bin/../lib/gcc/arm-none-eabi/5.4.1/../../../../arm-none-eabi/lib/armv7e-m/softfp\libm.a(lib_a-w_sqrt.o)
                              .\CortexM4\ARM_GCC_541\Release\odometry.o (sqrt)
c:/program files (x86)/cypress/psoc creator/4.4/psoc creator/import/gnu/arm/5.4.1/bin/../lib/gcc/arm-none-eabi/5.4.1/../../../../arm-none-eabi/lib/armv7e-m/softfp\libm.a(lib_a-e_atan2.o)
                              c:/program files (x86)/cypress/psoc creator/4.4/psoc creator/import/gnu/arm/5.4.1/bin/../lib/gcc/arm-none-eabi/5.4.1/../../../../arm-none-eabi/lib/armv7e-m/softfp\libm.a(lib_a-w_atan2.o) (__ieee754_atan2)
c:/program files (x86)/cypress/psoc creator/4.4/psoc creator/import/gnu/arm/5.4.1/bin/../lib/gcc/arm-none-eabi/5.4.1/../../../../arm-none-eabi/lib/armv7e-m/softfp\libm.a(lib_a-e_log.o)
                              c:/program files (x86)/cypress/psoc creator/4.4/psoc creator/import/gnu/arm/5.4.1/bin/../lib/gcc/arm-none-eabi/5.4.1/../../../../arm-none-eabi/lib/armv7e-m/softfp\libm.a(lib_a-w_log.o) (__ieee754_log)
c:/program files (x86)/cypress/psoc creator/4.4/psoc creator/import/gnu/arm/5.4.1/bin/../lib/gcc/arm-none-eabi/5.4.1/../../../../arm-none-eabi/lib/armv7e-m/softfp\libm.a(lib_a-e_rem_pio2.o)
                              c:/program files (x86)/cypress/psoc creator/4.4/psoc creator/import/gnu/arm/5.4.1/bin/../lib/gcc/arm-none-eabi/5.4.1/../../../../arm-none-eabi/lib/armv7e-m/softfp\libm.a(lib_a-s_cos.o) (__ieee754_rem_pio2)
c:/program files (x86)/cypress/psoc creator/4.4/psoc creator/import/gnu/arm/5.4.1/bin/../lib/gcc/arm-none-eabi/5.4.1/../../../../arm-none-eabi/lib/armv7e-m/softfp\libm.a(lib_a-e_sqrt.o)
                              c:/program files (x86)/cypress/psoc creator/4.4/psoc creator/import/gnu/arm/5.4.1/bin/../lib/gcc/arm-none-eabi/5.4.1/../../../../arm-none-eabi/lib/armv7e-m/softfp\libm.a(lib_a-w_sqrt.o) (__ieee754_sqrt)
c:/program files (x86)/cypress/psoc creator/4.4/psoc creator/import/gnu/arm/5.4.1/bin/../lib/gcc/arm-none-eabi/5.4.1/../../../../arm-none-eabi/lib/armv7e-m/softfp\libm.a(lib_a-k_cos.o)
                              c:/program files (x86)/cypress/psoc creator/4.4/psoc creator/import/gnu/arm/5.4.1/bin/../lib/gcc/arm-none-eabi/5.4.1/../../../../arm-none-eabi/lib/armv7e-m/softfp\libm.a(lib_a-s_cos.o) (__kernel_cos)
c:/program files (x86)/cypress/psoc creator/4.4/psoc creator/import/gnu/arm/5.4.1/bin/../lib/gcc/arm-none-eabi/5.4.1/../../../../arm-none-eabi/lib/armv7e-m/softfp\libm.a(lib_a-k_rem_pio2.o)
                              c:/program files (x86)/cypress/psoc creator/4.4/psoc creator/import/gnu/arm/5.4.1/bin/../lib/gcc/arm-none-eabi/5.4.1/../../../../arm-none-eabi/lib/armv7e-m/softfp\libm.a(lib_a-e_rem_pio2.o) (__kernel_rem_pio2)
c:/program files (x86)/cypress/psoc creator/4.4/psoc creator/import/gnu/arm/5.4.1/bin/../lib/gcc/arm-none-eabi/5.4.1/../../../../arm-none-eabi/lib/armv7e-m/softfp\libm.a(lib_a-k_sin.o)
                              c:/program files (x86)/cypress/psoc creator/4.4/psoc creator/import/gnu/arm/5.4.1/bin/../lib/gcc/arm-none-eabi/5.4.1/../../../../arm-none-eabi/lib/armv7e-m/softfp\libm.a(lib_a-s_cos.o) (__kernel_sin)
c:/program files (x86)/cypress/psoc creator/4.4/psoc creator/import/gnu/arm/5.4.1/bin/../lib/gcc/arm-none-eabi/5.4.1/../../../../arm-none-eabi/lib/armv7e-m/softfp\libm.a(lib_a-s_atan.o)
                              c:/program files (x86)/cypress/psoc creator/4.4/psoc creator/import/gnu/arm/5.4.1/bin/../lib/gcc/arm-none-eabi/5.4.1/../../../../arm-none-eabi/lib/armv7e-m/softfp\libm.a(lib_a-e_atan2.o) (atan)
c:/program files (x86)/cypress/psoc creator/4.4/psoc creator/import/gnu/arm/5.4.1/bin/../lib/gcc/arm-none-eabi/5.4.1/../../../../arm-none-eabi/lib/armv7e-m/softfp\libm.a(lib_a-s_fabs.o)
                              c:/program files (x86)/cypress/psoc creator/4.4/psoc creator/import/gnu/arm/5.4.1/bin/../lib/gcc/arm-none-eabi/5.4.1/../../../../arm-none-eabi/lib/armv7e-m/softfp\libm.a(lib_a-e_atan2.o) (fabs)
c:/program files (x86)/cypress/psoc creator/4.4/psoc creator/import/gnu/arm/5.4.1/bin/../lib/gcc/arm-none-eabi/5.4.1/../../../../arm-none-eabi/lib/armv7e-m/softfp\libm.a(lib_a-s_lib_ver.o)
                              c:/program files (x86)/cypress/psoc creator/4.4/psoc creator/import/gnu/arm/5.4.1/bin/../lib/gcc/arm-none-eabi/5.4.1/../../../../arm-none-eabi/lib/armv7e-m/softfp\libm.a(lib_a-w_log.o) (__fdlib_version)
c:/program files (x86)/cypress/psoc creator/4.4/psoc creator/import/gnu/arm/5.4.1/bin/../lib/gcc/arm-none-eabi/5.4.1/../../../../arm-none-eabi/lib/armv7e-m/softfp\libm.a(lib_a-s_matherr.o)
                              c:/program files (x86)/cypress/psoc creator/4.4/psoc creator/import/gnu/arm/5.4.1/bin/../lib/gcc/arm-none-eabi/5.4.1/../../../../arm-none-eabi/lib/armv7e-m/softfp\libm.a(lib_a-w_log.o) (matherr)
c:/program files (x86)/cypress/psoc creator/4.4/psoc creator/import/gnu/arm/5.4.1/bin/../lib/gcc/arm-none-eabi/5.4.1/../../../../arm-none-eabi/lib/armv7e-m/softfp\libm.a(lib_a-s_nan.o)
                              c:/program files (x86)/cypress/psoc creator/4.4/psoc creator/import/gnu/arm/5.4.1/bin/../lib/gcc/arm-none-eabi/5.4.1/../../../../arm-none-eabi/lib/armv7e-m/softfp\libm.a(lib_a-w_log.o) (nan)
c:/program files (x86)/cypress/psoc creator/4.4/psoc creator/import/gnu/arm/5.4.1/bin/../lib/gcc/arm-none-eabi/5.4.1/../../../../arm-none-eabi/lib/armv7e-m/softfp\libm.a(lib_a-s_scalbn.o)
                              c:/program files (x86)/cypress/psoc creator/4.4/psoc creator/import/gnu/arm/5.4.1/bin/../lib/gcc/arm-none-eabi/5.4.1/../../../../arm-none-eabi/lib/armv7e-m/softfp\libm.a(lib_a-k_rem_pio2.o) (scalbn)
c:/program files (x86)/cypress/psoc creator/4.4/psoc creator/import/gnu/arm/5.4.1/bin/../lib/gcc/arm-none-eabi/5.4.1/../../../../arm-none-eabi/lib/armv7e-m/softfp\libm.a(lib_a-s_copysign.o)
                              c:/program files (x86)/cypress/psoc creator/4.4/psoc creator/import/gnu/arm/5.4.1/bin/../lib/gcc/arm-none-eabi/5.4.1/../../../../arm-none-eabi/lib/armv7e-m/softfp\libm.a(lib_a-s_scalbn.o) (copysign)
c:/program files (x86)/cypress/psoc creator/4.4/psoc creator/import/gnu/arm/5.4.1/bin/../lib/gcc/arm-none-eabi/5.4.1/../../../../arm-none-eabi/lib/armv7e-m/softfp\libc.a(lib_a-errno.o)
                              c:/program files (x86)/cypress/psoc creator/4.4/psoc creator/import/gnu/arm/5.4.1/bin/../lib/gcc/arm-none-eabi/5.4.1/../../../../arm-none-eabi/lib/armv7e-m/softfp\libm.a(lib_a-w_log.o) (__errno)

Allocating common symbols
Common symbol       size              file

Cy_SAR_offset       0x20              .\CortexM4\ARM_GCC_541\Release\cy_sar.o
Cy_SAR_countsPer10Volt
                    0x40              .\CortexM4\ARM_GCC_541\Release\cy_sar.o
sample_uV           0x4               .\CortexM4\ARM_GCC_541\Release\light_sensor.o
errno               0x4               c:/program files (x86)/cypress/psoc creator/4.4/psoc creator/import/gnu/arm/5.4.1/bin/../lib/gcc/arm-none-eabi/5.4.1/../../../../arm-none-eabi/lib/armv7e-m/softfp\libg_nano.a(lib_a-reent.o)
UART_1_context      0x34              .\CortexM4\ARM_GCC_541\Release\UART_1.o
buffer              0x7d              .\CortexM4\ARM_GCC_541\Release\main_cm4.o
imp                 0x1e              .\CortexM4\ARM_GCC_541\Release\main_cm4.o
cy_device           0x4               .\CortexM4\ARM_GCC_541\Release\cy_device.o

Discarded input sections

 .text          0x00000000        0x0 c:/program files (x86)/cypress/psoc creator/4.4/psoc creator/import/gnu/arm/5.4.1/bin/../lib/gcc/arm-none-eabi/5.4.1/armv7e-m/softfp/crti.o
 .data          0x00000000        0x0 c:/program files (x86)/cypress/psoc creator/4.4/psoc creator/import/gnu/arm/5.4.1/bin/../lib/gcc/arm-none-eabi/5.4.1/armv7e-m/softfp/crti.o
 .bss           0x00000000        0x0 c:/program files (x86)/cypress/psoc creator/4.4/psoc creator/import/gnu/arm/5.4.1/bin/../lib/gcc/arm-none-eabi/5.4.1/armv7e-m/softfp/crti.o
 .data          0x00000000        0x4 c:/program files (x86)/cypress/psoc creator/4.4/psoc creator/import/gnu/arm/5.4.1/bin/../lib/gcc/arm-none-eabi/5.4.1/armv7e-m/softfp/crtbegin.o
 .text          0x00000000       0x74 c:/program files (x86)/cypress/psoc creator/4.4/psoc creator/import/gnu/arm/5.4.1/bin/../lib/gcc/arm-none-eabi/5.4.1/../../../../arm-none-eabi/lib/armv7e-m/softfp/crt0.o
 .data          0x00000000        0x0 c:/program files (x86)/cypress/psoc creator/4.4/psoc creator/import/gnu/arm/5.4.1/bin/../lib/gcc/arm-none-eabi/5.4.1/../../../../arm-none-eabi/lib/armv7e-m/softfp/crt0.o
 .bss           0x00000000        0x0 c:/program files (x86)/cypress/psoc creator/4.4/psoc creator/import/gnu/arm/5.4.1/bin/../lib/gcc/arm-none-eabi/5.4.1/../../../../arm-none-eabi/lib/armv7e-m/softfp/crt0.o
 .ARM.extab     0x00000000        0x0 c:/program files (x86)/cypress/psoc creator/4.4/psoc creator/import/gnu/arm/5.4.1/bin/../lib/gcc/arm-none-eabi/5.4.1/../../../../arm-none-eabi/lib/armv7e-m/softfp/crt0.o
 .ARM.exidx     0x00000000        0x8 c:/program files (x86)/cypress/psoc creator/4.4/psoc creator/import/gnu/arm/5.4.1/bin/../lib/gcc/arm-none-eabi/5.4.1/../../../../arm-none-eabi/lib/armv7e-m/softfp/crt0.o
 .ARM.attributes
                0x00000000       0x20 c:/program files (x86)/cypress/psoc creator/4.4/psoc creator/import/gnu/arm/5.4.1/bin/../lib/gcc/arm-none-eabi/5.4.1/../../../../arm-none-eabi/lib/armv7e-m/softfp/crt0.o
 .data          0x00000000        0x0 .\CortexM4\ARM_GCC_541\Release\startup_psoc6_01_cm4.o
 .bss           0x00000000        0x0 .\CortexM4\ARM_GCC_541\Release\startup_psoc6_01_cm4.o
 .text          0x00000000        0x0 .\CortexM4\ARM_GCC_541\Release\main_cm4.o
 .text          0x00000000        0x0 .\CortexM4\ARM_GCC_541\Release\system_psoc6_cm4.o
 .text          0x00000000        0x0 .\CortexM4\ARM_GCC_541\Release\light_sensor.o
 .data          0x00000000        0x0 .\CortexM4\ARM_GCC_541\Release\light_sensor.o
 .bss           0x00000000        0x0 .\CortexM4\ARM_GCC_541\Release\light_sensor.o
 .text          0x00000000        0x0 .\CortexM4\ARM_GCC_541\Release\control.o
 .data          0x00000000        0x0 .\CortexM4\ARM_GCC_541\Release\control.o
 .bss           0x00000000        0x0 .\CortexM4\ARM_GCC_541\Release\control.o
 .text          0x00000000        0x0 .\CortexM4\ARM_GCC_541\Release\encoder.o
 .data          0x00000000        0x0 .\CortexM4\ARM_GCC_541\Release\encoder.o
 .rodata        0x00000000        0x4 .\CortexM4\ARM_GCC_541\Release\encoder.o
 .text          0x00000000        0x0 .\CortexM4\ARM_GCC_541\Release\odometry.o
 .data          0x00000000        0x0 .\CortexM4\ARM_GCC_541\Release\odometry.o
 .bss           0x00000000        0x0 .\CortexM4\ARM_GCC_541\Release\odometry.o
 .text          0x00000000        0x0 .\CortexM4\ARM_GCC_541\Release\HC-SR04.o
 .data          0x00000000        0x1 .\CortexM4\ARM_GCC_541\Release\HC-SR04.o
 .bss           0x00000000        0x0 .\CortexM4\ARM_GCC_541\Release\HC-SR04.o
 .text.echo_sub_Handler
                0x00000000       0x4c .\CortexM4\ARM_GCC_541\Release\HC-SR04.o
 .text.echo_bajo_Handler
                0x00000000      0x114 .\CortexM4\ARM_GCC_541\Release\HC-SR04.o
 .text.SysInt_3_IRQHandler
                0x00000000       0x5c .\CortexM4\ARM_GCC_541\Release\HC-SR04.o
 .rodata.str1.1
                0x00000000       0x19 .\CortexM4\ARM_GCC_541\Release\HC-SR04.o
 .debug_info    0x00000000     0x1c27 .\CortexM4\ARM_GCC_541\Release\HC-SR04.o
 .debug_abbrev  0x00000000      0x2e1 .\CortexM4\ARM_GCC_541\Release\HC-SR04.o
 .debug_loc     0x00000000      0x203 .\CortexM4\ARM_GCC_541\Release\HC-SR04.o
 .debug_aranges
                0x00000000       0x30 .\CortexM4\ARM_GCC_541\Release\HC-SR04.o
 .debug_ranges  0x00000000       0x68 .\CortexM4\ARM_GCC_541\Release\HC-SR04.o
 .debug_line    0x00000000      0x5f0 .\CortexM4\ARM_GCC_541\Release\HC-SR04.o
 .debug_str     0x00000000     0x2273 .\CortexM4\ARM_GCC_541\Release\HC-SR04.o
 .comment       0x00000000       0x6f .\CortexM4\ARM_GCC_541\Release\HC-SR04.o
 .debug_frame   0x00000000       0x88 .\CortexM4\ARM_GCC_541\Release\HC-SR04.o
 .ARM.attributes
                0x00000000       0x37 .\CortexM4\ARM_GCC_541\Release\HC-SR04.o
 .text          0x00000000        0x0 .\CortexM4\ARM_GCC_541\Release\cyfitter_sysint_cfg.o
 .data          0x00000000        0x0 .\CortexM4\ARM_GCC_541\Release\cyfitter_sysint_cfg.o
 .bss           0x00000000        0x0 .\CortexM4\ARM_GCC_541\Release\cyfitter_sysint_cfg.o
 .text          0x00000000        0x0 .\CortexM4\ARM_GCC_541\Release\cymetadata.o
 .data          0x00000000        0x0 .\CortexM4\ARM_GCC_541\Release\cymetadata.o
 .bss           0x00000000        0x0 .\CortexM4\ARM_GCC_541\Release\cymetadata.o
 .text          0x00000000        0x0 .\CortexM4\ARM_GCC_541\Release\UART_1.o
 .data          0x00000000        0x0 .\CortexM4\ARM_GCC_541\Release\UART_1.o
 .text          0x00000000        0x0 .\CortexM4\ARM_GCC_541\Release\cy_efuse.o
 .data          0x00000000        0x0 .\CortexM4\ARM_GCC_541\Release\cy_efuse.o
 .bss           0x00000000        0x4 .\CortexM4\ARM_GCC_541\Release\cy_efuse.o
 .text.Cy_EFUSE_GetEfuseByte
                0x00000000       0xa0 .\CortexM4\ARM_GCC_541\Release\cy_efuse.o
 .text.Cy_EFUSE_GetEfuseBit
                0x00000000       0x38 .\CortexM4\ARM_GCC_541\Release\cy_efuse.o
 .text.Cy_EFUSE_GetExternalStatus
                0x00000000        0xc .\CortexM4\ARM_GCC_541\Release\cy_efuse.o
 .debug_info    0x00000000      0x900 .\CortexM4\ARM_GCC_541\Release\cy_efuse.o
 .debug_abbrev  0x00000000      0x244 .\CortexM4\ARM_GCC_541\Release\cy_efuse.o
 .debug_loc     0x00000000      0x203 .\CortexM4\ARM_GCC_541\Release\cy_efuse.o
 .debug_aranges
                0x00000000       0x30 .\CortexM4\ARM_GCC_541\Release\cy_efuse.o
 .debug_ranges  0x00000000       0x38 .\CortexM4\ARM_GCC_541\Release\cy_efuse.o
 .debug_line    0x00000000      0x338 .\CortexM4\ARM_GCC_541\Release\cy_efuse.o
 .debug_str     0x00000000      0xa12 .\CortexM4\ARM_GCC_541\Release\cy_efuse.o
 .comment       0x00000000       0x6f .\CortexM4\ARM_GCC_541\Release\cy_efuse.o
 .debug_frame   0x00000000       0x60 .\CortexM4\ARM_GCC_541\Release\cy_efuse.o
 .ARM.attributes
                0x00000000       0x37 .\CortexM4\ARM_GCC_541\Release\cy_efuse.o
 .text          0x00000000        0x0 .\CortexM4\ARM_GCC_541\Release\cy_flash.o
 .data          0x00000000        0x0 .\CortexM4\ARM_GCC_541\Release\cy_flash.o
 .text.Cy_Flash_EraseRow
                0x00000000       0x74 .\CortexM4\ARM_GCC_541\Release\cy_flash.o
 .text.Cy_Flash_ProgramRow
                0x00000000       0x7c .\CortexM4\ARM_GCC_541\Release\cy_flash.o
 .text.Cy_Flash_WriteRow
                0x00000000       0x7c .\CortexM4\ARM_GCC_541\Release\cy_flash.o
 .text.Cy_Flash_IsOperationComplete
                0x00000000        0x4 .\CortexM4\ARM_GCC_541\Release\cy_flash.o
 .text.Cy_Flash_StartErase
                0x00000000       0x88 .\CortexM4\ARM_GCC_541\Release\cy_flash.o
 .text.Cy_Flash_StartProgram
                0x00000000       0x90 .\CortexM4\ARM_GCC_541\Release\cy_flash.o
 .text.Cy_Flash_StartWrite
                0x00000000       0x40 .\CortexM4\ARM_GCC_541\Release\cy_flash.o
 .text.Cy_Flash_RowChecksum
                0x00000000       0xc0 .\CortexM4\ARM_GCC_541\Release\cy_flash.o
 .text.Cy_Flash_CalculateHash
                0x00000000       0x6c .\CortexM4\ARM_GCC_541\Release\cy_flash.o
 .text.Cy_Flash_GetExternalStatus
                0x00000000        0xc .\CortexM4\ARM_GCC_541\Release\cy_flash.o
 .text          0x00000000        0x0 .\CortexM4\ARM_GCC_541\Release\cy_gpio.o
 .data          0x00000000        0x0 .\CortexM4\ARM_GCC_541\Release\cy_gpio.o
 .bss           0x00000000        0x0 .\CortexM4\ARM_GCC_541\Release\cy_gpio.o
 .text.Cy_GPIO_SetHSIOM
                0x00000000       0x4c .\CortexM4\ARM_GCC_541\Release\cy_gpio.o
 .text.Cy_GPIO_Pin_Init
                0x00000000      0x134 .\CortexM4\ARM_GCC_541\Release\cy_gpio.o
 .text.Cy_GPIO_Port_Init
                0x00000000       0x60 .\CortexM4\ARM_GCC_541\Release\cy_gpio.o
 .text.Cy_GPIO_Pin_FastInit
                0x00000000       0x50 .\CortexM4\ARM_GCC_541\Release\cy_gpio.o
 .text.Cy_GPIO_Port_Deinit
                0x00000000       0x40 .\CortexM4\ARM_GCC_541\Release\cy_gpio.o
 .text.Cy_GPIO_SetAmuxSplit
                0x00000000       0x34 .\CortexM4\ARM_GCC_541\Release\cy_gpio.o
 .text.Cy_GPIO_GetAmuxSplit
                0x00000000       0x20 .\CortexM4\ARM_GCC_541\Release\cy_gpio.o
 .debug_info    0x00000000     0x1e82 .\CortexM4\ARM_GCC_541\Release\cy_gpio.o
 .debug_abbrev  0x00000000      0x287 .\CortexM4\ARM_GCC_541\Release\cy_gpio.o
 .debug_loc     0x00000000      0x7aa .\CortexM4\ARM_GCC_541\Release\cy_gpio.o
 .debug_aranges
                0x00000000       0x50 .\CortexM4\ARM_GCC_541\Release\cy_gpio.o
 .debug_ranges  0x00000000       0x40 .\CortexM4\ARM_GCC_541\Release\cy_gpio.o
 .debug_line    0x00000000      0x3c8 .\CortexM4\ARM_GCC_541\Release\cy_gpio.o
 .debug_str     0x00000000     0x3745 .\CortexM4\ARM_GCC_541\Release\cy_gpio.o
 .comment       0x00000000       0x6f .\CortexM4\ARM_GCC_541\Release\cy_gpio.o
 .debug_frame   0x00000000       0xf0 .\CortexM4\ARM_GCC_541\Release\cy_gpio.o
 .ARM.attributes
                0x00000000       0x37 .\CortexM4\ARM_GCC_541\Release\cy_gpio.o
 .text          0x00000000        0x0 .\CortexM4\ARM_GCC_541\Release\cy_ipc_drv.o
 .data          0x00000000        0x0 .\CortexM4\ARM_GCC_541\Release\cy_ipc_drv.o
 .bss           0x00000000        0x0 .\CortexM4\ARM_GCC_541\Release\cy_ipc_drv.o
 .text          0x00000000        0x0 .\CortexM4\ARM_GCC_541\Release\cy_ipc_sema.o
 .data          0x00000000        0x0 .\CortexM4\ARM_GCC_541\Release\cy_ipc_sema.o
 .text.Cy_IPC_Sema_Set
                0x00000000       0x80 .\CortexM4\ARM_GCC_541\Release\cy_ipc_sema.o
 .text.Cy_IPC_Sema_GetMaxSems
                0x00000000       0x10 .\CortexM4\ARM_GCC_541\Release\cy_ipc_sema.o
 .text          0x00000000        0x0 .\CortexM4\ARM_GCC_541\Release\cy_ipc_pipe.o
 .data          0x00000000        0x0 .\CortexM4\ARM_GCC_541\Release\cy_ipc_pipe.o
 .text.Cy_IPC_Pipe_RegisterCallbackRel
                0x00000000       0x14 .\CortexM4\ARM_GCC_541\Release\cy_ipc_pipe.o
 .text.Cy_IPC_Pipe_EndpointPause
                0x00000000       0x3c .\CortexM4\ARM_GCC_541\Release\cy_ipc_pipe.o
 .text.Cy_IPC_Pipe_EndpointResume
                0x00000000       0x30 .\CortexM4\ARM_GCC_541\Release\cy_ipc_pipe.o
 .text          0x00000000        0x0 .\CortexM4\ARM_GCC_541\Release\cy_lvd.o
 .data          0x00000000        0x0 .\CortexM4\ARM_GCC_541\Release\cy_lvd.o
 .bss           0x00000000        0x0 .\CortexM4\ARM_GCC_541\Release\cy_lvd.o
 .text.Cy_LVD_DeepSleepCallback
                0x00000000       0x30 .\CortexM4\ARM_GCC_541\Release\cy_lvd.o
 .debug_info    0x00000000      0xc45 .\CortexM4\ARM_GCC_541\Release\cy_lvd.o
 .debug_abbrev  0x00000000      0x16c .\CortexM4\ARM_GCC_541\Release\cy_lvd.o
 .debug_loc     0x00000000       0x7a .\CortexM4\ARM_GCC_541\Release\cy_lvd.o
 .debug_aranges
                0x00000000       0x20 .\CortexM4\ARM_GCC_541\Release\cy_lvd.o
 .debug_ranges  0x00000000       0x10 .\CortexM4\ARM_GCC_541\Release\cy_lvd.o
 .debug_line    0x00000000      0x2cd .\CortexM4\ARM_GCC_541\Release\cy_lvd.o
 .debug_str     0x00000000      0xd89 .\CortexM4\ARM_GCC_541\Release\cy_lvd.o
 .comment       0x00000000       0x6f .\CortexM4\ARM_GCC_541\Release\cy_lvd.o
 .debug_frame   0x00000000       0x20 .\CortexM4\ARM_GCC_541\Release\cy_lvd.o
 .ARM.attributes
                0x00000000       0x37 .\CortexM4\ARM_GCC_541\Release\cy_lvd.o
 .text          0x00000000        0x0 .\CortexM4\ARM_GCC_541\Release\cy_profile.o
 .data          0x00000000        0x0 .\CortexM4\ARM_GCC_541\Release\cy_profile.o
 .bss           0x00000000       0xe0 .\CortexM4\ARM_GCC_541\Release\cy_profile.o
 .text.Cy_Profile_IsPtrValid
                0x00000000       0x24 .\CortexM4\ARM_GCC_541\Release\cy_profile.o
 .text.Cy_Profile_ISR
                0x00000000       0x34 .\CortexM4\ARM_GCC_541\Release\cy_profile.o
 .text.Cy_Profile_StartProfiling
                0x00000000       0x20 .\CortexM4\ARM_GCC_541\Release\cy_profile.o
 .text.Cy_Profile_ClearConfiguration
                0x00000000       0x20 .\CortexM4\ARM_GCC_541\Release\cy_profile.o
 .text.Cy_Profile_ConfigureCounter
                0x00000000       0xd4 .\CortexM4\ARM_GCC_541\Release\cy_profile.o
 .text.Cy_Profile_FreeCounter
                0x00000000        0xe .\CortexM4\ARM_GCC_541\Release\cy_profile.o
 .text.Cy_Profile_EnableCounter
                0x00000000       0x2c .\CortexM4\ARM_GCC_541\Release\cy_profile.o
 .text.Cy_Profile_DisableCounter
                0x00000000       0x30 .\CortexM4\ARM_GCC_541\Release\cy_profile.o
 .text.Cy_Profile_GetRawCount
                0x00000000       0x22 .\CortexM4\ARM_GCC_541\Release\cy_profile.o
 .text.Cy_Profile_GetWeightedCount
                0x00000000       0x26 .\CortexM4\ARM_GCC_541\Release\cy_profile.o
 .text.Cy_Profile_GetSumWeightedCounts
                0x00000000       0x3a .\CortexM4\ARM_GCC_541\Release\cy_profile.o
 .debug_info    0x00000000      0x87b .\CortexM4\ARM_GCC_541\Release\cy_profile.o
 .debug_abbrev  0x00000000      0x2bd .\CortexM4\ARM_GCC_541\Release\cy_profile.o
 .debug_loc     0x00000000      0x3df .\CortexM4\ARM_GCC_541\Release\cy_profile.o
 .debug_aranges
                0x00000000       0x70 .\CortexM4\ARM_GCC_541\Release\cy_profile.o
 .debug_ranges  0x00000000       0x60 .\CortexM4\ARM_GCC_541\Release\cy_profile.o
 .debug_line    0x00000000      0x39e .\CortexM4\ARM_GCC_541\Release\cy_profile.o
 .debug_str     0x00000000      0x89b .\CortexM4\ARM_GCC_541\Release\cy_profile.o
 .comment       0x00000000       0x6f .\CortexM4\ARM_GCC_541\Release\cy_profile.o
 .debug_frame   0x00000000      0x140 .\CortexM4\ARM_GCC_541\Release\cy_profile.o
 .ARM.attributes
                0x00000000       0x37 .\CortexM4\ARM_GCC_541\Release\cy_profile.o
 .text          0x00000000        0x0 .\CortexM4\ARM_GCC_541\Release\cy_prot.o
 .data          0x00000000        0x0 .\CortexM4\ARM_GCC_541\Release\cy_prot.o
 .bss           0x00000000        0x0 .\CortexM4\ARM_GCC_541\Release\cy_prot.o
 .text.Prot_IsSmpuStructDisabled
                0x00000000       0x2c .\CortexM4\ARM_GCC_541\Release\cy_prot.o
 .text.Prot_IsPpuProgStructDisabled
                0x00000000       0x2c .\CortexM4\ARM_GCC_541\Release\cy_prot.o
 .text.Prot_ConfigPpuAtt
                0x00000000       0xa0 .\CortexM4\ARM_GCC_541\Release\cy_prot.o
 .text.Cy_Prot_ConfigBusMaster
                0x00000000       0x34 .\CortexM4\ARM_GCC_541\Release\cy_prot.o
 .text.Cy_Prot_SetActivePC
                0x00000000       0x34 .\CortexM4\ARM_GCC_541\Release\cy_prot.o
 .text.Cy_Prot_GetActivePC
                0x00000000       0x18 .\CortexM4\ARM_GCC_541\Release\cy_prot.o
 .text.Cy_Prot_ConfigMpuStruct
                0x00000000       0x54 .\CortexM4\ARM_GCC_541\Release\cy_prot.o
 .text.Cy_Prot_EnableMpuStruct
                0x00000000       0x18 .\CortexM4\ARM_GCC_541\Release\cy_prot.o
 .text.Cy_Prot_DisableMpuStruct
                0x00000000       0x18 .\CortexM4\ARM_GCC_541\Release\cy_prot.o
 .text.Cy_Prot_ConfigSmpuMasterStruct
                0x00000000       0x6c .\CortexM4\ARM_GCC_541\Release\cy_prot.o
 .text.Cy_Prot_ConfigSmpuSlaveStruct
                0x00000000       0x80 .\CortexM4\ARM_GCC_541\Release\cy_prot.o
 .text.Cy_Prot_EnableSmpuMasterStruct
                0x00000000       0x18 .\CortexM4\ARM_GCC_541\Release\cy_prot.o
 .text.Cy_Prot_DisableSmpuMasterStruct
                0x00000000       0x18 .\CortexM4\ARM_GCC_541\Release\cy_prot.o
 .text.Cy_Prot_EnableSmpuSlaveStruct
                0x00000000       0x18 .\CortexM4\ARM_GCC_541\Release\cy_prot.o
 .text.Cy_Prot_DisableSmpuSlaveStruct
                0x00000000       0x18 .\CortexM4\ARM_GCC_541\Release\cy_prot.o
 .text.Cy_Prot_GetSmpuStruct
                0x00000000       0x90 .\CortexM4\ARM_GCC_541\Release\cy_prot.o
 .text.Cy_Prot_ConfigPpuProgMasterAtt
                0x00000000       0x12 .\CortexM4\ARM_GCC_541\Release\cy_prot.o
 .text.Cy_Prot_ConfigPpuProgSlaveAddr
                0x00000000       0x50 .\CortexM4\ARM_GCC_541\Release\cy_prot.o
 .text.Cy_Prot_ConfigPpuProgSlaveAtt
                0x00000000       0x12 .\CortexM4\ARM_GCC_541\Release\cy_prot.o
 .text.Cy_Prot_EnablePpuProgSlaveRegion
                0x00000000       0x30 .\CortexM4\ARM_GCC_541\Release\cy_prot.o
 .text.Cy_Prot_DisablePpuProgSlaveRegion
                0x00000000       0x30 .\CortexM4\ARM_GCC_541\Release\cy_prot.o
 .text.Cy_Prot_ConfigPpuFixedMasterAtt
                0x00000000       0x12 .\CortexM4\ARM_GCC_541\Release\cy_prot.o
 .text.Cy_Prot_ConfigPpuFixedSlaveAtt
                0x00000000       0x12 .\CortexM4\ARM_GCC_541\Release\cy_prot.o
 .text.Cy_Prot_ConfigPpuProgMasterStruct
                0x00000000       0x84 .\CortexM4\ARM_GCC_541\Release\cy_prot.o
 .text.Cy_Prot_ConfigPpuProgSlaveStruct
                0x00000000       0xa0 .\CortexM4\ARM_GCC_541\Release\cy_prot.o
 .text.Cy_Prot_EnablePpuProgMasterStruct
                0x00000000       0x30 .\CortexM4\ARM_GCC_541\Release\cy_prot.o
 .text.Cy_Prot_DisablePpuProgMasterStruct
                0x00000000       0x30 .\CortexM4\ARM_GCC_541\Release\cy_prot.o
 .text.Cy_Prot_EnablePpuProgSlaveStruct
                0x00000000       0x30 .\CortexM4\ARM_GCC_541\Release\cy_prot.o
 .text.Cy_Prot_DisablePpuProgSlaveStruct
                0x00000000       0x30 .\CortexM4\ARM_GCC_541\Release\cy_prot.o
 .text.Cy_Prot_GetPpuProgStruct
                0x00000000       0xac .\CortexM4\ARM_GCC_541\Release\cy_prot.o
 .text.Cy_Prot_ConfigPpuFixedGrMasterStruct
                0x00000000       0x84 .\CortexM4\ARM_GCC_541\Release\cy_prot.o
 .text.Cy_Prot_ConfigPpuFixedGrSlaveStruct
                0x00000000       0x84 .\CortexM4\ARM_GCC_541\Release\cy_prot.o
 .text.Cy_Prot_EnablePpuFixedGrMasterStruct
                0x00000000       0x30 .\CortexM4\ARM_GCC_541\Release\cy_prot.o
 .text.Cy_Prot_DisablePpuFixedGrMasterStruct
                0x00000000       0x30 .\CortexM4\ARM_GCC_541\Release\cy_prot.o
 .text.Cy_Prot_EnablePpuFixedGrSlaveStruct
                0x00000000       0x30 .\CortexM4\ARM_GCC_541\Release\cy_prot.o
 .text.Cy_Prot_DisablePpuFixedGrSlaveStruct
                0x00000000       0x30 .\CortexM4\ARM_GCC_541\Release\cy_prot.o
 .text.Cy_Prot_ConfigPpuFixedSlMasterStruct
                0x00000000       0x84 .\CortexM4\ARM_GCC_541\Release\cy_prot.o
 .text.Cy_Prot_ConfigPpuFixedSlSlaveStruct
                0x00000000       0x84 .\CortexM4\ARM_GCC_541\Release\cy_prot.o
 .text.Cy_Prot_EnablePpuFixedSlMasterStruct
                0x00000000       0x30 .\CortexM4\ARM_GCC_541\Release\cy_prot.o
 .text.Cy_Prot_DisablePpuFixedSlMasterStruct
                0x00000000       0x30 .\CortexM4\ARM_GCC_541\Release\cy_prot.o
 .text.Cy_Prot_EnablePpuFixedSlSlaveStruct
                0x00000000       0x30 .\CortexM4\ARM_GCC_541\Release\cy_prot.o
 .text.Cy_Prot_DisablePpuFixedSlSlaveStruct
                0x00000000       0x30 .\CortexM4\ARM_GCC_541\Release\cy_prot.o
 .text.Cy_Prot_ConfigPpuFixedRgMasterStruct
                0x00000000       0x84 .\CortexM4\ARM_GCC_541\Release\cy_prot.o
 .text.Cy_Prot_ConfigPpuFixedRgSlaveStruct
                0x00000000       0x84 .\CortexM4\ARM_GCC_541\Release\cy_prot.o
 .text.Cy_Prot_EnablePpuFixedRgMasterStruct
                0x00000000       0x30 .\CortexM4\ARM_GCC_541\Release\cy_prot.o
 .text.Cy_Prot_DisablePpuFixedRgMasterStruct
                0x00000000       0x30 .\CortexM4\ARM_GCC_541\Release\cy_prot.o
 .text.Cy_Prot_EnablePpuFixedRgSlaveStruct
                0x00000000       0x30 .\CortexM4\ARM_GCC_541\Release\cy_prot.o
 .text.Cy_Prot_DisablePpuFixedRgSlaveStruct
                0x00000000       0x30 .\CortexM4\ARM_GCC_541\Release\cy_prot.o
 .debug_info    0x00000000     0x225b .\CortexM4\ARM_GCC_541\Release\cy_prot.o
 .debug_abbrev  0x00000000      0x298 .\CortexM4\ARM_GCC_541\Release\cy_prot.o
 .debug_loc     0x00000000     0x186b .\CortexM4\ARM_GCC_541\Release\cy_prot.o
 .debug_aranges
                0x00000000      0x198 .\CortexM4\ARM_GCC_541\Release\cy_prot.o
 .debug_ranges  0x00000000      0x1a0 .\CortexM4\ARM_GCC_541\Release\cy_prot.o
 .debug_line    0x00000000      0x7e2 .\CortexM4\ARM_GCC_541\Release\cy_prot.o
 .debug_str     0x00000000     0x16e3 .\CortexM4\ARM_GCC_541\Release\cy_prot.o
 .comment       0x00000000       0x6f .\CortexM4\ARM_GCC_541\Release\cy_prot.o
 .debug_frame   0x00000000      0x41c .\CortexM4\ARM_GCC_541\Release\cy_prot.o
 .ARM.attributes
                0x00000000       0x37 .\CortexM4\ARM_GCC_541\Release\cy_prot.o
 .text          0x00000000        0x0 .\CortexM4\ARM_GCC_541\Release\cy_scb_common.o
 .data          0x00000000        0x0 .\CortexM4\ARM_GCC_541\Release\cy_scb_common.o
 .bss           0x00000000        0x0 .\CortexM4\ARM_GCC_541\Release\cy_scb_common.o
 .text.Cy_SCB_ReadArrayBlocking
                0x00000000       0x2c .\CortexM4\ARM_GCC_541\Release\cy_scb_common.o
 .text.Cy_SCB_Write
                0x00000000       0x22 .\CortexM4\ARM_GCC_541\Release\cy_scb_common.o
 .text.Cy_SCB_WriteArrayBlocking
                0x00000000       0x2c .\CortexM4\ARM_GCC_541\Release\cy_scb_common.o
 .text.Cy_SCB_WriteDefaultArrayNoCheck
                0x00000000        0xc .\CortexM4\ARM_GCC_541\Release\cy_scb_common.o
 .text.Cy_SCB_WriteDefaultArray
                0x00000000       0x2e .\CortexM4\ARM_GCC_541\Release\cy_scb_common.o
 .text          0x00000000        0x0 .\CortexM4\ARM_GCC_541\Release\cy_scb_i2c.o
 .data          0x00000000        0x0 .\CortexM4\ARM_GCC_541\Release\cy_scb_i2c.o
 .bss           0x00000000        0x0 .\CortexM4\ARM_GCC_541\Release\cy_scb_i2c.o
 .text.Cy_SCB_ClearTxFifo
                0x00000000       0x1e .\CortexM4\ARM_GCC_541\Release\cy_scb_i2c.o
 .text.WaitOneUnit
                0x00000000       0x22 .\CortexM4\ARM_GCC_541\Release\cy_scb_i2c.o
 .text.HandleStatus
                0x00000000       0xd4 .\CortexM4\ARM_GCC_541\Release\cy_scb_i2c.o
 .text.Cy_SCB_I2C_Init
                0x00000000      0x114 .\CortexM4\ARM_GCC_541\Release\cy_scb_i2c.o
 .text.Cy_SCB_I2C_DeInit
                0x00000000       0x4c .\CortexM4\ARM_GCC_541\Release\cy_scb_i2c.o
 .text.Cy_SCB_I2C_Disable
                0x00000000       0x16 .\CortexM4\ARM_GCC_541\Release\cy_scb_i2c.o
 .text.Cy_SCB_I2C_DeepSleepCallback
                0x00000000       0xac .\CortexM4\ARM_GCC_541\Release\cy_scb_i2c.o
 .text.Cy_SCB_I2C_HibernateCallback
                0x00000000       0x50 .\CortexM4\ARM_GCC_541\Release\cy_scb_i2c.o
 .text.Cy_SCB_I2C_GetDataRate
                0x00000000       0x78 .\CortexM4\ARM_GCC_541\Release\cy_scb_i2c.o
 .text.Cy_SCB_I2C_SetDataRate
                0x00000000      0x164 .\CortexM4\ARM_GCC_541\Release\cy_scb_i2c.o
 .text.Cy_SCB_I2C_SlaveGetStatus
                0x00000000        0x4 .\CortexM4\ARM_GCC_541\Release\cy_scb_i2c.o
 .text.Cy_SCB_I2C_SlaveConfigReadBuf
                0x00000000        0xc .\CortexM4\ARM_GCC_541\Release\cy_scb_i2c.o
 .text.Cy_SCB_I2C_SlaveAbortRead
                0x00000000       0x2a .\CortexM4\ARM_GCC_541\Release\cy_scb_i2c.o
 .text.Cy_SCB_I2C_SlaveGetReadTransferCount
                0x00000000        0x4 .\CortexM4\ARM_GCC_541\Release\cy_scb_i2c.o
 .text.Cy_SCB_I2C_SlaveClearReadStatus
                0x00000000       0x10 .\CortexM4\ARM_GCC_541\Release\cy_scb_i2c.o
 .text.Cy_SCB_I2C_SlaveConfigWriteBuf
                0x00000000        0xa .\CortexM4\ARM_GCC_541\Release\cy_scb_i2c.o
 .text.Cy_SCB_I2C_SlaveAbortWrite
                0x00000000       0x2c .\CortexM4\ARM_GCC_541\Release\cy_scb_i2c.o
 .text.Cy_SCB_I2C_SlaveGetWriteTransferCount
                0x00000000        0x4 .\CortexM4\ARM_GCC_541\Release\cy_scb_i2c.o
 .text.Cy_SCB_I2C_SlaveClearWriteStatus
                0x00000000       0x10 .\CortexM4\ARM_GCC_541\Release\cy_scb_i2c.o
 .text.Cy_SCB_I2C_MasterGetStatus
                0x00000000        0x4 .\CortexM4\ARM_GCC_541\Release\cy_scb_i2c.o
 .text.Cy_SCB_I2C_MasterRead
                0x00000000       0xd8 .\CortexM4\ARM_GCC_541\Release\cy_scb_i2c.o
 .text.Cy_SCB_I2C_MasterAbortRead
                0x00000000       0x78 .\CortexM4\ARM_GCC_541\Release\cy_scb_i2c.o
 .text.Cy_SCB_I2C_MasterWrite
                0x00000000       0xd4 .\CortexM4\ARM_GCC_541\Release\cy_scb_i2c.o
 .text.Cy_SCB_I2C_MasterAbortWrite
                0x00000000       0x7c .\CortexM4\ARM_GCC_541\Release\cy_scb_i2c.o
 .text.Cy_SCB_I2C_MasterGetTransferCount
                0x00000000        0x4 .\CortexM4\ARM_GCC_541\Release\cy_scb_i2c.o
 .text.Cy_SCB_I2C_MasterSendStart
                0x00000000       0x94 .\CortexM4\ARM_GCC_541\Release\cy_scb_i2c.o
 .text.Cy_SCB_I2C_MasterSendReStart
                0x00000000       0x8c .\CortexM4\ARM_GCC_541\Release\cy_scb_i2c.o
 .text.Cy_SCB_I2C_MasterSendStop
                0x00000000       0x48 .\CortexM4\ARM_GCC_541\Release\cy_scb_i2c.o
 .text.Cy_SCB_I2C_MasterReadByte
                0x00000000       0x7c .\CortexM4\ARM_GCC_541\Release\cy_scb_i2c.o
 .text.Cy_SCB_I2C_MasterWriteByte
                0x00000000       0x48 .\CortexM4\ARM_GCC_541\Release\cy_scb_i2c.o
 .text.Cy_SCB_I2C_SlaveInterrupt
                0x00000000      0x3f8 .\CortexM4\ARM_GCC_541\Release\cy_scb_i2c.o
 .text.Cy_SCB_I2C_MasterInterrupt
                0x00000000      0x318 .\CortexM4\ARM_GCC_541\Release\cy_scb_i2c.o
 .text.Cy_SCB_I2C_Interrupt
                0x00000000        0xe .\CortexM4\ARM_GCC_541\Release\cy_scb_i2c.o
 .debug_info    0x00000000     0x3a8f .\CortexM4\ARM_GCC_541\Release\cy_scb_i2c.o
 .debug_abbrev  0x00000000      0x3e4 .\CortexM4\ARM_GCC_541\Release\cy_scb_i2c.o
 .debug_loc     0x00000000     0x2c46 .\CortexM4\ARM_GCC_541\Release\cy_scb_i2c.o
 .debug_aranges
                0x00000000      0x120 .\CortexM4\ARM_GCC_541\Release\cy_scb_i2c.o
 .debug_ranges  0x00000000      0x290 .\CortexM4\ARM_GCC_541\Release\cy_scb_i2c.o
 .debug_line    0x00000000      0xed7 .\CortexM4\ARM_GCC_541\Release\cy_scb_i2c.o
 .debug_str     0x00000000     0x1afd .\CortexM4\ARM_GCC_541\Release\cy_scb_i2c.o
 .comment       0x00000000       0x6f .\CortexM4\ARM_GCC_541\Release\cy_scb_i2c.o
 .debug_frame   0x00000000      0x3ac .\CortexM4\ARM_GCC_541\Release\cy_scb_i2c.o
 .ARM.attributes
                0x00000000       0x37 .\CortexM4\ARM_GCC_541\Release\cy_scb_i2c.o
 .text          0x00000000        0x0 .\CortexM4\ARM_GCC_541\Release\cy_scb_ezi2c.o
 .data          0x00000000        0x0 .\CortexM4\ARM_GCC_541\Release\cy_scb_ezi2c.o
 .bss           0x00000000        0x0 .\CortexM4\ARM_GCC_541\Release\cy_scb_ezi2c.o
 .text.UpdateRxFifoLevel
                0x00000000       0x3a .\CortexM4\ARM_GCC_541\Release\cy_scb_ezi2c.o
 .text.UpdateAddressMask
                0x00000000       0x24 .\CortexM4\ARM_GCC_541\Release\cy_scb_ezi2c.o
 .text.Cy_SCB_EZI2C_DeInit
                0x00000000       0x44 .\CortexM4\ARM_GCC_541\Release\cy_scb_ezi2c.o
 .text.Cy_SCB_EZI2C_Disable
                0x00000000       0x10 .\CortexM4\ARM_GCC_541\Release\cy_scb_ezi2c.o
 .text.Cy_SCB_EZI2C_DeepSleepCallback
                0x00000000       0xbc .\CortexM4\ARM_GCC_541\Release\cy_scb_ezi2c.o
 .text.Cy_SCB_EZI2C_HibernateCallback
                0x00000000       0x54 .\CortexM4\ARM_GCC_541\Release\cy_scb_ezi2c.o
 .text.Cy_SCB_EZI2C_GetActivity
                0x00000000       0x1a .\CortexM4\ARM_GCC_541\Release\cy_scb_ezi2c.o
 .text.Cy_SCB_EZI2C_SetAddress1
                0x00000000       0x1e .\CortexM4\ARM_GCC_541\Release\cy_scb_ezi2c.o
 .text.Cy_SCB_EZI2C_Init
                0x00000000       0xb0 .\CortexM4\ARM_GCC_541\Release\cy_scb_ezi2c.o
 .text.Cy_SCB_EZI2C_GetAddress1
                0x00000000        0x4 .\CortexM4\ARM_GCC_541\Release\cy_scb_ezi2c.o
 .text.Cy_SCB_EZI2C_SetBuffer1
                0x00000000        0xa .\CortexM4\ARM_GCC_541\Release\cy_scb_ezi2c.o
 .text.Cy_SCB_EZI2C_SetAddress2
                0x00000000        0x8 .\CortexM4\ARM_GCC_541\Release\cy_scb_ezi2c.o
 .text.Cy_SCB_EZI2C_GetAddress2
                0x00000000        0x4 .\CortexM4\ARM_GCC_541\Release\cy_scb_ezi2c.o
 .text.Cy_SCB_EZI2C_SetBuffer2
                0x00000000        0xa .\CortexM4\ARM_GCC_541\Release\cy_scb_ezi2c.o
 .text.Cy_SCB_EZI2C_Interrupt
                0x00000000      0x33a .\CortexM4\ARM_GCC_541\Release\cy_scb_ezi2c.o
 .debug_info    0x00000000     0x1efb .\CortexM4\ARM_GCC_541\Release\cy_scb_ezi2c.o
 .debug_abbrev  0x00000000      0x3d0 .\CortexM4\ARM_GCC_541\Release\cy_scb_ezi2c.o
 .debug_loc     0x00000000      0xe8f .\CortexM4\ARM_GCC_541\Release\cy_scb_ezi2c.o
 .debug_aranges
                0x00000000       0x90 .\CortexM4\ARM_GCC_541\Release\cy_scb_ezi2c.o
 .debug_ranges  0x00000000      0x128 .\CortexM4\ARM_GCC_541\Release\cy_scb_ezi2c.o
 .debug_line    0x00000000      0x70c .\CortexM4\ARM_GCC_541\Release\cy_scb_ezi2c.o
 .debug_str     0x00000000     0x1443 .\CortexM4\ARM_GCC_541\Release\cy_scb_ezi2c.o
 .comment       0x00000000       0x6f .\CortexM4\ARM_GCC_541\Release\cy_scb_ezi2c.o
 .debug_frame   0x00000000      0x148 .\CortexM4\ARM_GCC_541\Release\cy_scb_ezi2c.o
 .ARM.attributes
                0x00000000       0x37 .\CortexM4\ARM_GCC_541\Release\cy_scb_ezi2c.o
 .text          0x00000000        0x0 .\CortexM4\ARM_GCC_541\Release\cy_scb_spi.o
 .data          0x00000000        0x0 .\CortexM4\ARM_GCC_541\Release\cy_scb_spi.o
 .bss           0x00000000        0x0 .\CortexM4\ARM_GCC_541\Release\cy_scb_spi.o
 .text.Cy_SCB_SPI_Init
                0x00000000      0x16c .\CortexM4\ARM_GCC_541\Release\cy_scb_spi.o
 .text.Cy_SCB_SPI_DeInit
                0x00000000       0x40 .\CortexM4\ARM_GCC_541\Release\cy_scb_spi.o
 .text.Cy_SCB_SPI_Disable
                0x00000000       0x24 .\CortexM4\ARM_GCC_541\Release\cy_scb_spi.o
 .text.Cy_SCB_SPI_DeepSleepCallback
                0x00000000       0xb8 .\CortexM4\ARM_GCC_541\Release\cy_scb_spi.o
 .text.Cy_SCB_SPI_HibernateCallback
                0x00000000       0x60 .\CortexM4\ARM_GCC_541\Release\cy_scb_spi.o
 .text.Cy_SCB_SPI_Transfer
                0x00000000       0xac .\CortexM4\ARM_GCC_541\Release\cy_scb_spi.o
 .text.Cy_SCB_SPI_AbortTransfer
                0x00000000       0x5a .\CortexM4\ARM_GCC_541\Release\cy_scb_spi.o
 .text.Cy_SCB_SPI_GetNumTransfered
                0x00000000        0x4 .\CortexM4\ARM_GCC_541\Release\cy_scb_spi.o
 .text.Cy_SCB_SPI_GetTransferStatus
                0x00000000        0x4 .\CortexM4\ARM_GCC_541\Release\cy_scb_spi.o
 .text.Cy_SCB_SPI_Interrupt
                0x00000000      0x1c8 .\CortexM4\ARM_GCC_541\Release\cy_scb_spi.o
 .debug_info    0x00000000     0x2042 .\CortexM4\ARM_GCC_541\Release\cy_scb_spi.o
 .debug_abbrev  0x00000000      0x375 .\CortexM4\ARM_GCC_541\Release\cy_scb_spi.o
 .debug_loc     0x00000000      0xcc5 .\CortexM4\ARM_GCC_541\Release\cy_scb_spi.o
 .debug_aranges
                0x00000000       0x68 .\CortexM4\ARM_GCC_541\Release\cy_scb_spi.o
 .debug_ranges  0x00000000      0x158 .\CortexM4\ARM_GCC_541\Release\cy_scb_spi.o
 .debug_line    0x00000000      0x6de .\CortexM4\ARM_GCC_541\Release\cy_scb_spi.o
 .debug_str     0x00000000     0x14f8 .\CortexM4\ARM_GCC_541\Release\cy_scb_spi.o
 .comment       0x00000000       0x6f .\CortexM4\ARM_GCC_541\Release\cy_scb_spi.o
 .debug_frame   0x00000000      0x124 .\CortexM4\ARM_GCC_541\Release\cy_scb_spi.o
 .ARM.attributes
                0x00000000       0x37 .\CortexM4\ARM_GCC_541\Release\cy_scb_spi.o
 .text          0x00000000        0x0 .\CortexM4\ARM_GCC_541\Release\cy_scb_uart.o
 .data          0x00000000        0x0 .\CortexM4\ARM_GCC_541\Release\cy_scb_uart.o
 .bss           0x00000000        0x0 .\CortexM4\ARM_GCC_541\Release\cy_scb_uart.o
 .text.Cy_SCB_UART_DeInit
                0x00000000       0x48 .\CortexM4\ARM_GCC_541\Release\cy_scb_uart.o
 .text.Cy_SCB_UART_Disable
                0x00000000       0x16 .\CortexM4\ARM_GCC_541\Release\cy_scb_uart.o
 .text.Cy_SCB_UART_DeepSleepCallback
                0x00000000       0x58 .\CortexM4\ARM_GCC_541\Release\cy_scb_uart.o
 .text.Cy_SCB_UART_HibernateCallback
                0x00000000        0x4 .\CortexM4\ARM_GCC_541\Release\cy_scb_uart.o
 .text.Cy_SCB_UART_StartRingBuffer
                0x00000000       0x44 .\CortexM4\ARM_GCC_541\Release\cy_scb_uart.o
 .text.Cy_SCB_UART_StopRingBuffer
                0x00000000       0x10 .\CortexM4\ARM_GCC_541\Release\cy_scb_uart.o
 .text.Cy_SCB_UART_ClearRingBuffer
                0x00000000        0x6 .\CortexM4\ARM_GCC_541\Release\cy_scb_uart.o
 .text.Cy_SCB_UART_Receive
                0x00000000       0xec .\CortexM4\ARM_GCC_541\Release\cy_scb_uart.o
 .text.Cy_SCB_UART_AbortReceive
                0x00000000       0x12 .\CortexM4\ARM_GCC_541\Release\cy_scb_uart.o
 .text.Cy_SCB_UART_GetNumReceived
                0x00000000        0x4 .\CortexM4\ARM_GCC_541\Release\cy_scb_uart.o
 .text.Cy_SCB_UART_GetReceiveStatus
                0x00000000        0x4 .\CortexM4\ARM_GCC_541\Release\cy_scb_uart.o
 .text.Cy_SCB_UART_Transmit
                0x00000000       0x50 .\CortexM4\ARM_GCC_541\Release\cy_scb_uart.o
 .text.Cy_SCB_UART_AbortTransmit
                0x00000000       0x2a .\CortexM4\ARM_GCC_541\Release\cy_scb_uart.o
 .text.Cy_SCB_UART_GetNumLeftToTransmit
                0x00000000        0x4 .\CortexM4\ARM_GCC_541\Release\cy_scb_uart.o
 .text.Cy_SCB_UART_GetTransmitStatus
                0x00000000        0x4 .\CortexM4\ARM_GCC_541\Release\cy_scb_uart.o
 .text.Cy_SCB_UART_SendBreakBlocking
                0x00000000       0x52 .\CortexM4\ARM_GCC_541\Release\cy_scb_uart.o
 .text          0x00000000        0x0 .\CortexM4\ARM_GCC_541\Release\cy_sysanalog.o
 .data          0x00000000        0x0 .\CortexM4\ARM_GCC_541\Release\cy_sysanalog.o
 .bss           0x00000000        0x0 .\CortexM4\ARM_GCC_541\Release\cy_sysanalog.o
 .text.Cy_SysAnalog_Init
                0x00000000       0x30 .\CortexM4\ARM_GCC_541\Release\cy_sysanalog.o
 .rodata        0x00000000       0x30 .\CortexM4\ARM_GCC_541\Release\cy_sysanalog.o
 .debug_info    0x00000000      0x7fc .\CortexM4\ARM_GCC_541\Release\cy_sysanalog.o
 .debug_abbrev  0x00000000      0x167 .\CortexM4\ARM_GCC_541\Release\cy_sysanalog.o
 .debug_loc     0x00000000       0x84 .\CortexM4\ARM_GCC_541\Release\cy_sysanalog.o
 .debug_aranges
                0x00000000       0x20 .\CortexM4\ARM_GCC_541\Release\cy_sysanalog.o
 .debug_ranges  0x00000000       0x10 .\CortexM4\ARM_GCC_541\Release\cy_sysanalog.o
 .debug_line    0x00000000      0x251 .\CortexM4\ARM_GCC_541\Release\cy_sysanalog.o
 .debug_str     0x00000000      0xb42 .\CortexM4\ARM_GCC_541\Release\cy_sysanalog.o
 .comment       0x00000000       0x6f .\CortexM4\ARM_GCC_541\Release\cy_sysanalog.o
 .debug_frame   0x00000000       0x20 .\CortexM4\ARM_GCC_541\Release\cy_sysanalog.o
 .ARM.attributes
                0x00000000       0x37 .\CortexM4\ARM_GCC_541\Release\cy_sysanalog.o
 .text          0x00000000        0x0 .\CortexM4\ARM_GCC_541\Release\cy_sysclk.o
 .data          0x00000000        0x0 .\CortexM4\ARM_GCC_541\Release\cy_sysclk.o
 .bss           0x00000000        0xa .\CortexM4\ARM_GCC_541\Release\cy_sysclk.o
 .text.Cy_SysClk_EcoConfigure
                0x00000000      0x210 .\CortexM4\ARM_GCC_541\Release\cy_sysclk.o
 .text.Cy_SysClk_EcoEnable
                0x00000000       0x50 .\CortexM4\ARM_GCC_541\Release\cy_sysclk.o
 .text.Cy_SysClk_ClkPathSetSource
                0x00000000       0x54 .\CortexM4\ARM_GCC_541\Release\cy_sysclk.o
 .text.Cy_SysClk_ClkPathGetSource
                0x00000000       0x24 .\CortexM4\ARM_GCC_541\Release\cy_sysclk.o
 .text.Cy_SysClk_FllManualConfigure
                0x00000000       0xa8 .\CortexM4\ARM_GCC_541\Release\cy_sysclk.o
 .text.Cy_SysClk_FllConfigure
                0x00000000      0x334 .\CortexM4\ARM_GCC_541\Release\cy_sysclk.o
 .text.Cy_SysClk_FllGetConfiguration
                0x00000000       0x50 .\CortexM4\ARM_GCC_541\Release\cy_sysclk.o
 .text.Cy_SysClk_FllEnable
                0x00000000       0xc4 .\CortexM4\ARM_GCC_541\Release\cy_sysclk.o
 .text.Cy_SysClk_PllManualConfigure
                0x00000000       0xa0 .\CortexM4\ARM_GCC_541\Release\cy_sysclk.o
 .text.Cy_SysClk_PllConfigure
                0x00000000      0x18c .\CortexM4\ARM_GCC_541\Release\cy_sysclk.o
 .text.Cy_SysClk_PllGetConfiguration
                0x00000000       0x4c .\CortexM4\ARM_GCC_541\Release\cy_sysclk.o
 .text.Cy_SysClk_PllEnable
                0x00000000       0x5c .\CortexM4\ARM_GCC_541\Release\cy_sysclk.o
 .text.Cy_SysClk_StartClkMeasurementCounters
                0x00000000      0x140 .\CortexM4\ARM_GCC_541\Release\cy_sysclk.o
 .text.Cy_SysClk_ClkMeasurementCountersGetFreq
                0x00000000       0x90 .\CortexM4\ARM_GCC_541\Release\cy_sysclk.o
 .text.Cy_SysClk_IloTrim
                0x00000000       0x60 .\CortexM4\ARM_GCC_541\Release\cy_sysclk.o
 .text.Cy_SysClk_PiloTrim
                0x00000000       0x70 .\CortexM4\ARM_GCC_541\Release\cy_sysclk.o
 .text.Cy_SysClk_DeepSleepCallback
                0x00000000      0x180 .\CortexM4\ARM_GCC_541\Release\cy_sysclk.o
 .text.Cy_SysClk_PeriphGetFrequency
                0x00000000      0x184 .\CortexM4\ARM_GCC_541\Release\cy_sysclk.o
 .rodata        0x00000000       0x58 .\CortexM4\ARM_GCC_541\Release\cy_sysclk.o
 .debug_info    0x00000000     0x1fd3 .\CortexM4\ARM_GCC_541\Release\cy_sysclk.o
 .debug_abbrev  0x00000000      0x3e8 .\CortexM4\ARM_GCC_541\Release\cy_sysclk.o
 .debug_loc     0x00000000     0x1702 .\CortexM4\ARM_GCC_541\Release\cy_sysclk.o
 .debug_aranges
                0x00000000       0xa8 .\CortexM4\ARM_GCC_541\Release\cy_sysclk.o
 .debug_ranges  0x00000000      0x260 .\CortexM4\ARM_GCC_541\Release\cy_sysclk.o
 .debug_line    0x00000000      0xa32 .\CortexM4\ARM_GCC_541\Release\cy_sysclk.o
 .debug_str     0x00000000     0x1ec0 .\CortexM4\ARM_GCC_541\Release\cy_sysclk.o
 .comment       0x00000000       0x6f .\CortexM4\ARM_GCC_541\Release\cy_sysclk.o
 .debug_frame   0x00000000      0x2a0 .\CortexM4\ARM_GCC_541\Release\cy_sysclk.o
 .ARM.attributes
                0x00000000       0x37 .\CortexM4\ARM_GCC_541\Release\cy_sysclk.o
 .text          0x00000000        0x0 .\CortexM4\ARM_GCC_541\Release\cy_sysint.o
 .data          0x00000000        0x0 .\CortexM4\ARM_GCC_541\Release\cy_sysint.o
 .bss           0x00000000        0x0 .\CortexM4\ARM_GCC_541\Release\cy_sysint.o
 .text.Cy_SysInt_GetVector
                0x00000000       0x20 .\CortexM4\ARM_GCC_541\Release\cy_sysint.o
 .text          0x00000000        0x0 .\CortexM4\ARM_GCC_541\Release\cy_syslib.o
 .data          0x00000000        0x0 .\CortexM4\ARM_GCC_541\Release\cy_syslib.o
 .bss           0x00000000        0x0 .\CortexM4\ARM_GCC_541\Release\cy_syslib.o
 .text.Cy_SysLib_Halt
                0x00000000        0x4 .\CortexM4\ARM_GCC_541\Release\cy_syslib.o
 .text.Cy_SysLib_ClearFlashCacheAndBuffer
                0x00000000       0x10 .\CortexM4\ARM_GCC_541\Release\cy_syslib.o
 .text.Cy_SysLib_ResetBackupDomain
                0x00000000       0x1c .\CortexM4\ARM_GCC_541\Release\cy_syslib.o
 .text.Cy_SysLib_GetResetReason
                0x00000000       0x18 .\CortexM4\ARM_GCC_541\Release\cy_syslib.o
 .text.Cy_SysLib_ClearResetReason
                0x00000000       0x24 .\CortexM4\ARM_GCC_541\Release\cy_syslib.o
 .text.Cy_SysLib_GetUniqueId
                0x00000000       0x56 .\CortexM4\ARM_GCC_541\Release\cy_syslib.o
 .text.Cy_SysLib_SetWaitStates
                0x00000000       0xa8 .\CortexM4\ARM_GCC_541\Release\cy_syslib.o
 .data          0x00000000        0x0 .\CortexM4\ARM_GCC_541\Release\cy_syslib_gcc.o
 .bss           0x00000000        0x0 .\CortexM4\ARM_GCC_541\Release\cy_syslib_gcc.o
 .text          0x00000000        0x0 .\CortexM4\ARM_GCC_541\Release\cy_syspm.o
 .data          0x00000000        0x0 .\CortexM4\ARM_GCC_541\Release\cy_syspm.o
 .text.Cy_SysLib_GetDevice
                0x00000000       0x16 .\CortexM4\ARM_GCC_541\Release\cy_syspm.o
 .text.Cy_SysPm_LdoGetVoltage
                0x00000000       0x20 .\CortexM4\ARM_GCC_541\Release\cy_syspm.o
 .text.Cy_SysPm_LdoIsEnabled
                0x00000000       0x14 .\CortexM4\ARM_GCC_541\Release\cy_syspm.o
 .text.SetReadMarginTrimUlp
                0x00000000       0x68 .\CortexM4\ARM_GCC_541\Release\cy_syspm.o
 .text.SetReadMarginTrimLp
                0x00000000       0x60 .\CortexM4\ARM_GCC_541\Release\cy_syspm.o
 .text.SetWriteAssistTrimUlp
                0x00000000       0x44 .\CortexM4\ARM_GCC_541\Release\cy_syspm.o
 .text.SetWriteAssistTrimLp
                0x00000000       0x4c .\CortexM4\ARM_GCC_541\Release\cy_syspm.o
 .text.IsVoltageChangePossible.part.4
                0x00000000       0x1c .\CortexM4\ARM_GCC_541\Release\cy_syspm.o
 .text.Cy_SysPm_ReadStatus
                0x00000000       0x78 .\CortexM4\ARM_GCC_541\Release\cy_syspm.o
 .text.Cy_SysPm_SystemSetMinRegulatorCurrent
                0x00000000       0x44 .\CortexM4\ARM_GCC_541\Release\cy_syspm.o
 .text.Cy_SysPm_SystemSetNormalRegulatorCurrent
                0x00000000       0x54 .\CortexM4\ARM_GCC_541\Release\cy_syspm.o
 .text.Cy_SysPm_CpuSleepOnExit
                0x00000000       0x18 .\CortexM4\ARM_GCC_541\Release\cy_syspm.o
 .text.Cy_SysPm_SetHibernateWakeupSource
                0x00000000       0x40 .\CortexM4\ARM_GCC_541\Release\cy_syspm.o
 .text.Cy_SysPm_ClearHibernateWakeupSource
                0x00000000       0x54 .\CortexM4\ARM_GCC_541\Release\cy_syspm.o
 .text.Cy_SysPm_BuckIsOutputEnabled
                0x00000000       0x38 .\CortexM4\ARM_GCC_541\Release\cy_syspm.o
 .text.Cy_SysPm_BuckEnableVoltage2
                0x00000000       0x34 .\CortexM4\ARM_GCC_541\Release\cy_syspm.o
 .text.Cy_SysPm_BuckSetVoltage2
                0x00000000       0x40 .\CortexM4\ARM_GCC_541\Release\cy_syspm.o
 .text.Cy_SysPm_LdoSetMode
                0x00000000       0x2c .\CortexM4\ARM_GCC_541\Release\cy_syspm.o
 .text.Cy_SysPm_LdoGetMode
                0x00000000       0x34 .\CortexM4\ARM_GCC_541\Release\cy_syspm.o
 .text.Cy_SysPm_RegisterCallback
                0x00000000       0x48 .\CortexM4\ARM_GCC_541\Release\cy_syspm.o
 .text.Cy_SysPm_UnregisterCallback
                0x00000000       0x44 .\CortexM4\ARM_GCC_541\Release\cy_syspm.o
 .text.Cy_SysPm_ExecuteCallback
                0x00000000       0x84 .\CortexM4\ARM_GCC_541\Release\cy_syspm.o
 .text.Cy_SysPm_CpuEnterSleep
                0x00000000       0x78 .\CortexM4\ARM_GCC_541\Release\cy_syspm.o
 .text.Cy_SysPm_SystemEnterHibernate
                0x00000000       0x78 .\CortexM4\ARM_GCC_541\Release\cy_syspm.o
 .text.Cy_SysPm_IoUnfreeze
                0x00000000       0x2c .\CortexM4\ARM_GCC_541\Release\cy_syspm.o
 .text.Cy_SysPm_WriteVoltageBitForFlash
                0x00000000       0xc0 .\CortexM4\ARM_GCC_541\Release\cy_syspm.o
 .text.Cy_SysPm_BuckSetVoltage1
                0x00000000       0x90 .\CortexM4\ARM_GCC_541\Release\cy_syspm.o
 .text.Cy_SysPm_LdoSetVoltage
                0x00000000       0xb8 .\CortexM4\ARM_GCC_541\Release\cy_syspm.o
 .text.Cy_SysPm_SystemEnterLp
                0x00000000       0x84 .\CortexM4\ARM_GCC_541\Release\cy_syspm.o
 .text.Cy_SysPm_SystemEnterUlp
                0x00000000       0x84 .\CortexM4\ARM_GCC_541\Release\cy_syspm.o
 .text.Cy_SysPm_BuckEnable
                0x00000000       0xd8 .\CortexM4\ARM_GCC_541\Release\cy_syspm.o
 .text.Cy_SysPm_SaveRegisters
                0x00000000       0x4c .\CortexM4\ARM_GCC_541\Release\cy_syspm.o
 .text.Cy_SysPm_RestoreRegisters
                0x00000000       0x4c .\CortexM4\ARM_GCC_541\Release\cy_syspm.o
 .text.Cy_SysPm_CpuEnterDeepSleep
                0x00000000       0xe8 .\CortexM4\ARM_GCC_541\Release\cy_syspm.o
 .text          0x00000000        0x0 .\CortexM4\ARM_GCC_541\Release\cy_systick.o
 .data          0x00000000        0x0 .\CortexM4\ARM_GCC_541\Release\cy_systick.o
 .bss           0x00000000       0x14 .\CortexM4\ARM_GCC_541\Release\cy_systick.o
 .text.Cy_SysTick_ServiceCallbacks
                0x00000000       0x28 .\CortexM4\ARM_GCC_541\Release\cy_systick.o
 .text.Cy_SysTick_Enable
                0x00000000       0x18 .\CortexM4\ARM_GCC_541\Release\cy_systick.o
 .text.Cy_SysTick_Disable
                0x00000000       0x18 .\CortexM4\ARM_GCC_541\Release\cy_systick.o
 .text.Cy_SysTick_SetClockSource
                0x00000000       0x34 .\CortexM4\ARM_GCC_541\Release\cy_systick.o
 .text.Cy_SysTick_Init
                0x00000000       0x40 .\CortexM4\ARM_GCC_541\Release\cy_systick.o
 .text.Cy_SysTick_GetClockSource
                0x00000000       0x28 .\CortexM4\ARM_GCC_541\Release\cy_systick.o
 .text.Cy_SysTick_SetCallback
                0x00000000       0x18 .\CortexM4\ARM_GCC_541\Release\cy_systick.o
 .text.Cy_SysTick_GetCallback
                0x00000000       0x14 .\CortexM4\ARM_GCC_541\Release\cy_systick.o
 .debug_info    0x00000000      0x85b .\CortexM4\ARM_GCC_541\Release\cy_systick.o
 .debug_abbrev  0x00000000      0x25f .\CortexM4\ARM_GCC_541\Release\cy_systick.o
 .debug_loc     0x00000000      0x145 .\CortexM4\ARM_GCC_541\Release\cy_systick.o
 .debug_aranges
                0x00000000       0x58 .\CortexM4\ARM_GCC_541\Release\cy_systick.o
 .debug_ranges  0x00000000       0x60 .\CortexM4\ARM_GCC_541\Release\cy_systick.o
 .debug_line    0x00000000      0x2fe .\CortexM4\ARM_GCC_541\Release\cy_systick.o
 .debug_str     0x00000000      0xa65 .\CortexM4\ARM_GCC_541\Release\cy_systick.o
 .comment       0x00000000       0x6f .\CortexM4\ARM_GCC_541\Release\cy_systick.o
 .debug_frame   0x00000000       0xbc .\CortexM4\ARM_GCC_541\Release\cy_systick.o
 .ARM.attributes
                0x00000000       0x37 .\CortexM4\ARM_GCC_541\Release\cy_systick.o
 .text          0x00000000        0x0 .\CortexM4\ARM_GCC_541\Release\cy_trigmux.o
 .data          0x00000000        0x0 .\CortexM4\ARM_GCC_541\Release\cy_trigmux.o
 .bss           0x00000000        0x0 .\CortexM4\ARM_GCC_541\Release\cy_trigmux.o
 .text.Cy_TrigMux_Connect
                0x00000000       0x84 .\CortexM4\ARM_GCC_541\Release\cy_trigmux.o
 .text.Cy_TrigMux_Select
                0x00000000       0x70 .\CortexM4\ARM_GCC_541\Release\cy_trigmux.o
 .text.Cy_TrigMux_Deselect
                0x00000000       0x58 .\CortexM4\ARM_GCC_541\Release\cy_trigmux.o
 .text.Cy_TrigMux_SetDebugFreeze
                0x00000000       0x84 .\CortexM4\ARM_GCC_541\Release\cy_trigmux.o
 .text.Cy_TrigMux_SwTrigger
                0x00000000       0x74 .\CortexM4\ARM_GCC_541\Release\cy_trigmux.o
 .debug_info    0x00000000      0x7fe .\CortexM4\ARM_GCC_541\Release\cy_trigmux.o
 .debug_abbrev  0x00000000      0x15a .\CortexM4\ARM_GCC_541\Release\cy_trigmux.o
 .debug_loc     0x00000000      0x4db .\CortexM4\ARM_GCC_541\Release\cy_trigmux.o
 .debug_aranges
                0x00000000       0x40 .\CortexM4\ARM_GCC_541\Release\cy_trigmux.o
 .debug_ranges  0x00000000       0x48 .\CortexM4\ARM_GCC_541\Release\cy_trigmux.o
 .debug_line    0x00000000      0x33a .\CortexM4\ARM_GCC_541\Release\cy_trigmux.o
 .debug_str     0x00000000      0x969 .\CortexM4\ARM_GCC_541\Release\cy_trigmux.o
 .comment       0x00000000       0x6f .\CortexM4\ARM_GCC_541\Release\cy_trigmux.o
 .debug_frame   0x00000000       0xc0 .\CortexM4\ARM_GCC_541\Release\cy_trigmux.o
 .ARM.attributes
                0x00000000       0x37 .\CortexM4\ARM_GCC_541\Release\cy_trigmux.o
 .text          0x00000000        0x0 .\CortexM4\ARM_GCC_541\Release\cy_wdt.o
 .data          0x00000000        0x0 .\CortexM4\ARM_GCC_541\Release\cy_wdt.o
 .bss           0x00000000        0x0 .\CortexM4\ARM_GCC_541\Release\cy_wdt.o
 .text.Cy_WDT_Lock
                0x00000000       0x14 .\CortexM4\ARM_GCC_541\Release\cy_wdt.o
 .text.Cy_WDT_Unlock
                0x00000000       0x24 .\CortexM4\ARM_GCC_541\Release\cy_wdt.o
 .text.Cy_WDT_SetMatch
                0x00000000       0x20 .\CortexM4\ARM_GCC_541\Release\cy_wdt.o
 .text.Cy_WDT_SetIgnoreBits
                0x00000000       0x24 .\CortexM4\ARM_GCC_541\Release\cy_wdt.o
 .text.Cy_WDT_ClearInterrupt
                0x00000000       0x14 .\CortexM4\ARM_GCC_541\Release\cy_wdt.o
 .text.Cy_WDT_Init
                0x00000000       0x48 .\CortexM4\ARM_GCC_541\Release\cy_wdt.o
 .text.Cy_WDT_ClearWatchdog
                0x00000000        0x4 .\CortexM4\ARM_GCC_541\Release\cy_wdt.o
 .debug_info    0x00000000      0x82d .\CortexM4\ARM_GCC_541\Release\cy_wdt.o
 .debug_abbrev  0x00000000      0x182 .\CortexM4\ARM_GCC_541\Release\cy_wdt.o
 .debug_loc     0x00000000       0x84 .\CortexM4\ARM_GCC_541\Release\cy_wdt.o
 .debug_aranges
                0x00000000       0x50 .\CortexM4\ARM_GCC_541\Release\cy_wdt.o
 .debug_ranges  0x00000000       0x40 .\CortexM4\ARM_GCC_541\Release\cy_wdt.o
 .debug_line    0x00000000      0x2ba .\CortexM4\ARM_GCC_541\Release\cy_wdt.o
 .debug_str     0x00000000      0x72a .\CortexM4\ARM_GCC_541\Release\cy_wdt.o
 .comment       0x00000000       0x6f .\CortexM4\ARM_GCC_541\Release\cy_wdt.o
 .debug_frame   0x00000000       0x90 .\CortexM4\ARM_GCC_541\Release\cy_wdt.o
 .ARM.attributes
                0x00000000       0x37 .\CortexM4\ARM_GCC_541\Release\cy_wdt.o
 .text          0x00000000        0x0 .\CortexM4\ARM_GCC_541\Release\cy_device.o
 .data          0x00000000        0x0 .\CortexM4\ARM_GCC_541\Release\cy_device.o
 .bss           0x00000000        0x0 .\CortexM4\ARM_GCC_541\Release\cy_device.o
 .text          0x00000000        0x0 .\CortexM4\ARM_GCC_541\Release\cy_tcpwm_counter.o
 .data          0x00000000        0x0 .\CortexM4\ARM_GCC_541\Release\cy_tcpwm_counter.o
 .bss           0x00000000        0x0 .\CortexM4\ARM_GCC_541\Release\cy_tcpwm_counter.o
 .text.Cy_TCPWM_Counter_DeInit
                0x00000000       0x50 .\CortexM4\ARM_GCC_541\Release\cy_tcpwm_counter.o
 .text          0x00000000        0x0 .\CortexM4\ARM_GCC_541\Release\cy_tcpwm_pwm.o
 .data          0x00000000        0x0 .\CortexM4\ARM_GCC_541\Release\cy_tcpwm_pwm.o
 .bss           0x00000000        0x0 .\CortexM4\ARM_GCC_541\Release\cy_tcpwm_pwm.o
 .text.Cy_TCPWM_PWM_DeInit
                0x00000000       0x50 .\CortexM4\ARM_GCC_541\Release\cy_tcpwm_pwm.o
 .text          0x00000000        0x0 .\CortexM4\ARM_GCC_541\Release\cy_tcpwm_quaddec.o
 .data          0x00000000        0x0 .\CortexM4\ARM_GCC_541\Release\cy_tcpwm_quaddec.o
 .bss           0x00000000        0x0 .\CortexM4\ARM_GCC_541\Release\cy_tcpwm_quaddec.o
 .text.Cy_TCPWM_QuadDec_Init
                0x00000000       0x7c .\CortexM4\ARM_GCC_541\Release\cy_tcpwm_quaddec.o
 .text.Cy_TCPWM_QuadDec_DeInit
                0x00000000       0x50 .\CortexM4\ARM_GCC_541\Release\cy_tcpwm_quaddec.o
 .debug_info    0x00000000      0x3b4 .\CortexM4\ARM_GCC_541\Release\cy_tcpwm_quaddec.o
 .debug_abbrev  0x00000000      0x158 .\CortexM4\ARM_GCC_541\Release\cy_tcpwm_quaddec.o
 .debug_loc     0x00000000       0xe7 .\CortexM4\ARM_GCC_541\Release\cy_tcpwm_quaddec.o
 .debug_aranges
                0x00000000       0x28 .\CortexM4\ARM_GCC_541\Release\cy_tcpwm_quaddec.o
 .debug_ranges  0x00000000       0x18 .\CortexM4\ARM_GCC_541\Release\cy_tcpwm_quaddec.o
 .debug_line    0x00000000      0x292 .\CortexM4\ARM_GCC_541\Release\cy_tcpwm_quaddec.o
 .debug_str     0x00000000      0x450 .\CortexM4\ARM_GCC_541\Release\cy_tcpwm_quaddec.o
 .comment       0x00000000       0x6f .\CortexM4\ARM_GCC_541\Release\cy_tcpwm_quaddec.o
 .debug_frame   0x00000000       0x48 .\CortexM4\ARM_GCC_541\Release\cy_tcpwm_quaddec.o
 .ARM.attributes
                0x00000000       0x37 .\CortexM4\ARM_GCC_541\Release\cy_tcpwm_quaddec.o
 .text          0x00000000        0x0 .\CortexM4\ARM_GCC_541\Release\cy_sar.o
 .data          0x00000000        0x0 .\CortexM4\ARM_GCC_541\Release\cy_sar.o
 .bss           0x00000000        0x8 .\CortexM4\ARM_GCC_541\Release\cy_sar.o
 .text.Cy_SAR_Wakeup
                0x00000000       0x30 .\CortexM4\ARM_GCC_541\Release\cy_sar.o
 .text.Cy_SAR_StartConvert
                0x00000000       0x14 .\CortexM4\ARM_GCC_541\Release\cy_sar.o
 .text.Cy_SAR_StopConvert
                0x00000000       0x10 .\CortexM4\ARM_GCC_541\Release\cy_sar.o
 .text.Cy_SAR_DeepSleep
                0x00000000       0x3c .\CortexM4\ARM_GCC_541\Release\cy_sar.o
 .text.Cy_SAR_SetConvertMode
                0x00000000        0xc .\CortexM4\ARM_GCC_541\Release\cy_sar.o
 .text.Cy_SAR_IsEndConversion
                0x00000000       0x44 .\CortexM4\ARM_GCC_541\Release\cy_sar.o
 .text.Cy_SAR_GetResult32
                0x00000000       0x22 .\CortexM4\ARM_GCC_541\Release\cy_sar.o
 .text.Cy_SAR_SetLowLimit
                0x00000000        0xe .\CortexM4\ARM_GCC_541\Release\cy_sar.o
 .text.Cy_SAR_SetHighLimit
                0x00000000        0xc .\CortexM4\ARM_GCC_541\Release\cy_sar.o
 .text.Cy_SAR_SetOffset
                0x00000000       0x18 .\CortexM4\ARM_GCC_541\Release\cy_sar.o
 .text.Cy_SAR_SetGain
                0x00000000       0x18 .\CortexM4\ARM_GCC_541\Release\cy_sar.o
 .text.Cy_SAR_CountsTo_Volts
                0x00000000       0x48 .\CortexM4\ARM_GCC_541\Release\cy_sar.o
 .text.Cy_SAR_CountsTo_mVolts
                0x00000000       0x44 .\CortexM4\ARM_GCC_541\Release\cy_sar.o
 .text.Cy_SAR_SetAnalogSwitch
                0x00000000       0x14 .\CortexM4\ARM_GCC_541\Release\cy_sar.o
 .text.Cy_SAR_GetAnalogSwitch
                0x00000000        0x6 .\CortexM4\ARM_GCC_541\Release\cy_sar.o
 .text.Cy_SAR_SetSwitchSarSeqCtrl
                0x00000000       0x14 .\CortexM4\ARM_GCC_541\Release\cy_sar.o
 .text.Cy_SAR_DeepSleepCallback
                0x00000000       0x1c .\CortexM4\ARM_GCC_541\Release\cy_sar.o
 .text          0x00000000        0x0 .\CortexM4\ARM_GCC_541\Release\cy_ble_clk.o
 .data          0x00000000        0x0 .\CortexM4\ARM_GCC_541\Release\cy_ble_clk.o
 .bss           0x00000000        0x0 .\CortexM4\ARM_GCC_541\Release\cy_ble_clk.o
 .text.Cy_BLE_HAL_RcbRegRead
                0x00000000       0x48 .\CortexM4\ARM_GCC_541\Release\cy_ble_clk.o
 .text.Cy_BLE_HAL_RcbRegWrite
                0x00000000       0x48 .\CortexM4\ARM_GCC_541\Release\cy_ble_clk.o
 .text.Cy_BLE_EcoStop
                0x00000000       0x10 .\CortexM4\ARM_GCC_541\Release\cy_ble_clk.o
 .text.Cy_BLE_HAL_Init
                0x00000000       0x64 .\CortexM4\ARM_GCC_541\Release\cy_ble_clk.o
 .text.Cy_BLE_EcoStart
                0x00000000      0x414 .\CortexM4\ARM_GCC_541\Release\cy_ble_clk.o
 .text.Cy_BLE_HAL_EcoGetFrequency
                0x00000000        0xc .\CortexM4\ARM_GCC_541\Release\cy_ble_clk.o
 .text.Cy_BLE_HAL_IsEcoCpuClockSrc
                0x00000000       0x1c .\CortexM4\ARM_GCC_541\Release\cy_ble_clk.o
 .text.Cy_BLE_HAL_IsWcoLfclkSrc
                0x00000000       0x10 .\CortexM4\ARM_GCC_541\Release\cy_ble_clk.o
 .rodata        0x00000000       0x6c .\CortexM4\ARM_GCC_541\Release\cy_ble_clk.o
 .debug_info    0x00000000     0x35fe .\CortexM4\ARM_GCC_541\Release\cy_ble_clk.o
 .debug_abbrev  0x00000000      0x399 .\CortexM4\ARM_GCC_541\Release\cy_ble_clk.o
 .debug_loc     0x00000000      0x5ac .\CortexM4\ARM_GCC_541\Release\cy_ble_clk.o
 .debug_aranges
                0x00000000       0x58 .\CortexM4\ARM_GCC_541\Release\cy_ble_clk.o
 .debug_ranges  0x00000000       0xa8 .\CortexM4\ARM_GCC_541\Release\cy_ble_clk.o
 .debug_line    0x00000000      0x5c0 .\CortexM4\ARM_GCC_541\Release\cy_ble_clk.o
 .debug_str     0x00000000     0x2ff3 .\CortexM4\ARM_GCC_541\Release\cy_ble_clk.o
 .comment       0x00000000       0x6f .\CortexM4\ARM_GCC_541\Release\cy_ble_clk.o
 .debug_frame   0x00000000       0xf4 .\CortexM4\ARM_GCC_541\Release\cy_ble_clk.o
 .ARM.attributes
                0x00000000       0x37 .\CortexM4\ARM_GCC_541\Release\cy_ble_clk.o
 .text          0x00000000        0x0 .\CortexM4\ARM_GCC_541\Release\Counter_1.o
 .data          0x00000000        0x0 .\CortexM4\ARM_GCC_541\Release\Counter_1.o
 .text          0x00000000        0x0 .\CortexM4\ARM_GCC_541\Release\PWM_L.o
 .data          0x00000000        0x0 .\CortexM4\ARM_GCC_541\Release\PWM_L.o
 .text          0x00000000        0x0 .\CortexM4\ARM_GCC_541\Release\PWM_R.o
 .data          0x00000000        0x0 .\CortexM4\ARM_GCC_541\Release\PWM_R.o
 .text          0x00000000        0x0 .\CortexM4\ARM_GCC_541\Release\Counter_2.o
 .data          0x00000000        0x0 .\CortexM4\ARM_GCC_541\Release\Counter_2.o
 .text          0x00000000        0x0 .\CortexM4\ARM_GCC_541\Release\Counter_3.o
 .data          0x00000000        0x0 .\CortexM4\ARM_GCC_541\Release\Counter_3.o
 .bss           0x00000000        0x1 .\CortexM4\ARM_GCC_541\Release\Counter_3.o
 .text.Counter_3_Start
                0x00000000       0x2c .\CortexM4\ARM_GCC_541\Release\Counter_3.o
 .rodata        0x00000000       0x4c .\CortexM4\ARM_GCC_541\Release\Counter_3.o
 .debug_info    0x00000000      0x48d .\CortexM4\ARM_GCC_541\Release\Counter_3.o
 .debug_abbrev  0x00000000      0x15f .\CortexM4\ARM_GCC_541\Release\Counter_3.o
 .debug_loc     0x00000000       0x58 .\CortexM4\ARM_GCC_541\Release\Counter_3.o
 .debug_aranges
                0x00000000       0x20 .\CortexM4\ARM_GCC_541\Release\Counter_3.o
 .debug_ranges  0x00000000       0x10 .\CortexM4\ARM_GCC_541\Release\Counter_3.o
 .debug_line    0x00000000      0x275 .\CortexM4\ARM_GCC_541\Release\Counter_3.o
 .debug_str     0x00000000      0x4e0 .\CortexM4\ARM_GCC_541\Release\Counter_3.o
 .comment       0x00000000       0x6f .\CortexM4\ARM_GCC_541\Release\Counter_3.o
 .debug_frame   0x00000000       0x2c .\CortexM4\ARM_GCC_541\Release\Counter_3.o
 .ARM.attributes
                0x00000000       0x37 .\CortexM4\ARM_GCC_541\Release\Counter_3.o
 .text          0x00000000        0x0 .\CortexM4\ARM_GCC_541\Release\ADC_1.o
 .data          0x00000000        0x0 .\CortexM4\ARM_GCC_541\Release\ADC_1.o
 .text.ADC_1_StartConvert
                0x00000000       0x14 .\CortexM4\ARM_GCC_541\Release\ADC_1.o
 .text.ADC_1_SetConvertMode
                0x00000000       0x18 .\CortexM4\ARM_GCC_541\Release\ADC_1.o
 .text.ADC_1_IRQ_Enable
                0x00000000       0x28 .\CortexM4\ARM_GCC_541\Release\ADC_1.o
 .text.ADC_1_IRQ_Disable
                0x00000000       0x30 .\CortexM4\ARM_GCC_541\Release\ADC_1.o
 .text.ADC_1_SetChanMask
                0x00000000       0x28 .\CortexM4\ARM_GCC_541\Release\ADC_1.o
 .text.ADC_1_IsEndConversion
                0x00000000       0x18 .\CortexM4\ARM_GCC_541\Release\ADC_1.o
 .text.ADC_1_SelectConfig
                0x00000000       0x50 .\CortexM4\ARM_GCC_541\Release\ADC_1.o
 .text          0x00000000        0x0 .\CortexM4\ARM_GCC_541\Release\ADC_1_INT.o
 .data          0x00000000        0x0 .\CortexM4\ARM_GCC_541\Release\ADC_1_INT.o
 .bss           0x00000000        0x0 .\CortexM4\ARM_GCC_541\Release\ADC_1_INT.o
 .text          0x00000000        0x0 .\CortexM4\ARM_GCC_541\Release\ADC_1_INIT.o
 .data          0x00000000        0x0 .\CortexM4\ARM_GCC_541\Release\ADC_1_INIT.o
 .bss           0x00000000        0x0 .\CortexM4\ARM_GCC_541\Release\ADC_1_INIT.o
 .text          0x00000000        0x0 .\CortexM4\ARM_GCC_541\Release\ADC_1_PM.o
 .data          0x00000000       0x20 .\CortexM4\ARM_GCC_541\Release\ADC_1_PM.o
 .bss           0x00000000        0x0 .\CortexM4\ARM_GCC_541\Release\ADC_1_PM.o
 .debug_info    0x00000000      0xa95 .\CortexM4\ARM_GCC_541\Release\ADC_1_PM.o
 .debug_abbrev  0x00000000      0x151 .\CortexM4\ARM_GCC_541\Release\ADC_1_PM.o
 .debug_aranges
                0x00000000       0x18 .\CortexM4\ARM_GCC_541\Release\ADC_1_PM.o
 .debug_line    0x00000000      0x284 .\CortexM4\ARM_GCC_541\Release\ADC_1_PM.o
 .debug_str     0x00000000      0xc99 .\CortexM4\ARM_GCC_541\Release\ADC_1_PM.o
 .comment       0x00000000       0x6f .\CortexM4\ARM_GCC_541\Release\ADC_1_PM.o
 .ARM.attributes
                0x00000000       0x37 .\CortexM4\ARM_GCC_541\Release\ADC_1_PM.o
 .text          0x00000000        0x0 .\CortexM4\ARM_GCC_541\Release\Counter_4.o
 .data          0x00000000        0x0 .\CortexM4\ARM_GCC_541\Release\Counter_4.o
 .bss           0x00000000        0x1 .\CortexM4\ARM_GCC_541\Release\Counter_4.o
 .text.Counter_4_Start
                0x00000000       0x2c .\CortexM4\ARM_GCC_541\Release\Counter_4.o
 .rodata        0x00000000       0x4c .\CortexM4\ARM_GCC_541\Release\Counter_4.o
 .debug_info    0x00000000      0x48d .\CortexM4\ARM_GCC_541\Release\Counter_4.o
 .debug_abbrev  0x00000000      0x15f .\CortexM4\ARM_GCC_541\Release\Counter_4.o
 .debug_loc     0x00000000       0x5a .\CortexM4\ARM_GCC_541\Release\Counter_4.o
 .debug_aranges
                0x00000000       0x20 .\CortexM4\ARM_GCC_541\Release\Counter_4.o
 .debug_ranges  0x00000000       0x10 .\CortexM4\ARM_GCC_541\Release\Counter_4.o
 .debug_line    0x00000000      0x275 .\CortexM4\ARM_GCC_541\Release\Counter_4.o
 .debug_str     0x00000000      0x4e0 .\CortexM4\ARM_GCC_541\Release\Counter_4.o
 .comment       0x00000000       0x6f .\CortexM4\ARM_GCC_541\Release\Counter_4.o
 .debug_frame   0x00000000       0x2c .\CortexM4\ARM_GCC_541\Release\Counter_4.o
 .ARM.attributes
                0x00000000       0x37 .\CortexM4\ARM_GCC_541\Release\Counter_4.o
 .data          0x00000000        0x0 c:/program files (x86)/cypress/psoc creator/4.4/psoc creator/import/gnu/arm/5.4.1/bin/../lib/gcc/arm-none-eabi/5.4.1/armv7e-m/softfp\libgcc.a(_arm_addsubdf3.o)
 .bss           0x00000000        0x0 c:/program files (x86)/cypress/psoc creator/4.4/psoc creator/import/gnu/arm/5.4.1/bin/../lib/gcc/arm-none-eabi/5.4.1/armv7e-m/softfp\libgcc.a(_arm_addsubdf3.o)
 .data          0x00000000        0x0 c:/program files (x86)/cypress/psoc creator/4.4/psoc creator/import/gnu/arm/5.4.1/bin/../lib/gcc/arm-none-eabi/5.4.1/armv7e-m/softfp\libgcc.a(_arm_muldivdf3.o)
 .bss           0x00000000        0x0 c:/program files (x86)/cypress/psoc creator/4.4/psoc creator/import/gnu/arm/5.4.1/bin/../lib/gcc/arm-none-eabi/5.4.1/armv7e-m/softfp\libgcc.a(_arm_muldivdf3.o)
 .data          0x00000000        0x0 c:/program files (x86)/cypress/psoc creator/4.4/psoc creator/import/gnu/arm/5.4.1/bin/../lib/gcc/arm-none-eabi/5.4.1/armv7e-m/softfp\libgcc.a(_arm_cmpdf2.o)
 .bss           0x00000000        0x0 c:/program files (x86)/cypress/psoc creator/4.4/psoc creator/import/gnu/arm/5.4.1/bin/../lib/gcc/arm-none-eabi/5.4.1/armv7e-m/softfp\libgcc.a(_arm_cmpdf2.o)
 .data          0x00000000        0x0 c:/program files (x86)/cypress/psoc creator/4.4/psoc creator/import/gnu/arm/5.4.1/bin/../lib/gcc/arm-none-eabi/5.4.1/armv7e-m/softfp\libgcc.a(_arm_fixdfsi.o)
 .bss           0x00000000        0x0 c:/program files (x86)/cypress/psoc creator/4.4/psoc creator/import/gnu/arm/5.4.1/bin/../lib/gcc/arm-none-eabi/5.4.1/armv7e-m/softfp\libgcc.a(_arm_fixdfsi.o)
 .data          0x00000000        0x0 c:/program files (x86)/cypress/psoc creator/4.4/psoc creator/import/gnu/arm/5.4.1/bin/../lib/gcc/arm-none-eabi/5.4.1/armv7e-m/softfp\libgcc.a(_arm_fixunsdfsi.o)
 .bss           0x00000000        0x0 c:/program files (x86)/cypress/psoc creator/4.4/psoc creator/import/gnu/arm/5.4.1/bin/../lib/gcc/arm-none-eabi/5.4.1/armv7e-m/softfp\libgcc.a(_arm_fixunsdfsi.o)
 .data          0x00000000        0x0 c:/program files (x86)/cypress/psoc creator/4.4/psoc creator/import/gnu/arm/5.4.1/bin/../lib/gcc/arm-none-eabi/5.4.1/armv7e-m/softfp\libgcc.a(_arm_truncdfsf2.o)
 .bss           0x00000000        0x0 c:/program files (x86)/cypress/psoc creator/4.4/psoc creator/import/gnu/arm/5.4.1/bin/../lib/gcc/arm-none-eabi/5.4.1/armv7e-m/softfp\libgcc.a(_arm_truncdfsf2.o)
 .data          0x00000000        0x0 c:/program files (x86)/cypress/psoc creator/4.4/psoc creator/import/gnu/arm/5.4.1/bin/../lib/gcc/arm-none-eabi/5.4.1/armv7e-m/softfp\libgcc.a(_aeabi_ldivmod.o)
 .bss           0x00000000        0x0 c:/program files (x86)/cypress/psoc creator/4.4/psoc creator/import/gnu/arm/5.4.1/bin/../lib/gcc/arm-none-eabi/5.4.1/armv7e-m/softfp\libgcc.a(_aeabi_ldivmod.o)
 .text          0x00000000       0x30 c:/program files (x86)/cypress/psoc creator/4.4/psoc creator/import/gnu/arm/5.4.1/bin/../lib/gcc/arm-none-eabi/5.4.1/armv7e-m/softfp\libgcc.a(_aeabi_uldivmod.o)
 .data          0x00000000        0x0 c:/program files (x86)/cypress/psoc creator/4.4/psoc creator/import/gnu/arm/5.4.1/bin/../lib/gcc/arm-none-eabi/5.4.1/armv7e-m/softfp\libgcc.a(_aeabi_uldivmod.o)
 .bss           0x00000000        0x0 c:/program files (x86)/cypress/psoc creator/4.4/psoc creator/import/gnu/arm/5.4.1/bin/../lib/gcc/arm-none-eabi/5.4.1/armv7e-m/softfp\libgcc.a(_aeabi_uldivmod.o)
 .debug_frame   0x00000000       0x2c c:/program files (x86)/cypress/psoc creator/4.4/psoc creator/import/gnu/arm/5.4.1/bin/../lib/gcc/arm-none-eabi/5.4.1/armv7e-m/softfp\libgcc.a(_aeabi_uldivmod.o)
 .ARM.attributes
                0x00000000       0x22 c:/program files (x86)/cypress/psoc creator/4.4/psoc creator/import/gnu/arm/5.4.1/bin/../lib/gcc/arm-none-eabi/5.4.1/armv7e-m/softfp\libgcc.a(_aeabi_uldivmod.o)
 .data          0x00000000        0x0 c:/program files (x86)/cypress/psoc creator/4.4/psoc creator/import/gnu/arm/5.4.1/bin/../lib/gcc/arm-none-eabi/5.4.1/armv7e-m/softfp\libgcc.a(_udivmoddi4.o)
 .bss           0x00000000        0x0 c:/program files (x86)/cypress/psoc creator/4.4/psoc creator/import/gnu/arm/5.4.1/bin/../lib/gcc/arm-none-eabi/5.4.1/armv7e-m/softfp\libgcc.a(_udivmoddi4.o)
 .ARM.extab     0x00000000        0x0 c:/program files (x86)/cypress/psoc creator/4.4/psoc creator/import/gnu/arm/5.4.1/bin/../lib/gcc/arm-none-eabi/5.4.1/armv7e-m/softfp\libgcc.a(_udivmoddi4.o)
 .data          0x00000000        0x0 c:/program files (x86)/cypress/psoc creator/4.4/psoc creator/import/gnu/arm/5.4.1/bin/../lib/gcc/arm-none-eabi/5.4.1/armv7e-m/softfp\libgcc.a(_dvmd_tls.o)
 .bss           0x00000000        0x0 c:/program files (x86)/cypress/psoc creator/4.4/psoc creator/import/gnu/arm/5.4.1/bin/../lib/gcc/arm-none-eabi/5.4.1/armv7e-m/softfp\libgcc.a(_dvmd_tls.o)
 .text          0x00000000        0x0 c:/program files (x86)/cypress/psoc creator/4.4/psoc creator/import/gnu/arm/5.4.1/bin/../lib/gcc/arm-none-eabi/5.4.1/../../../../arm-none-eabi/lib/armv7e-m/softfp\libg_nano.a(lib_a-exit.o)
 .data          0x00000000        0x0 c:/program files (x86)/cypress/psoc creator/4.4/psoc creator/import/gnu/arm/5.4.1/bin/../lib/gcc/arm-none-eabi/5.4.1/../../../../arm-none-eabi/lib/armv7e-m/softfp\libg_nano.a(lib_a-exit.o)
 .bss           0x00000000        0x0 c:/program files (x86)/cypress/psoc creator/4.4/psoc creator/import/gnu/arm/5.4.1/bin/../lib/gcc/arm-none-eabi/5.4.1/../../../../arm-none-eabi/lib/armv7e-m/softfp\libg_nano.a(lib_a-exit.o)
 .text.exit     0x00000000       0x28 c:/program files (x86)/cypress/psoc creator/4.4/psoc creator/import/gnu/arm/5.4.1/bin/../lib/gcc/arm-none-eabi/5.4.1/../../../../arm-none-eabi/lib/armv7e-m/softfp\libg_nano.a(lib_a-exit.o)
 .debug_frame   0x00000000       0x28 c:/program files (x86)/cypress/psoc creator/4.4/psoc creator/import/gnu/arm/5.4.1/bin/../lib/gcc/arm-none-eabi/5.4.1/../../../../arm-none-eabi/lib/armv7e-m/softfp\libg_nano.a(lib_a-exit.o)
 .ARM.attributes
                0x00000000       0x32 c:/program files (x86)/cypress/psoc creator/4.4/psoc creator/import/gnu/arm/5.4.1/bin/../lib/gcc/arm-none-eabi/5.4.1/../../../../arm-none-eabi/lib/armv7e-m/softfp\libg_nano.a(lib_a-exit.o)
 .text          0x00000000        0x0 c:/program files (x86)/cypress/psoc creator/4.4/psoc creator/import/gnu/arm/5.4.1/bin/../lib/gcc/arm-none-eabi/5.4.1/../../../../arm-none-eabi/lib/armv7e-m/softfp\libg_nano.a(lib_a-impure.o)
 .data          0x00000000        0x0 c:/program files (x86)/cypress/psoc creator/4.4/psoc creator/import/gnu/arm/5.4.1/bin/../lib/gcc/arm-none-eabi/5.4.1/../../../../arm-none-eabi/lib/armv7e-m/softfp\libg_nano.a(lib_a-impure.o)
 .bss           0x00000000        0x0 c:/program files (x86)/cypress/psoc creator/4.4/psoc creator/import/gnu/arm/5.4.1/bin/../lib/gcc/arm-none-eabi/5.4.1/../../../../arm-none-eabi/lib/armv7e-m/softfp\libg_nano.a(lib_a-impure.o)
 .rodata._global_impure_ptr
                0x00000000        0x4 c:/program files (x86)/cypress/psoc creator/4.4/psoc creator/import/gnu/arm/5.4.1/bin/../lib/gcc/arm-none-eabi/5.4.1/../../../../arm-none-eabi/lib/armv7e-m/softfp\libg_nano.a(lib_a-impure.o)
 .text          0x00000000        0x0 c:/program files (x86)/cypress/psoc creator/4.4/psoc creator/import/gnu/arm/5.4.1/bin/../lib/gcc/arm-none-eabi/5.4.1/../../../../arm-none-eabi/lib/armv7e-m/softfp\libg_nano.a(lib_a-init.o)
 .data          0x00000000        0x0 c:/program files (x86)/cypress/psoc creator/4.4/psoc creator/import/gnu/arm/5.4.1/bin/../lib/gcc/arm-none-eabi/5.4.1/../../../../arm-none-eabi/lib/armv7e-m/softfp\libg_nano.a(lib_a-init.o)
 .bss           0x00000000        0x0 c:/program files (x86)/cypress/psoc creator/4.4/psoc creator/import/gnu/arm/5.4.1/bin/../lib/gcc/arm-none-eabi/5.4.1/../../../../arm-none-eabi/lib/armv7e-m/softfp\libg_nano.a(lib_a-init.o)
 .text.__libc_init_array
                0x00000000       0x4c c:/program files (x86)/cypress/psoc creator/4.4/psoc creator/import/gnu/arm/5.4.1/bin/../lib/gcc/arm-none-eabi/5.4.1/../../../../arm-none-eabi/lib/armv7e-m/softfp\libg_nano.a(lib_a-init.o)
 .debug_frame   0x00000000       0x2c c:/program files (x86)/cypress/psoc creator/4.4/psoc creator/import/gnu/arm/5.4.1/bin/../lib/gcc/arm-none-eabi/5.4.1/../../../../arm-none-eabi/lib/armv7e-m/softfp\libg_nano.a(lib_a-init.o)
 .ARM.attributes
                0x00000000       0x32 c:/program files (x86)/cypress/psoc creator/4.4/psoc creator/import/gnu/arm/5.4.1/bin/../lib/gcc/arm-none-eabi/5.4.1/../../../../arm-none-eabi/lib/armv7e-m/softfp\libg_nano.a(lib_a-init.o)
 .text          0x00000000        0x0 c:/program files (x86)/cypress/psoc creator/4.4/psoc creator/import/gnu/arm/5.4.1/bin/../lib/gcc/arm-none-eabi/5.4.1/../../../../arm-none-eabi/lib/armv7e-m/softfp\libg_nano.a(lib_a-memset.o)
 .data          0x00000000        0x0 c:/program files (x86)/cypress/psoc creator/4.4/psoc creator/import/gnu/arm/5.4.1/bin/../lib/gcc/arm-none-eabi/5.4.1/../../../../arm-none-eabi/lib/armv7e-m/softfp\libg_nano.a(lib_a-memset.o)
 .bss           0x00000000        0x0 c:/program files (x86)/cypress/psoc creator/4.4/psoc creator/import/gnu/arm/5.4.1/bin/../lib/gcc/arm-none-eabi/5.4.1/../../../../arm-none-eabi/lib/armv7e-m/softfp\libg_nano.a(lib_a-memset.o)
 .text          0x00000000        0x0 c:/program files (x86)/cypress/psoc creator/4.4/psoc creator/import/gnu/arm/5.4.1/bin/../lib/gcc/arm-none-eabi/5.4.1/../../../../arm-none-eabi/lib/armv7e-m/softfp\libg_nano.a(lib_a-nano-vfprintf_float.o)
 .data          0x00000000        0x0 c:/program files (x86)/cypress/psoc creator/4.4/psoc creator/import/gnu/arm/5.4.1/bin/../lib/gcc/arm-none-eabi/5.4.1/../../../../arm-none-eabi/lib/armv7e-m/softfp\libg_nano.a(lib_a-nano-vfprintf_float.o)
 .bss           0x00000000        0x0 c:/program files (x86)/cypress/psoc creator/4.4/psoc creator/import/gnu/arm/5.4.1/bin/../lib/gcc/arm-none-eabi/5.4.1/../../../../arm-none-eabi/lib/armv7e-m/softfp\libg_nano.a(lib_a-nano-vfprintf_float.o)
 .text          0x00000000        0x0 c:/program files (x86)/cypress/psoc creator/4.4/psoc creator/import/gnu/arm/5.4.1/bin/../lib/gcc/arm-none-eabi/5.4.1/../../../../arm-none-eabi/lib/armv7e-m/softfp\libg_nano.a(lib_a-nano-vfprintf_i.o)
 .data          0x00000000        0x0 c:/program files (x86)/cypress/psoc creator/4.4/psoc creator/import/gnu/arm/5.4.1/bin/../lib/gcc/arm-none-eabi/5.4.1/../../../../arm-none-eabi/lib/armv7e-m/softfp\libg_nano.a(lib_a-nano-vfprintf_i.o)
 .bss           0x00000000        0x0 c:/program files (x86)/cypress/psoc creator/4.4/psoc creator/import/gnu/arm/5.4.1/bin/../lib/gcc/arm-none-eabi/5.4.1/../../../../arm-none-eabi/lib/armv7e-m/softfp\libg_nano.a(lib_a-nano-vfprintf_i.o)
 .text          0x00000000        0x0 c:/program files (x86)/cypress/psoc creator/4.4/psoc creator/import/gnu/arm/5.4.1/bin/../lib/gcc/arm-none-eabi/5.4.1/../../../../arm-none-eabi/lib/armv7e-m/softfp\libg_nano.a(lib_a-snprintf.o)
 .data          0x00000000        0x0 c:/program files (x86)/cypress/psoc creator/4.4/psoc creator/import/gnu/arm/5.4.1/bin/../lib/gcc/arm-none-eabi/5.4.1/../../../../arm-none-eabi/lib/armv7e-m/softfp\libg_nano.a(lib_a-snprintf.o)
 .bss           0x00000000        0x0 c:/program files (x86)/cypress/psoc creator/4.4/psoc creator/import/gnu/arm/5.4.1/bin/../lib/gcc/arm-none-eabi/5.4.1/../../../../arm-none-eabi/lib/armv7e-m/softfp\libg_nano.a(lib_a-snprintf.o)
 .text._snprintf_r
                0x00000000       0x5c c:/program files (x86)/cypress/psoc creator/4.4/psoc creator/import/gnu/arm/5.4.1/bin/../lib/gcc/arm-none-eabi/5.4.1/../../../../arm-none-eabi/lib/armv7e-m/softfp\libg_nano.a(lib_a-snprintf.o)
 .text          0x00000000        0x0 c:/program files (x86)/cypress/psoc creator/4.4/psoc creator/import/gnu/arm/5.4.1/bin/../lib/gcc/arm-none-eabi/5.4.1/../../../../arm-none-eabi/lib/armv7e-m/softfp\libg_nano.a(lib_a-sprintf.o)
 .data          0x00000000        0x0 c:/program files (x86)/cypress/psoc creator/4.4/psoc creator/import/gnu/arm/5.4.1/bin/../lib/gcc/arm-none-eabi/5.4.1/../../../../arm-none-eabi/lib/armv7e-m/softfp\libg_nano.a(lib_a-sprintf.o)
 .bss           0x00000000        0x0 c:/program files (x86)/cypress/psoc creator/4.4/psoc creator/import/gnu/arm/5.4.1/bin/../lib/gcc/arm-none-eabi/5.4.1/../../../../arm-none-eabi/lib/armv7e-m/softfp\libg_nano.a(lib_a-sprintf.o)
 .text._sprintf_r
                0x00000000       0x40 c:/program files (x86)/cypress/psoc creator/4.4/psoc creator/import/gnu/arm/5.4.1/bin/../lib/gcc/arm-none-eabi/5.4.1/../../../../arm-none-eabi/lib/armv7e-m/softfp\libg_nano.a(lib_a-sprintf.o)
 .text.sprintf  0x00000000       0x48 c:/program files (x86)/cypress/psoc creator/4.4/psoc creator/import/gnu/arm/5.4.1/bin/../lib/gcc/arm-none-eabi/5.4.1/../../../../arm-none-eabi/lib/armv7e-m/softfp\libg_nano.a(lib_a-sprintf.o)
 .debug_frame   0x00000000       0x70 c:/program files (x86)/cypress/psoc creator/4.4/psoc creator/import/gnu/arm/5.4.1/bin/../lib/gcc/arm-none-eabi/5.4.1/../../../../arm-none-eabi/lib/armv7e-m/softfp\libg_nano.a(lib_a-sprintf.o)
 .ARM.attributes
                0x00000000       0x32 c:/program files (x86)/cypress/psoc creator/4.4/psoc creator/import/gnu/arm/5.4.1/bin/../lib/gcc/arm-none-eabi/5.4.1/../../../../arm-none-eabi/lib/armv7e-m/softfp\libg_nano.a(lib_a-sprintf.o)
 .data          0x00000000        0x0 c:/program files (x86)/cypress/psoc creator/4.4/psoc creator/import/gnu/arm/5.4.1/bin/../lib/gcc/arm-none-eabi/5.4.1/../../../../arm-none-eabi/lib/armv7e-m/softfp\libg_nano.a(lib_a-strlen.o)
 .bss           0x00000000        0x0 c:/program files (x86)/cypress/psoc creator/4.4/psoc creator/import/gnu/arm/5.4.1/bin/../lib/gcc/arm-none-eabi/5.4.1/../../../../arm-none-eabi/lib/armv7e-m/softfp\libg_nano.a(lib_a-strlen.o)
 .text          0x00000000        0x0 c:/program files (x86)/cypress/psoc creator/4.4/psoc creator/import/gnu/arm/5.4.1/bin/../lib/gcc/arm-none-eabi/5.4.1/../../../../arm-none-eabi/lib/armv7e-m/softfp\libg_nano.a(lib_a-dtoa.o)
 .data          0x00000000        0x0 c:/program files (x86)/cypress/psoc creator/4.4/psoc creator/import/gnu/arm/5.4.1/bin/../lib/gcc/arm-none-eabi/5.4.1/../../../../arm-none-eabi/lib/armv7e-m/softfp\libg_nano.a(lib_a-dtoa.o)
 .bss           0x00000000        0x0 c:/program files (x86)/cypress/psoc creator/4.4/psoc creator/import/gnu/arm/5.4.1/bin/../lib/gcc/arm-none-eabi/5.4.1/../../../../arm-none-eabi/lib/armv7e-m/softfp\libg_nano.a(lib_a-dtoa.o)
 .text          0x00000000        0x0 c:/program files (x86)/cypress/psoc creator/4.4/psoc creator/import/gnu/arm/5.4.1/bin/../lib/gcc/arm-none-eabi/5.4.1/../../../../arm-none-eabi/lib/armv7e-m/softfp\libg_nano.a(lib_a-locale.o)
 .data          0x00000000        0x0 c:/program files (x86)/cypress/psoc creator/4.4/psoc creator/import/gnu/arm/5.4.1/bin/../lib/gcc/arm-none-eabi/5.4.1/../../../../arm-none-eabi/lib/armv7e-m/softfp\libg_nano.a(lib_a-locale.o)
 .bss           0x00000000        0x0 c:/program files (x86)/cypress/psoc creator/4.4/psoc creator/import/gnu/arm/5.4.1/bin/../lib/gcc/arm-none-eabi/5.4.1/../../../../arm-none-eabi/lib/armv7e-m/softfp\libg_nano.a(lib_a-locale.o)
 .text._setlocale_r
                0x00000000       0x38 c:/program files (x86)/cypress/psoc creator/4.4/psoc creator/import/gnu/arm/5.4.1/bin/../lib/gcc/arm-none-eabi/5.4.1/../../../../arm-none-eabi/lib/armv7e-m/softfp\libg_nano.a(lib_a-locale.o)
 .text.__locale_charset
                0x00000000        0x8 c:/program files (x86)/cypress/psoc creator/4.4/psoc creator/import/gnu/arm/5.4.1/bin/../lib/gcc/arm-none-eabi/5.4.1/../../../../arm-none-eabi/lib/armv7e-m/softfp\libg_nano.a(lib_a-locale.o)
 .text.__locale_mb_cur_max
                0x00000000        0xc c:/program files (x86)/cypress/psoc creator/4.4/psoc creator/import/gnu/arm/5.4.1/bin/../lib/gcc/arm-none-eabi/5.4.1/../../../../arm-none-eabi/lib/armv7e-m/softfp\libg_nano.a(lib_a-locale.o)
 .text.__locale_msgcharset
                0x00000000        0x8 c:/program files (x86)/cypress/psoc creator/4.4/psoc creator/import/gnu/arm/5.4.1/bin/../lib/gcc/arm-none-eabi/5.4.1/../../../../arm-none-eabi/lib/armv7e-m/softfp\libg_nano.a(lib_a-locale.o)
 .text.__locale_cjk_lang
                0x00000000        0x4 c:/program files (x86)/cypress/psoc creator/4.4/psoc creator/import/gnu/arm/5.4.1/bin/../lib/gcc/arm-none-eabi/5.4.1/../../../../arm-none-eabi/lib/armv7e-m/softfp\libg_nano.a(lib_a-locale.o)
 .text.setlocale
                0x00000000       0x10 c:/program files (x86)/cypress/psoc creator/4.4/psoc creator/import/gnu/arm/5.4.1/bin/../lib/gcc/arm-none-eabi/5.4.1/../../../../arm-none-eabi/lib/armv7e-m/softfp\libg_nano.a(lib_a-locale.o)
 .text.localeconv
                0x00000000        0x8 c:/program files (x86)/cypress/psoc creator/4.4/psoc creator/import/gnu/arm/5.4.1/bin/../lib/gcc/arm-none-eabi/5.4.1/../../../../arm-none-eabi/lib/armv7e-m/softfp\libg_nano.a(lib_a-locale.o)
 .data.lc_message_charset
                0x00000000       0x20 c:/program files (x86)/cypress/psoc creator/4.4/psoc creator/import/gnu/arm/5.4.1/bin/../lib/gcc/arm-none-eabi/5.4.1/../../../../arm-none-eabi/lib/armv7e-m/softfp\libg_nano.a(lib_a-locale.o)
 .bss._PathLocale
                0x00000000        0x4 c:/program files (x86)/cypress/psoc creator/4.4/psoc creator/import/gnu/arm/5.4.1/bin/../lib/gcc/arm-none-eabi/5.4.1/../../../../arm-none-eabi/lib/armv7e-m/softfp\libg_nano.a(lib_a-locale.o)
 .bss.__nlocale_changed
                0x00000000        0x4 c:/program files (x86)/cypress/psoc creator/4.4/psoc creator/import/gnu/arm/5.4.1/bin/../lib/gcc/arm-none-eabi/5.4.1/../../../../arm-none-eabi/lib/armv7e-m/softfp\libg_nano.a(lib_a-locale.o)
 .bss.__mlocale_changed
                0x00000000        0x4 c:/program files (x86)/cypress/psoc creator/4.4/psoc creator/import/gnu/arm/5.4.1/bin/../lib/gcc/arm-none-eabi/5.4.1/../../../../arm-none-eabi/lib/armv7e-m/softfp\libg_nano.a(lib_a-locale.o)
 .data.lc_ctype_charset
                0x00000000       0x20 c:/program files (x86)/cypress/psoc creator/4.4/psoc creator/import/gnu/arm/5.4.1/bin/../lib/gcc/arm-none-eabi/5.4.1/../../../../arm-none-eabi/lib/armv7e-m/softfp\libg_nano.a(lib_a-locale.o)
 .data.__mb_cur_max
                0x00000000        0x4 c:/program files (x86)/cypress/psoc creator/4.4/psoc creator/import/gnu/arm/5.4.1/bin/../lib/gcc/arm-none-eabi/5.4.1/../../../../arm-none-eabi/lib/armv7e-m/softfp\libg_nano.a(lib_a-locale.o)
 .text          0x00000000        0x0 c:/program files (x86)/cypress/psoc creator/4.4/psoc creator/import/gnu/arm/5.4.1/bin/../lib/gcc/arm-none-eabi/5.4.1/../../../../arm-none-eabi/lib/armv7e-m/softfp\libg_nano.a(lib_a-malloc.o)
 .data          0x00000000        0x0 c:/program files (x86)/cypress/psoc creator/4.4/psoc creator/import/gnu/arm/5.4.1/bin/../lib/gcc/arm-none-eabi/5.4.1/../../../../arm-none-eabi/lib/armv7e-m/softfp\libg_nano.a(lib_a-malloc.o)
 .bss           0x00000000        0x0 c:/program files (x86)/cypress/psoc creator/4.4/psoc creator/import/gnu/arm/5.4.1/bin/../lib/gcc/arm-none-eabi/5.4.1/../../../../arm-none-eabi/lib/armv7e-m/softfp\libg_nano.a(lib_a-malloc.o)
 .text.free     0x00000000       0x10 c:/program files (x86)/cypress/psoc creator/4.4/psoc creator/import/gnu/arm/5.4.1/bin/../lib/gcc/arm-none-eabi/5.4.1/../../../../arm-none-eabi/lib/armv7e-m/softfp\libg_nano.a(lib_a-malloc.o)
 .data          0x00000000        0x0 c:/program files (x86)/cypress/psoc creator/4.4/psoc creator/import/gnu/arm/5.4.1/bin/../lib/gcc/arm-none-eabi/5.4.1/../../../../arm-none-eabi/lib/armv7e-m/softfp\libg_nano.a(lib_a-memchr.o)
 .bss           0x00000000        0x0 c:/program files (x86)/cypress/psoc creator/4.4/psoc creator/import/gnu/arm/5.4.1/bin/../lib/gcc/arm-none-eabi/5.4.1/../../../../arm-none-eabi/lib/armv7e-m/softfp\libg_nano.a(lib_a-memchr.o)
 .text          0x00000000        0x0 c:/program files (x86)/cypress/psoc creator/4.4/psoc creator/import/gnu/arm/5.4.1/bin/../lib/gcc/arm-none-eabi/5.4.1/../../../../arm-none-eabi/lib/armv7e-m/softfp\libg_nano.a(lib_a-memcpy-stub.o)
 .data          0x00000000        0x0 c:/program files (x86)/cypress/psoc creator/4.4/psoc creator/import/gnu/arm/5.4.1/bin/../lib/gcc/arm-none-eabi/5.4.1/../../../../arm-none-eabi/lib/armv7e-m/softfp\libg_nano.a(lib_a-memcpy-stub.o)
 .bss           0x00000000        0x0 c:/program files (x86)/cypress/psoc creator/4.4/psoc creator/import/gnu/arm/5.4.1/bin/../lib/gcc/arm-none-eabi/5.4.1/../../../../arm-none-eabi/lib/armv7e-m/softfp\libg_nano.a(lib_a-memcpy-stub.o)
 .text          0x00000000        0x0 c:/program files (x86)/cypress/psoc creator/4.4/psoc creator/import/gnu/arm/5.4.1/bin/../lib/gcc/arm-none-eabi/5.4.1/../../../../arm-none-eabi/lib/armv7e-m/softfp\libg_nano.a(lib_a-mprec.o)
 .data          0x00000000        0x0 c:/program files (x86)/cypress/psoc creator/4.4/psoc creator/import/gnu/arm/5.4.1/bin/../lib/gcc/arm-none-eabi/5.4.1/../../../../arm-none-eabi/lib/armv7e-m/softfp\libg_nano.a(lib_a-mprec.o)
 .bss           0x00000000        0x0 c:/program files (x86)/cypress/psoc creator/4.4/psoc creator/import/gnu/arm/5.4.1/bin/../lib/gcc/arm-none-eabi/5.4.1/../../../../arm-none-eabi/lib/armv7e-m/softfp\libg_nano.a(lib_a-mprec.o)
 .text.__s2b    0x00000000       0x7c c:/program files (x86)/cypress/psoc creator/4.4/psoc creator/import/gnu/arm/5.4.1/bin/../lib/gcc/arm-none-eabi/5.4.1/../../../../arm-none-eabi/lib/armv7e-m/softfp\libg_nano.a(lib_a-mprec.o)
 .text.__ulp    0x00000000       0x48 c:/program files (x86)/cypress/psoc creator/4.4/psoc creator/import/gnu/arm/5.4.1/bin/../lib/gcc/arm-none-eabi/5.4.1/../../../../arm-none-eabi/lib/armv7e-m/softfp\libg_nano.a(lib_a-mprec.o)
 .text.__b2d    0x00000000       0x9a c:/program files (x86)/cypress/psoc creator/4.4/psoc creator/import/gnu/arm/5.4.1/bin/../lib/gcc/arm-none-eabi/5.4.1/../../../../arm-none-eabi/lib/armv7e-m/softfp\libg_nano.a(lib_a-mprec.o)
 .text.__ratio  0x00000000       0x52 c:/program files (x86)/cypress/psoc creator/4.4/psoc creator/import/gnu/arm/5.4.1/bin/../lib/gcc/arm-none-eabi/5.4.1/../../../../arm-none-eabi/lib/armv7e-m/softfp\libg_nano.a(lib_a-mprec.o)
 .text._mprec_log10
                0x00000000       0x34 c:/program files (x86)/cypress/psoc creator/4.4/psoc creator/import/gnu/arm/5.4.1/bin/../lib/gcc/arm-none-eabi/5.4.1/../../../../arm-none-eabi/lib/armv7e-m/softfp\libg_nano.a(lib_a-mprec.o)
 .text.__copybits
                0x00000000       0x34 c:/program files (x86)/cypress/psoc creator/4.4/psoc creator/import/gnu/arm/5.4.1/bin/../lib/gcc/arm-none-eabi/5.4.1/../../../../arm-none-eabi/lib/armv7e-m/softfp\libg_nano.a(lib_a-mprec.o)
 .text.__any_on
                0x00000000       0x44 c:/program files (x86)/cypress/psoc creator/4.4/psoc creator/import/gnu/arm/5.4.1/bin/../lib/gcc/arm-none-eabi/5.4.1/../../../../arm-none-eabi/lib/armv7e-m/softfp\libg_nano.a(lib_a-mprec.o)
 .rodata.__mprec_tinytens
                0x00000000       0x28 c:/program files (x86)/cypress/psoc creator/4.4/psoc creator/import/gnu/arm/5.4.1/bin/../lib/gcc/arm-none-eabi/5.4.1/../../../../arm-none-eabi/lib/armv7e-m/softfp\libg_nano.a(lib_a-mprec.o)
 .text          0x00000000        0x0 c:/program files (x86)/cypress/psoc creator/4.4/psoc creator/import/gnu/arm/5.4.1/bin/../lib/gcc/arm-none-eabi/5.4.1/../../../../arm-none-eabi/lib/armv7e-m/softfp\libg_nano.a(lib_a-nano-callocr.o)
 .data          0x00000000        0x0 c:/program files (x86)/cypress/psoc creator/4.4/psoc creator/import/gnu/arm/5.4.1/bin/../lib/gcc/arm-none-eabi/5.4.1/../../../../arm-none-eabi/lib/armv7e-m/softfp\libg_nano.a(lib_a-nano-callocr.o)
 .bss           0x00000000        0x0 c:/program files (x86)/cypress/psoc creator/4.4/psoc creator/import/gnu/arm/5.4.1/bin/../lib/gcc/arm-none-eabi/5.4.1/../../../../arm-none-eabi/lib/armv7e-m/softfp\libg_nano.a(lib_a-nano-callocr.o)
 .text          0x00000000        0x0 c:/program files (x86)/cypress/psoc creator/4.4/psoc creator/import/gnu/arm/5.4.1/bin/../lib/gcc/arm-none-eabi/5.4.1/../../../../arm-none-eabi/lib/armv7e-m/softfp\libg_nano.a(lib_a-nano-freer.o)
 .data          0x00000000        0x0 c:/program files (x86)/cypress/psoc creator/4.4/psoc creator/import/gnu/arm/5.4.1/bin/../lib/gcc/arm-none-eabi/5.4.1/../../../../arm-none-eabi/lib/armv7e-m/softfp\libg_nano.a(lib_a-nano-freer.o)
 .bss           0x00000000        0x0 c:/program files (x86)/cypress/psoc creator/4.4/psoc creator/import/gnu/arm/5.4.1/bin/../lib/gcc/arm-none-eabi/5.4.1/../../../../arm-none-eabi/lib/armv7e-m/softfp\libg_nano.a(lib_a-nano-freer.o)
 .text          0x00000000        0x0 c:/program files (x86)/cypress/psoc creator/4.4/psoc creator/import/gnu/arm/5.4.1/bin/../lib/gcc/arm-none-eabi/5.4.1/../../../../arm-none-eabi/lib/armv7e-m/softfp\libg_nano.a(lib_a-nano-mallocr.o)
 .data          0x00000000        0x0 c:/program files (x86)/cypress/psoc creator/4.4/psoc creator/import/gnu/arm/5.4.1/bin/../lib/gcc/arm-none-eabi/5.4.1/../../../../arm-none-eabi/lib/armv7e-m/softfp\libg_nano.a(lib_a-nano-mallocr.o)
 .bss           0x00000000        0x0 c:/program files (x86)/cypress/psoc creator/4.4/psoc creator/import/gnu/arm/5.4.1/bin/../lib/gcc/arm-none-eabi/5.4.1/../../../../arm-none-eabi/lib/armv7e-m/softfp\libg_nano.a(lib_a-nano-mallocr.o)
 .text          0x00000000        0x0 c:/program files (x86)/cypress/psoc creator/4.4/psoc creator/import/gnu/arm/5.4.1/bin/../lib/gcc/arm-none-eabi/5.4.1/../../../../arm-none-eabi/lib/armv7e-m/softfp\libg_nano.a(lib_a-nano-svfprintf.o)
 .data          0x00000000        0x0 c:/program files (x86)/cypress/psoc creator/4.4/psoc creator/import/gnu/arm/5.4.1/bin/../lib/gcc/arm-none-eabi/5.4.1/../../../../arm-none-eabi/lib/armv7e-m/softfp\libg_nano.a(lib_a-nano-svfprintf.o)
 .bss           0x00000000        0x0 c:/program files (x86)/cypress/psoc creator/4.4/psoc creator/import/gnu/arm/5.4.1/bin/../lib/gcc/arm-none-eabi/5.4.1/../../../../arm-none-eabi/lib/armv7e-m/softfp\libg_nano.a(lib_a-nano-svfprintf.o)
 .text.__ssprint_r
                0x00000000       0xfe c:/program files (x86)/cypress/psoc creator/4.4/psoc creator/import/gnu/arm/5.4.1/bin/../lib/gcc/arm-none-eabi/5.4.1/../../../../arm-none-eabi/lib/armv7e-m/softfp\libg_nano.a(lib_a-nano-svfprintf.o)
 .text          0x00000000        0x0 c:/program files (x86)/cypress/psoc creator/4.4/psoc creator/import/gnu/arm/5.4.1/bin/../lib/gcc/arm-none-eabi/5.4.1/../../../../arm-none-eabi/lib/armv7e-m/softfp\libg_nano.a(lib_a-sbrkr.o)
 .data          0x00000000        0x0 c:/program files (x86)/cypress/psoc creator/4.4/psoc creator/import/gnu/arm/5.4.1/bin/../lib/gcc/arm-none-eabi/5.4.1/../../../../arm-none-eabi/lib/armv7e-m/softfp\libg_nano.a(lib_a-sbrkr.o)
 .bss           0x00000000        0x0 c:/program files (x86)/cypress/psoc creator/4.4/psoc creator/import/gnu/arm/5.4.1/bin/../lib/gcc/arm-none-eabi/5.4.1/../../../../arm-none-eabi/lib/armv7e-m/softfp\libg_nano.a(lib_a-sbrkr.o)
 .text          0x00000000       0x14 c:/program files (x86)/cypress/psoc creator/4.4/psoc creator/import/gnu/arm/5.4.1/bin/../lib/gcc/arm-none-eabi/5.4.1/../../../../arm-none-eabi/lib/armv7e-m/softfp\libg_nano.a(lib_a-strcmp.o)
 .data          0x00000000        0x0 c:/program files (x86)/cypress/psoc creator/4.4/psoc creator/import/gnu/arm/5.4.1/bin/../lib/gcc/arm-none-eabi/5.4.1/../../../../arm-none-eabi/lib/armv7e-m/softfp\libg_nano.a(lib_a-strcmp.o)
 .bss           0x00000000        0x0 c:/program files (x86)/cypress/psoc creator/4.4/psoc creator/import/gnu/arm/5.4.1/bin/../lib/gcc/arm-none-eabi/5.4.1/../../../../arm-none-eabi/lib/armv7e-m/softfp\libg_nano.a(lib_a-strcmp.o)
 .debug_frame   0x00000000       0x20 c:/program files (x86)/cypress/psoc creator/4.4/psoc creator/import/gnu/arm/5.4.1/bin/../lib/gcc/arm-none-eabi/5.4.1/../../../../arm-none-eabi/lib/armv7e-m/softfp\libg_nano.a(lib_a-strcmp.o)
 .ARM.attributes
                0x00000000       0x20 c:/program files (x86)/cypress/psoc creator/4.4/psoc creator/import/gnu/arm/5.4.1/bin/../lib/gcc/arm-none-eabi/5.4.1/../../../../arm-none-eabi/lib/armv7e-m/softfp\libg_nano.a(lib_a-strcmp.o)
 .text          0x00000000        0x0 c:/program files (x86)/cypress/psoc creator/4.4/psoc creator/import/gnu/arm/5.4.1/bin/../lib/gcc/arm-none-eabi/5.4.1/../../../../arm-none-eabi/lib/armv7e-m/softfp\libg_nano.a(lib_a-memmove.o)
 .data          0x00000000        0x0 c:/program files (x86)/cypress/psoc creator/4.4/psoc creator/import/gnu/arm/5.4.1/bin/../lib/gcc/arm-none-eabi/5.4.1/../../../../arm-none-eabi/lib/armv7e-m/softfp\libg_nano.a(lib_a-memmove.o)
 .bss           0x00000000        0x0 c:/program files (x86)/cypress/psoc creator/4.4/psoc creator/import/gnu/arm/5.4.1/bin/../lib/gcc/arm-none-eabi/5.4.1/../../../../arm-none-eabi/lib/armv7e-m/softfp\libg_nano.a(lib_a-memmove.o)
 .text          0x00000000        0x0 c:/program files (x86)/cypress/psoc creator/4.4/psoc creator/import/gnu/arm/5.4.1/bin/../lib/gcc/arm-none-eabi/5.4.1/../../../../arm-none-eabi/lib/armv7e-m/softfp\libg_nano.a(lib_a-mlock.o)
 .data          0x00000000        0x0 c:/program files (x86)/cypress/psoc creator/4.4/psoc creator/import/gnu/arm/5.4.1/bin/../lib/gcc/arm-none-eabi/5.4.1/../../../../arm-none-eabi/lib/armv7e-m/softfp\libg_nano.a(lib_a-mlock.o)
 .bss           0x00000000        0x0 c:/program files (x86)/cypress/psoc creator/4.4/psoc creator/import/gnu/arm/5.4.1/bin/../lib/gcc/arm-none-eabi/5.4.1/../../../../arm-none-eabi/lib/armv7e-m/softfp\libg_nano.a(lib_a-mlock.o)
 .text          0x00000000        0x0 c:/program files (x86)/cypress/psoc creator/4.4/psoc creator/import/gnu/arm/5.4.1/bin/../lib/gcc/arm-none-eabi/5.4.1/../../../../arm-none-eabi/lib/armv7e-m/softfp\libg_nano.a(lib_a-nano-reallocr.o)
 .data          0x00000000        0x0 c:/program files (x86)/cypress/psoc creator/4.4/psoc creator/import/gnu/arm/5.4.1/bin/../lib/gcc/arm-none-eabi/5.4.1/../../../../arm-none-eabi/lib/armv7e-m/softfp\libg_nano.a(lib_a-nano-reallocr.o)
 .bss           0x00000000        0x0 c:/program files (x86)/cypress/psoc creator/4.4/psoc creator/import/gnu/arm/5.4.1/bin/../lib/gcc/arm-none-eabi/5.4.1/../../../../arm-none-eabi/lib/armv7e-m/softfp\libg_nano.a(lib_a-nano-reallocr.o)
 .text          0x00000000        0x0 c:/program files (x86)/cypress/psoc creator/4.4/psoc creator/import/gnu/arm/5.4.1/bin/../lib/gcc/arm-none-eabi/5.4.1/../../../../arm-none-eabi/lib/armv7e-m/softfp\libg_nano.a(lib_a-reent.o)
 .data          0x00000000        0x0 c:/program files (x86)/cypress/psoc creator/4.4/psoc creator/import/gnu/arm/5.4.1/bin/../lib/gcc/arm-none-eabi/5.4.1/../../../../arm-none-eabi/lib/armv7e-m/softfp\libg_nano.a(lib_a-reent.o)
 .bss           0x00000000        0x0 c:/program files (x86)/cypress/psoc creator/4.4/psoc creator/import/gnu/arm/5.4.1/bin/../lib/gcc/arm-none-eabi/5.4.1/../../../../arm-none-eabi/lib/armv7e-m/softfp\libg_nano.a(lib_a-reent.o)
 .text.cleanup_glue
                0x00000000       0x1a c:/program files (x86)/cypress/psoc creator/4.4/psoc creator/import/gnu/arm/5.4.1/bin/../lib/gcc/arm-none-eabi/5.4.1/../../../../arm-none-eabi/lib/armv7e-m/softfp\libg_nano.a(lib_a-reent.o)
 .text._reclaim_reent
                0x00000000       0xb4 c:/program files (x86)/cypress/psoc creator/4.4/psoc creator/import/gnu/arm/5.4.1/bin/../lib/gcc/arm-none-eabi/5.4.1/../../../../arm-none-eabi/lib/armv7e-m/softfp\libg_nano.a(lib_a-reent.o)
 .text          0x00000000        0x0 c:/program files (x86)/cypress/psoc creator/4.4/psoc creator/import/gnu/arm/5.4.1/bin/../lib/gcc/arm-none-eabi/5.4.1/../../../../arm-none-eabi/lib/armv7e-m/softfp\libg_nano.a(lib_a-nano-msizer.o)
 .data          0x00000000        0x0 c:/program files (x86)/cypress/psoc creator/4.4/psoc creator/import/gnu/arm/5.4.1/bin/../lib/gcc/arm-none-eabi/5.4.1/../../../../arm-none-eabi/lib/armv7e-m/softfp\libg_nano.a(lib_a-nano-msizer.o)
 .bss           0x00000000        0x0 c:/program files (x86)/cypress/psoc creator/4.4/psoc creator/import/gnu/arm/5.4.1/bin/../lib/gcc/arm-none-eabi/5.4.1/../../../../arm-none-eabi/lib/armv7e-m/softfp\libg_nano.a(lib_a-nano-msizer.o)
 .data          0x00000000        0x0 c:/program files (x86)/cypress/psoc creator/4.4/psoc creator/import/gnu/arm/5.4.1/bin/../lib/gcc/arm-none-eabi/5.4.1/armv7e-m/softfp\libgcc.a(_arm_unorddf2.o)
 .bss           0x00000000        0x0 c:/program files (x86)/cypress/psoc creator/4.4/psoc creator/import/gnu/arm/5.4.1/bin/../lib/gcc/arm-none-eabi/5.4.1/armv7e-m/softfp\libgcc.a(_arm_unorddf2.o)
 .text          0x00000000        0x0 c:/program files (x86)/cypress/psoc creator/4.4/psoc creator/import/gnu/arm/5.4.1/bin/../lib/gcc/arm-none-eabi/5.4.1/armv7e-m/softfp/crtend.o
 .data          0x00000000        0x0 c:/program files (x86)/cypress/psoc creator/4.4/psoc creator/import/gnu/arm/5.4.1/bin/../lib/gcc/arm-none-eabi/5.4.1/armv7e-m/softfp/crtend.o
 .bss           0x00000000        0x0 c:/program files (x86)/cypress/psoc creator/4.4/psoc creator/import/gnu/arm/5.4.1/bin/../lib/gcc/arm-none-eabi/5.4.1/armv7e-m/softfp/crtend.o
 .text          0x00000000        0x0 c:/program files (x86)/cypress/psoc creator/4.4/psoc creator/import/gnu/arm/5.4.1/bin/../lib/gcc/arm-none-eabi/5.4.1/armv7e-m/softfp/crtn.o
 .data          0x00000000        0x0 c:/program files (x86)/cypress/psoc creator/4.4/psoc creator/import/gnu/arm/5.4.1/bin/../lib/gcc/arm-none-eabi/5.4.1/armv7e-m/softfp/crtn.o
 .bss           0x00000000        0x0 c:/program files (x86)/cypress/psoc creator/4.4/psoc creator/import/gnu/arm/5.4.1/bin/../lib/gcc/arm-none-eabi/5.4.1/armv7e-m/softfp/crtn.o
 .text          0x00000000        0x0 c:/program files (x86)/cypress/psoc creator/4.4/psoc creator/import/gnu/arm/5.4.1/bin/../lib/gcc/arm-none-eabi/5.4.1/../../../../arm-none-eabi/lib/armv7e-m/softfp\libnosys.a(sbrk.o)
 .data          0x00000000        0x0 c:/program files (x86)/cypress/psoc creator/4.4/psoc creator/import/gnu/arm/5.4.1/bin/../lib/gcc/arm-none-eabi/5.4.1/../../../../arm-none-eabi/lib/armv7e-m/softfp\libnosys.a(sbrk.o)
 .bss           0x00000000        0x0 c:/program files (x86)/cypress/psoc creator/4.4/psoc creator/import/gnu/arm/5.4.1/bin/../lib/gcc/arm-none-eabi/5.4.1/../../../../arm-none-eabi/lib/armv7e-m/softfp\libnosys.a(sbrk.o)
 .text          0x00000000        0x0 c:/program files (x86)/cypress/psoc creator/4.4/psoc creator/import/gnu/arm/5.4.1/bin/../lib/gcc/arm-none-eabi/5.4.1/../../../../arm-none-eabi/lib/armv7e-m/softfp\libnosys.a(_exit.o)
 .data          0x00000000        0x0 c:/program files (x86)/cypress/psoc creator/4.4/psoc creator/import/gnu/arm/5.4.1/bin/../lib/gcc/arm-none-eabi/5.4.1/../../../../arm-none-eabi/lib/armv7e-m/softfp\libnosys.a(_exit.o)
 .bss           0x00000000        0x0 c:/program files (x86)/cypress/psoc creator/4.4/psoc creator/import/gnu/arm/5.4.1/bin/../lib/gcc/arm-none-eabi/5.4.1/../../../../arm-none-eabi/lib/armv7e-m/softfp\libnosys.a(_exit.o)
 .text._exit    0x00000000        0x4 c:/program files (x86)/cypress/psoc creator/4.4/psoc creator/import/gnu/arm/5.4.1/bin/../lib/gcc/arm-none-eabi/5.4.1/../../../../arm-none-eabi/lib/armv7e-m/softfp\libnosys.a(_exit.o)
 .debug_frame   0x00000000       0x20 c:/program files (x86)/cypress/psoc creator/4.4/psoc creator/import/gnu/arm/5.4.1/bin/../lib/gcc/arm-none-eabi/5.4.1/../../../../arm-none-eabi/lib/armv7e-m/softfp\libnosys.a(_exit.o)
 .ARM.attributes
                0x00000000       0x32 c:/program files (x86)/cypress/psoc creator/4.4/psoc creator/import/gnu/arm/5.4.1/bin/../lib/gcc/arm-none-eabi/5.4.1/../../../../arm-none-eabi/lib/armv7e-m/softfp\libnosys.a(_exit.o)
 .text          0x00000000        0x0 c:/program files (x86)/cypress/psoc creator/4.4/psoc creator/import/gnu/arm/5.4.1/bin/../lib/gcc/arm-none-eabi/5.4.1/../../../../arm-none-eabi/lib/armv7e-m/softfp\libm.a(lib_a-s_ceil.o)
 .data          0x00000000        0x0 c:/program files (x86)/cypress/psoc creator/4.4/psoc creator/import/gnu/arm/5.4.1/bin/../lib/gcc/arm-none-eabi/5.4.1/../../../../arm-none-eabi/lib/armv7e-m/softfp\libm.a(lib_a-s_ceil.o)
 .bss           0x00000000        0x0 c:/program files (x86)/cypress/psoc creator/4.4/psoc creator/import/gnu/arm/5.4.1/bin/../lib/gcc/arm-none-eabi/5.4.1/../../../../arm-none-eabi/lib/armv7e-m/softfp\libm.a(lib_a-s_ceil.o)
 .text          0x00000000        0x0 c:/program files (x86)/cypress/psoc creator/4.4/psoc creator/import/gnu/arm/5.4.1/bin/../lib/gcc/arm-none-eabi/5.4.1/../../../../arm-none-eabi/lib/armv7e-m/softfp\libm.a(lib_a-s_cos.o)
 .data          0x00000000        0x0 c:/program files (x86)/cypress/psoc creator/4.4/psoc creator/import/gnu/arm/5.4.1/bin/../lib/gcc/arm-none-eabi/5.4.1/../../../../arm-none-eabi/lib/armv7e-m/softfp\libm.a(lib_a-s_cos.o)
 .bss           0x00000000        0x0 c:/program files (x86)/cypress/psoc creator/4.4/psoc creator/import/gnu/arm/5.4.1/bin/../lib/gcc/arm-none-eabi/5.4.1/../../../../arm-none-eabi/lib/armv7e-m/softfp\libm.a(lib_a-s_cos.o)
 .text          0x00000000        0x0 c:/program files (x86)/cypress/psoc creator/4.4/psoc creator/import/gnu/arm/5.4.1/bin/../lib/gcc/arm-none-eabi/5.4.1/../../../../arm-none-eabi/lib/armv7e-m/softfp\libm.a(lib_a-s_floor.o)
 .data          0x00000000        0x0 c:/program files (x86)/cypress/psoc creator/4.4/psoc creator/import/gnu/arm/5.4.1/bin/../lib/gcc/arm-none-eabi/5.4.1/../../../../arm-none-eabi/lib/armv7e-m/softfp\libm.a(lib_a-s_floor.o)
 .bss           0x00000000        0x0 c:/program files (x86)/cypress/psoc creator/4.4/psoc creator/import/gnu/arm/5.4.1/bin/../lib/gcc/arm-none-eabi/5.4.1/../../../../arm-none-eabi/lib/armv7e-m/softfp\libm.a(lib_a-s_floor.o)
 .text          0x00000000        0x0 c:/program files (x86)/cypress/psoc creator/4.4/psoc creator/import/gnu/arm/5.4.1/bin/../lib/gcc/arm-none-eabi/5.4.1/../../../../arm-none-eabi/lib/armv7e-m/softfp\libm.a(lib_a-s_sin.o)
 .data          0x00000000        0x0 c:/program files (x86)/cypress/psoc creator/4.4/psoc creator/import/gnu/arm/5.4.1/bin/../lib/gcc/arm-none-eabi/5.4.1/../../../../arm-none-eabi/lib/armv7e-m/softfp\libm.a(lib_a-s_sin.o)
 .bss           0x00000000        0x0 c:/program files (x86)/cypress/psoc creator/4.4/psoc creator/import/gnu/arm/5.4.1/bin/../lib/gcc/arm-none-eabi/5.4.1/../../../../arm-none-eabi/lib/armv7e-m/softfp\libm.a(lib_a-s_sin.o)
 .text          0x00000000        0x0 c:/program files (x86)/cypress/psoc creator/4.4/psoc creator/import/gnu/arm/5.4.1/bin/../lib/gcc/arm-none-eabi/5.4.1/../../../../arm-none-eabi/lib/armv7e-m/softfp\libm.a(lib_a-sf_ceil.o)
 .data          0x00000000        0x0 c:/program files (x86)/cypress/psoc creator/4.4/psoc creator/import/gnu/arm/5.4.1/bin/../lib/gcc/arm-none-eabi/5.4.1/../../../../arm-none-eabi/lib/armv7e-m/softfp\libm.a(lib_a-sf_ceil.o)
 .bss           0x00000000        0x0 c:/program files (x86)/cypress/psoc creator/4.4/psoc creator/import/gnu/arm/5.4.1/bin/../lib/gcc/arm-none-eabi/5.4.1/../../../../arm-none-eabi/lib/armv7e-m/softfp\libm.a(lib_a-sf_ceil.o)
 .text.ceilf    0x00000000       0xa8 c:/program files (x86)/cypress/psoc creator/4.4/psoc creator/import/gnu/arm/5.4.1/bin/../lib/gcc/arm-none-eabi/5.4.1/../../../../arm-none-eabi/lib/armv7e-m/softfp\libm.a(lib_a-sf_ceil.o)
 .debug_frame   0x00000000       0x38 c:/program files (x86)/cypress/psoc creator/4.4/psoc creator/import/gnu/arm/5.4.1/bin/../lib/gcc/arm-none-eabi/5.4.1/../../../../arm-none-eabi/lib/armv7e-m/softfp\libm.a(lib_a-sf_ceil.o)
 .ARM.attributes
                0x00000000       0x32 c:/program files (x86)/cypress/psoc creator/4.4/psoc creator/import/gnu/arm/5.4.1/bin/../lib/gcc/arm-none-eabi/5.4.1/../../../../arm-none-eabi/lib/armv7e-m/softfp\libm.a(lib_a-sf_ceil.o)
 .text          0x00000000        0x0 c:/program files (x86)/cypress/psoc creator/4.4/psoc creator/import/gnu/arm/5.4.1/bin/../lib/gcc/arm-none-eabi/5.4.1/../../../../arm-none-eabi/lib/armv7e-m/softfp\libm.a(lib_a-w_atan2.o)
 .data          0x00000000        0x0 c:/program files (x86)/cypress/psoc creator/4.4/psoc creator/import/gnu/arm/5.4.1/bin/../lib/gcc/arm-none-eabi/5.4.1/../../../../arm-none-eabi/lib/armv7e-m/softfp\libm.a(lib_a-w_atan2.o)
 .bss           0x00000000        0x0 c:/program files (x86)/cypress/psoc creator/4.4/psoc creator/import/gnu/arm/5.4.1/bin/../lib/gcc/arm-none-eabi/5.4.1/../../../../arm-none-eabi/lib/armv7e-m/softfp\libm.a(lib_a-w_atan2.o)
 .text          0x00000000        0x0 c:/program files (x86)/cypress/psoc creator/4.4/psoc creator/import/gnu/arm/5.4.1/bin/../lib/gcc/arm-none-eabi/5.4.1/../../../../arm-none-eabi/lib/armv7e-m/softfp\libm.a(lib_a-w_log.o)
 .data          0x00000000        0x0 c:/program files (x86)/cypress/psoc creator/4.4/psoc creator/import/gnu/arm/5.4.1/bin/../lib/gcc/arm-none-eabi/5.4.1/../../../../arm-none-eabi/lib/armv7e-m/softfp\libm.a(lib_a-w_log.o)
 .bss           0x00000000        0x0 c:/program files (x86)/cypress/psoc creator/4.4/psoc creator/import/gnu/arm/5.4.1/bin/../lib/gcc/arm-none-eabi/5.4.1/../../../../arm-none-eabi/lib/armv7e-m/softfp\libm.a(lib_a-w_log.o)
 .text.log      0x00000000      0x100 c:/program files (x86)/cypress/psoc creator/4.4/psoc creator/import/gnu/arm/5.4.1/bin/../lib/gcc/arm-none-eabi/5.4.1/../../../../arm-none-eabi/lib/armv7e-m/softfp\libm.a(lib_a-w_log.o)
 .rodata.str1.4
                0x00000000        0x5 c:/program files (x86)/cypress/psoc creator/4.4/psoc creator/import/gnu/arm/5.4.1/bin/../lib/gcc/arm-none-eabi/5.4.1/../../../../arm-none-eabi/lib/armv7e-m/softfp\libm.a(lib_a-w_log.o)
 .debug_frame   0x00000000       0x40 c:/program files (x86)/cypress/psoc creator/4.4/psoc creator/import/gnu/arm/5.4.1/bin/../lib/gcc/arm-none-eabi/5.4.1/../../../../arm-none-eabi/lib/armv7e-m/softfp\libm.a(lib_a-w_log.o)
 .ARM.attributes
                0x00000000       0x32 c:/program files (x86)/cypress/psoc creator/4.4/psoc creator/import/gnu/arm/5.4.1/bin/../lib/gcc/arm-none-eabi/5.4.1/../../../../arm-none-eabi/lib/armv7e-m/softfp\libm.a(lib_a-w_log.o)
 .text          0x00000000        0x0 c:/program files (x86)/cypress/psoc creator/4.4/psoc creator/import/gnu/arm/5.4.1/bin/../lib/gcc/arm-none-eabi/5.4.1/../../../../arm-none-eabi/lib/armv7e-m/softfp\libm.a(lib_a-w_sqrt.o)
 .data          0x00000000        0x0 c:/program files (x86)/cypress/psoc creator/4.4/psoc creator/import/gnu/arm/5.4.1/bin/../lib/gcc/arm-none-eabi/5.4.1/../../../../arm-none-eabi/lib/armv7e-m/softfp\libm.a(lib_a-w_sqrt.o)
 .bss           0x00000000        0x0 c:/program files (x86)/cypress/psoc creator/4.4/psoc creator/import/gnu/arm/5.4.1/bin/../lib/gcc/arm-none-eabi/5.4.1/../../../../arm-none-eabi/lib/armv7e-m/softfp\libm.a(lib_a-w_sqrt.o)
 .text          0x00000000        0x0 c:/program files (x86)/cypress/psoc creator/4.4/psoc creator/import/gnu/arm/5.4.1/bin/../lib/gcc/arm-none-eabi/5.4.1/../../../../arm-none-eabi/lib/armv7e-m/softfp\libm.a(lib_a-e_atan2.o)
 .data          0x00000000        0x0 c:/program files (x86)/cypress/psoc creator/4.4/psoc creator/import/gnu/arm/5.4.1/bin/../lib/gcc/arm-none-eabi/5.4.1/../../../../arm-none-eabi/lib/armv7e-m/softfp\libm.a(lib_a-e_atan2.o)
 .bss           0x00000000        0x0 c:/program files (x86)/cypress/psoc creator/4.4/psoc creator/import/gnu/arm/5.4.1/bin/../lib/gcc/arm-none-eabi/5.4.1/../../../../arm-none-eabi/lib/armv7e-m/softfp\libm.a(lib_a-e_atan2.o)
 .text          0x00000000        0x0 c:/program files (x86)/cypress/psoc creator/4.4/psoc creator/import/gnu/arm/5.4.1/bin/../lib/gcc/arm-none-eabi/5.4.1/../../../../arm-none-eabi/lib/armv7e-m/softfp\libm.a(lib_a-e_log.o)
 .data          0x00000000        0x0 c:/program files (x86)/cypress/psoc creator/4.4/psoc creator/import/gnu/arm/5.4.1/bin/../lib/gcc/arm-none-eabi/5.4.1/../../../../arm-none-eabi/lib/armv7e-m/softfp\libm.a(lib_a-e_log.o)
 .bss           0x00000000        0x0 c:/program files (x86)/cypress/psoc creator/4.4/psoc creator/import/gnu/arm/5.4.1/bin/../lib/gcc/arm-none-eabi/5.4.1/../../../../arm-none-eabi/lib/armv7e-m/softfp\libm.a(lib_a-e_log.o)
 .text.__ieee754_log
                0x00000000      0x3e8 c:/program files (x86)/cypress/psoc creator/4.4/psoc creator/import/gnu/arm/5.4.1/bin/../lib/gcc/arm-none-eabi/5.4.1/../../../../arm-none-eabi/lib/armv7e-m/softfp\libm.a(lib_a-e_log.o)
 .debug_frame   0x00000000       0x54 c:/program files (x86)/cypress/psoc creator/4.4/psoc creator/import/gnu/arm/5.4.1/bin/../lib/gcc/arm-none-eabi/5.4.1/../../../../arm-none-eabi/lib/armv7e-m/softfp\libm.a(lib_a-e_log.o)
 .ARM.attributes
                0x00000000       0x32 c:/program files (x86)/cypress/psoc creator/4.4/psoc creator/import/gnu/arm/5.4.1/bin/../lib/gcc/arm-none-eabi/5.4.1/../../../../arm-none-eabi/lib/armv7e-m/softfp\libm.a(lib_a-e_log.o)
 .text          0x00000000        0x0 c:/program files (x86)/cypress/psoc creator/4.4/psoc creator/import/gnu/arm/5.4.1/bin/../lib/gcc/arm-none-eabi/5.4.1/../../../../arm-none-eabi/lib/armv7e-m/softfp\libm.a(lib_a-e_rem_pio2.o)
 .data          0x00000000        0x0 c:/program files (x86)/cypress/psoc creator/4.4/psoc creator/import/gnu/arm/5.4.1/bin/../lib/gcc/arm-none-eabi/5.4.1/../../../../arm-none-eabi/lib/armv7e-m/softfp\libm.a(lib_a-e_rem_pio2.o)
 .bss           0x00000000        0x0 c:/program files (x86)/cypress/psoc creator/4.4/psoc creator/import/gnu/arm/5.4.1/bin/../lib/gcc/arm-none-eabi/5.4.1/../../../../arm-none-eabi/lib/armv7e-m/softfp\libm.a(lib_a-e_rem_pio2.o)
 .text          0x00000000        0x0 c:/program files (x86)/cypress/psoc creator/4.4/psoc creator/import/gnu/arm/5.4.1/bin/../lib/gcc/arm-none-eabi/5.4.1/../../../../arm-none-eabi/lib/armv7e-m/softfp\libm.a(lib_a-e_sqrt.o)
 .data          0x00000000        0x0 c:/program files (x86)/cypress/psoc creator/4.4/psoc creator/import/gnu/arm/5.4.1/bin/../lib/gcc/arm-none-eabi/5.4.1/../../../../arm-none-eabi/lib/armv7e-m/softfp\libm.a(lib_a-e_sqrt.o)
 .bss           0x00000000        0x0 c:/program files (x86)/cypress/psoc creator/4.4/psoc creator/import/gnu/arm/5.4.1/bin/../lib/gcc/arm-none-eabi/5.4.1/../../../../arm-none-eabi/lib/armv7e-m/softfp\libm.a(lib_a-e_sqrt.o)
 .text          0x00000000        0x0 c:/program files (x86)/cypress/psoc creator/4.4/psoc creator/import/gnu/arm/5.4.1/bin/../lib/gcc/arm-none-eabi/5.4.1/../../../../arm-none-eabi/lib/armv7e-m/softfp\libm.a(lib_a-k_cos.o)
 .data          0x00000000        0x0 c:/program files (x86)/cypress/psoc creator/4.4/psoc creator/import/gnu/arm/5.4.1/bin/../lib/gcc/arm-none-eabi/5.4.1/../../../../arm-none-eabi/lib/armv7e-m/softfp\libm.a(lib_a-k_cos.o)
 .bss           0x00000000        0x0 c:/program files (x86)/cypress/psoc creator/4.4/psoc creator/import/gnu/arm/5.4.1/bin/../lib/gcc/arm-none-eabi/5.4.1/../../../../arm-none-eabi/lib/armv7e-m/softfp\libm.a(lib_a-k_cos.o)
 .text          0x00000000        0x0 c:/program files (x86)/cypress/psoc creator/4.4/psoc creator/import/gnu/arm/5.4.1/bin/../lib/gcc/arm-none-eabi/5.4.1/../../../../arm-none-eabi/lib/armv7e-m/softfp\libm.a(lib_a-k_rem_pio2.o)
 .data          0x00000000        0x0 c:/program files (x86)/cypress/psoc creator/4.4/psoc creator/import/gnu/arm/5.4.1/bin/../lib/gcc/arm-none-eabi/5.4.1/../../../../arm-none-eabi/lib/armv7e-m/softfp\libm.a(lib_a-k_rem_pio2.o)
 .bss           0x00000000        0x0 c:/program files (x86)/cypress/psoc creator/4.4/psoc creator/import/gnu/arm/5.4.1/bin/../lib/gcc/arm-none-eabi/5.4.1/../../../../arm-none-eabi/lib/armv7e-m/softfp\libm.a(lib_a-k_rem_pio2.o)
 .text          0x00000000        0x0 c:/program files (x86)/cypress/psoc creator/4.4/psoc creator/import/gnu/arm/5.4.1/bin/../lib/gcc/arm-none-eabi/5.4.1/../../../../arm-none-eabi/lib/armv7e-m/softfp\libm.a(lib_a-k_sin.o)
 .data          0x00000000        0x0 c:/program files (x86)/cypress/psoc creator/4.4/psoc creator/import/gnu/arm/5.4.1/bin/../lib/gcc/arm-none-eabi/5.4.1/../../../../arm-none-eabi/lib/armv7e-m/softfp\libm.a(lib_a-k_sin.o)
 .bss           0x00000000        0x0 c:/program files (x86)/cypress/psoc creator/4.4/psoc creator/import/gnu/arm/5.4.1/bin/../lib/gcc/arm-none-eabi/5.4.1/../../../../arm-none-eabi/lib/armv7e-m/softfp\libm.a(lib_a-k_sin.o)
 .text          0x00000000        0x0 c:/program files (x86)/cypress/psoc creator/4.4/psoc creator/import/gnu/arm/5.4.1/bin/../lib/gcc/arm-none-eabi/5.4.1/../../../../arm-none-eabi/lib/armv7e-m/softfp\libm.a(lib_a-s_atan.o)
 .data          0x00000000        0x0 c:/program files (x86)/cypress/psoc creator/4.4/psoc creator/import/gnu/arm/5.4.1/bin/../lib/gcc/arm-none-eabi/5.4.1/../../../../arm-none-eabi/lib/armv7e-m/softfp\libm.a(lib_a-s_atan.o)
 .bss           0x00000000        0x0 c:/program files (x86)/cypress/psoc creator/4.4/psoc creator/import/gnu/arm/5.4.1/bin/../lib/gcc/arm-none-eabi/5.4.1/../../../../arm-none-eabi/lib/armv7e-m/softfp\libm.a(lib_a-s_atan.o)
 .text          0x00000000        0x0 c:/program files (x86)/cypress/psoc creator/4.4/psoc creator/import/gnu/arm/5.4.1/bin/../lib/gcc/arm-none-eabi/5.4.1/../../../../arm-none-eabi/lib/armv7e-m/softfp\libm.a(lib_a-s_fabs.o)
 .data          0x00000000        0x0 c:/program files (x86)/cypress/psoc creator/4.4/psoc creator/import/gnu/arm/5.4.1/bin/../lib/gcc/arm-none-eabi/5.4.1/../../../../arm-none-eabi/lib/armv7e-m/softfp\libm.a(lib_a-s_fabs.o)
 .bss           0x00000000        0x0 c:/program files (x86)/cypress/psoc creator/4.4/psoc creator/import/gnu/arm/5.4.1/bin/../lib/gcc/arm-none-eabi/5.4.1/../../../../arm-none-eabi/lib/armv7e-m/softfp\libm.a(lib_a-s_fabs.o)
 .text          0x00000000        0x0 c:/program files (x86)/cypress/psoc creator/4.4/psoc creator/import/gnu/arm/5.4.1/bin/../lib/gcc/arm-none-eabi/5.4.1/../../../../arm-none-eabi/lib/armv7e-m/softfp\libm.a(lib_a-s_lib_ver.o)
 .data          0x00000000        0x0 c:/program files (x86)/cypress/psoc creator/4.4/psoc creator/import/gnu/arm/5.4.1/bin/../lib/gcc/arm-none-eabi/5.4.1/../../../../arm-none-eabi/lib/armv7e-m/softfp\libm.a(lib_a-s_lib_ver.o)
 .bss           0x00000000        0x0 c:/program files (x86)/cypress/psoc creator/4.4/psoc creator/import/gnu/arm/5.4.1/bin/../lib/gcc/arm-none-eabi/5.4.1/../../../../arm-none-eabi/lib/armv7e-m/softfp\libm.a(lib_a-s_lib_ver.o)
 .text          0x00000000        0x0 c:/program files (x86)/cypress/psoc creator/4.4/psoc creator/import/gnu/arm/5.4.1/bin/../lib/gcc/arm-none-eabi/5.4.1/../../../../arm-none-eabi/lib/armv7e-m/softfp\libm.a(lib_a-s_matherr.o)
 .data          0x00000000        0x0 c:/program files (x86)/cypress/psoc creator/4.4/psoc creator/import/gnu/arm/5.4.1/bin/../lib/gcc/arm-none-eabi/5.4.1/../../../../arm-none-eabi/lib/armv7e-m/softfp\libm.a(lib_a-s_matherr.o)
 .bss           0x00000000        0x0 c:/program files (x86)/cypress/psoc creator/4.4/psoc creator/import/gnu/arm/5.4.1/bin/../lib/gcc/arm-none-eabi/5.4.1/../../../../arm-none-eabi/lib/armv7e-m/softfp\libm.a(lib_a-s_matherr.o)
 .text          0x00000000        0x0 c:/program files (x86)/cypress/psoc creator/4.4/psoc creator/import/gnu/arm/5.4.1/bin/../lib/gcc/arm-none-eabi/5.4.1/../../../../arm-none-eabi/lib/armv7e-m/softfp\libm.a(lib_a-s_nan.o)
 .data          0x00000000        0x0 c:/program files (x86)/cypress/psoc creator/4.4/psoc creator/import/gnu/arm/5.4.1/bin/../lib/gcc/arm-none-eabi/5.4.1/../../../../arm-none-eabi/lib/armv7e-m/softfp\libm.a(lib_a-s_nan.o)
 .bss           0x00000000        0x0 c:/program files (x86)/cypress/psoc creator/4.4/psoc creator/import/gnu/arm/5.4.1/bin/../lib/gcc/arm-none-eabi/5.4.1/../../../../arm-none-eabi/lib/armv7e-m/softfp\libm.a(lib_a-s_nan.o)
 .text.nan      0x00000000        0xc c:/program files (x86)/cypress/psoc creator/4.4/psoc creator/import/gnu/arm/5.4.1/bin/../lib/gcc/arm-none-eabi/5.4.1/../../../../arm-none-eabi/lib/armv7e-m/softfp\libm.a(lib_a-s_nan.o)
 .debug_frame   0x00000000       0x20 c:/program files (x86)/cypress/psoc creator/4.4/psoc creator/import/gnu/arm/5.4.1/bin/../lib/gcc/arm-none-eabi/5.4.1/../../../../arm-none-eabi/lib/armv7e-m/softfp\libm.a(lib_a-s_nan.o)
 .ARM.attributes
                0x00000000       0x32 c:/program files (x86)/cypress/psoc creator/4.4/psoc creator/import/gnu/arm/5.4.1/bin/../lib/gcc/arm-none-eabi/5.4.1/../../../../arm-none-eabi/lib/armv7e-m/softfp\libm.a(lib_a-s_nan.o)
 .text          0x00000000        0x0 c:/program files (x86)/cypress/psoc creator/4.4/psoc creator/import/gnu/arm/5.4.1/bin/../lib/gcc/arm-none-eabi/5.4.1/../../../../arm-none-eabi/lib/armv7e-m/softfp\libm.a(lib_a-s_scalbn.o)
 .data          0x00000000        0x0 c:/program files (x86)/cypress/psoc creator/4.4/psoc creator/import/gnu/arm/5.4.1/bin/../lib/gcc/arm-none-eabi/5.4.1/../../../../arm-none-eabi/lib/armv7e-m/softfp\libm.a(lib_a-s_scalbn.o)
 .bss           0x00000000        0x0 c:/program files (x86)/cypress/psoc creator/4.4/psoc creator/import/gnu/arm/5.4.1/bin/../lib/gcc/arm-none-eabi/5.4.1/../../../../arm-none-eabi/lib/armv7e-m/softfp\libm.a(lib_a-s_scalbn.o)
 .text          0x00000000        0x0 c:/program files (x86)/cypress/psoc creator/4.4/psoc creator/import/gnu/arm/5.4.1/bin/../lib/gcc/arm-none-eabi/5.4.1/../../../../arm-none-eabi/lib/armv7e-m/softfp\libm.a(lib_a-s_copysign.o)
 .data          0x00000000        0x0 c:/program files (x86)/cypress/psoc creator/4.4/psoc creator/import/gnu/arm/5.4.1/bin/../lib/gcc/arm-none-eabi/5.4.1/../../../../arm-none-eabi/lib/armv7e-m/softfp\libm.a(lib_a-s_copysign.o)
 .bss           0x00000000        0x0 c:/program files (x86)/cypress/psoc creator/4.4/psoc creator/import/gnu/arm/5.4.1/bin/../lib/gcc/arm-none-eabi/5.4.1/../../../../arm-none-eabi/lib/armv7e-m/softfp\libm.a(lib_a-s_copysign.o)
 .text          0x00000000        0x0 c:/program files (x86)/cypress/psoc creator/4.4/psoc creator/import/gnu/arm/5.4.1/bin/../lib/gcc/arm-none-eabi/5.4.1/../../../../arm-none-eabi/lib/armv7e-m/softfp\libc.a(lib_a-errno.o)
 .data          0x00000000        0x0 c:/program files (x86)/cypress/psoc creator/4.4/psoc creator/import/gnu/arm/5.4.1/bin/../lib/gcc/arm-none-eabi/5.4.1/../../../../arm-none-eabi/lib/armv7e-m/softfp\libc.a(lib_a-errno.o)
 .bss           0x00000000        0x0 c:/program files (x86)/cypress/psoc creator/4.4/psoc creator/import/gnu/arm/5.4.1/bin/../lib/gcc/arm-none-eabi/5.4.1/../../../../arm-none-eabi/lib/armv7e-m/softfp\libc.a(lib_a-errno.o)

Memory Configuration

Name             Origin             Length             Attributes
ram              0x08024000         0x00023800         xrw
flash            0x10080000         0x00080000         xr
em_eeprom        0x14000000         0x00008000         xr
sflash_user_data 0x16000800         0x00000800         xr
sflash_nar       0x16001a00         0x00000200         xr
sflash_public_key 0x16005a00         0x00000c00         xr
sflash_toc_2     0x16007c00         0x00000200         xr
sflash_rtoc_2    0x16007e00         0x00000200         xr
xip              0x18000000         0x08000000         xr
efuse            0x90700000         0x00100000         r
*default*        0x00000000         0xffffffff

Linker script and memory map

LOAD c:/program files (x86)/cypress/psoc creator/4.4/psoc creator/import/gnu/arm/5.4.1/bin/../lib/gcc/arm-none-eabi/5.4.1/armv7e-m/softfp/crti.o
LOAD c:/program files (x86)/cypress/psoc creator/4.4/psoc creator/import/gnu/arm/5.4.1/bin/../lib/gcc/arm-none-eabi/5.4.1/armv7e-m/softfp/crtbegin.o
LOAD c:/program files (x86)/cypress/psoc creator/4.4/psoc creator/import/gnu/arm/5.4.1/bin/../lib/gcc/arm-none-eabi/5.4.1/../../../../arm-none-eabi/lib/armv7e-m/softfp/crt0.o
START GROUP
LOAD .\CortexM4\ARM_GCC_541\Release\startup_psoc6_01_cm4.o
LOAD .\CortexM4\ARM_GCC_541\Release\main_cm4.o
LOAD .\CortexM4\ARM_GCC_541\Release\system_psoc6_cm4.o
LOAD .\CortexM4\ARM_GCC_541\Release\light_sensor.o
LOAD .\CortexM4\ARM_GCC_541\Release\control.o
LOAD .\CortexM4\ARM_GCC_541\Release\encoder.o
LOAD .\CortexM4\ARM_GCC_541\Release\odometry.o
LOAD .\CortexM4\ARM_GCC_541\Release\HC-SR04.o
LOAD .\CortexM4\ARM_GCC_541\Release\cyfitter_sysint_cfg.o
LOAD .\CortexM4\ARM_GCC_541\Release\cymetadata.o
LOAD .\CortexM4\ARM_GCC_541\Release\UART_1.o
LOAD .\CortexM4\ARM_GCC_541\Release\cy_efuse.o
LOAD .\CortexM4\ARM_GCC_541\Release\cy_flash.o
LOAD .\CortexM4\ARM_GCC_541\Release\cy_gpio.o
LOAD .\CortexM4\ARM_GCC_541\Release\cy_ipc_drv.o
LOAD .\CortexM4\ARM_GCC_541\Release\cy_ipc_sema.o
LOAD .\CortexM4\ARM_GCC_541\Release\cy_ipc_pipe.o
LOAD .\CortexM4\ARM_GCC_541\Release\cy_lvd.o
LOAD .\CortexM4\ARM_GCC_541\Release\cy_profile.o
LOAD .\CortexM4\ARM_GCC_541\Release\cy_prot.o
LOAD .\CortexM4\ARM_GCC_541\Release\cy_scb_common.o
LOAD .\CortexM4\ARM_GCC_541\Release\cy_scb_i2c.o
LOAD .\CortexM4\ARM_GCC_541\Release\cy_scb_ezi2c.o
LOAD .\CortexM4\ARM_GCC_541\Release\cy_scb_spi.o
LOAD .\CortexM4\ARM_GCC_541\Release\cy_scb_uart.o
LOAD .\CortexM4\ARM_GCC_541\Release\cy_sysanalog.o
LOAD .\CortexM4\ARM_GCC_541\Release\cy_sysclk.o
LOAD .\CortexM4\ARM_GCC_541\Release\cy_sysint.o
LOAD .\CortexM4\ARM_GCC_541\Release\cy_syslib.o
LOAD .\CortexM4\ARM_GCC_541\Release\cy_syslib_gcc.o
LOAD .\CortexM4\ARM_GCC_541\Release\cy_syspm.o
LOAD .\CortexM4\ARM_GCC_541\Release\cy_systick.o
LOAD .\CortexM4\ARM_GCC_541\Release\cy_trigmux.o
LOAD .\CortexM4\ARM_GCC_541\Release\cy_wdt.o
LOAD .\CortexM4\ARM_GCC_541\Release\cy_device.o
LOAD .\CortexM4\ARM_GCC_541\Release\cy_tcpwm_counter.o
LOAD .\CortexM4\ARM_GCC_541\Release\cy_tcpwm_pwm.o
LOAD .\CortexM4\ARM_GCC_541\Release\cy_tcpwm_quaddec.o
LOAD .\CortexM4\ARM_GCC_541\Release\cy_sar.o
LOAD .\CortexM4\ARM_GCC_541\Release\cy_ble_clk.o
LOAD .\CortexM4\ARM_GCC_541\Release\Counter_1.o
LOAD .\CortexM4\ARM_GCC_541\Release\PWM_L.o
LOAD .\CortexM4\ARM_GCC_541\Release\PWM_R.o
LOAD .\CortexM4\ARM_GCC_541\Release\Counter_2.o
LOAD .\CortexM4\ARM_GCC_541\Release\Counter_3.o
LOAD .\CortexM4\ARM_GCC_541\Release\ADC_1.o
LOAD .\CortexM4\ARM_GCC_541\Release\ADC_1_INT.o
LOAD .\CortexM4\ARM_GCC_541\Release\ADC_1_INIT.o
LOAD .\CortexM4\ARM_GCC_541\Release\ADC_1_PM.o
LOAD .\CortexM4\ARM_GCC_541\Release\Counter_4.o
END GROUP
START GROUP
LOAD c:/program files (x86)/cypress/psoc creator/4.4/psoc creator/import/gnu/arm/5.4.1/bin/../lib/gcc/arm-none-eabi/5.4.1/armv7e-m/softfp\libgcc.a
LOAD c:/program files (x86)/cypress/psoc creator/4.4/psoc creator/import/gnu/arm/5.4.1/bin/../lib/gcc/arm-none-eabi/5.4.1/../../../../arm-none-eabi/lib/armv7e-m/softfp\libg_nano.a
LOAD c:/program files (x86)/cypress/psoc creator/4.4/psoc creator/import/gnu/arm/5.4.1/bin/../lib/gcc/arm-none-eabi/5.4.1/../../../../arm-none-eabi/lib/armv7e-m/softfp\libc_nano.a
END GROUP
START GROUP
LOAD c:/program files (x86)/cypress/psoc creator/4.4/psoc creator/import/gnu/arm/5.4.1/bin/../lib/gcc/arm-none-eabi/5.4.1/armv7e-m/softfp\libgcc.a
LOAD c:/program files (x86)/cypress/psoc creator/4.4/psoc creator/import/gnu/arm/5.4.1/bin/../lib/gcc/arm-none-eabi/5.4.1/../../../../arm-none-eabi/lib/armv7e-m/softfp\libc_nano.a
END GROUP
LOAD c:/program files (x86)/cypress/psoc creator/4.4/psoc creator/import/gnu/arm/5.4.1/bin/../lib/gcc/arm-none-eabi/5.4.1/armv7e-m/softfp/crtend.o
LOAD c:/program files (x86)/cypress/psoc creator/4.4/psoc creator/import/gnu/arm/5.4.1/bin/../lib/gcc/arm-none-eabi/5.4.1/armv7e-m/softfp/crtn.o
START GROUP
LOAD c:/program files (x86)/cypress/psoc creator/4.4/psoc creator/import/gnu/arm/5.4.1/bin/../lib/gcc/arm-none-eabi/5.4.1/armv7e-m/softfp\libgcc.a
LOAD c:/program files (x86)/cypress/psoc creator/4.4/psoc creator/import/gnu/arm/5.4.1/bin/../lib/gcc/arm-none-eabi/5.4.1/../../../../arm-none-eabi/lib/armv7e-m/softfp\libc.a
LOAD c:/program files (x86)/cypress/psoc creator/4.4/psoc creator/import/gnu/arm/5.4.1/bin/../lib/gcc/arm-none-eabi/5.4.1/../../../../arm-none-eabi/lib/armv7e-m/softfp\libnosys.a
END GROUP
START GROUP
LOAD c:/program files (x86)/cypress/psoc creator/4.4/psoc creator/import/gnu/arm/5.4.1/bin/../lib/gcc/arm-none-eabi/5.4.1/armv7e-m/softfp\libgcc.a
LOAD c:/program files (x86)/cypress/psoc creator/4.4/psoc creator/import/gnu/arm/5.4.1/bin/../lib/gcc/arm-none-eabi/5.4.1/../../../../arm-none-eabi/lib/armv7e-m/softfp\libc.a
LOAD c:/program files (x86)/cypress/psoc creator/4.4/psoc creator/import/gnu/arm/5.4.1/bin/../lib/gcc/arm-none-eabi/5.4.1/../../../../arm-none-eabi/lib/armv7e-m/softfp\libm.a
LOAD c:/program files (x86)/cypress/psoc creator/4.4/psoc creator/import/gnu/arm/5.4.1/bin/../lib/gcc/arm-none-eabi/5.4.1/../../../../arm-none-eabi/lib/armv7e-m/softfp\libnosys.a
END GROUP

.text           0x10080000     0x77ac
                0x10080000                . = ALIGN (0x4)
                0x10080000                __Vectors = .
 *(.vectors)
 .vectors       0x10080000      0x28c .\CortexM4\ARM_GCC_541\Release\startup_psoc6_01_cm4.o
                0x1008028c                . = ALIGN (0x4)
                0x1008028c                __Vectors_End = .
                0x0000028c                __Vectors_Size = (__Vectors_End - __Vectors)
                0x1008028c                __end__ = .
                0x1008028c                . = ALIGN (0x4)
 *(.text*)
 .text          0x1008028c       0x5c c:/program files (x86)/cypress/psoc creator/4.4/psoc creator/import/gnu/arm/5.4.1/bin/../lib/gcc/arm-none-eabi/5.4.1/armv7e-m/softfp/crtbegin.o
 .text          0x100802e8       0x84 .\CortexM4\ARM_GCC_541\Release\startup_psoc6_01_cm4.o
                0x100802e8                Cy_OnResetUser
                0x100802ea                Reset_Handler
                0x1008034c                cpuss_interrupts_ipc_6_IRQHandler
                0x1008034c                DebugMon_Handler
                0x1008034c                tcpwm_1_interrupts_11_IRQHandler
                0x1008034c                cpuss_interrupts_ipc_0_IRQHandler
                0x1008034c                tcpwm_1_interrupts_15_IRQHandler
                0x1008034c                ioss_interrupts_gpio_13_IRQHandler
                0x1008034c                tcpwm_1_interrupts_13_IRQHandler
                0x1008034c                cpuss_interrupts_dw1_8_IRQHandler
                0x1008034c                tcpwm_0_interrupts_0_IRQHandler
                0x1008034c                SysTick_Handler
                0x1008034c                cpuss_interrupt_fm_IRQHandler
                0x1008034c                cpuss_interrupts_ipc_7_IRQHandler
                0x1008034c                tcpwm_1_interrupts_14_IRQHandler
                0x1008034c                cpuss_interrupts_dw0_5_IRQHandler
                0x1008034c                tcpwm_1_interrupts_9_IRQHandler
                0x1008034c                cpuss_interrupts_cm0_cti_1_IRQHandler
                0x1008034c                tcpwm_1_interrupts_22_IRQHandler
                0x1008034c                cpuss_interrupts_dw0_4_IRQHandler
                0x1008034c                PendSV_Handler
                0x1008034c                NMI_Handler
                0x1008034c                cpuss_interrupts_dw1_12_IRQHandler
                0x1008034c                tcpwm_1_interrupts_12_IRQHandler
                0x1008034c                smif_interrupt_IRQHandler
                0x1008034c                tcpwm_1_interrupts_2_IRQHandler
                0x1008034c                cpuss_interrupts_ipc_13_IRQHandler
                0x1008034c                udb_interrupts_11_IRQHandler
                0x1008034c                tcpwm_1_interrupts_18_IRQHandler
                0x1008034c                cpuss_interrupts_dw0_11_IRQHandler
                0x1008034c                tcpwm_0_interrupts_2_IRQHandler
                0x1008034c                cpuss_interrupts_dw0_13_IRQHandler
                0x1008034c                udb_interrupts_2_IRQHandler
                0x1008034c                cpuss_interrupts_dw1_7_IRQHandler
                0x1008034c                ioss_interrupts_gpio_1_IRQHandler
                0x1008034c                ioss_interrupts_gpio_7_IRQHandler
                0x1008034c                scb_5_interrupt_IRQHandler
                0x1008034c                udb_interrupts_6_IRQHandler
                0x1008034c                cpuss_interrupts_fault_1_IRQHandler
                0x1008034c                cpuss_interrupts_ipc_4_IRQHandler
                0x1008034c                cpuss_interrupts_ipc_5_IRQHandler
                0x1008034c                cpuss_interrupts_dw1_10_IRQHandler
                0x1008034c                udb_interrupts_0_IRQHandler
                0x1008034c                tcpwm_1_interrupts_6_IRQHandler
                0x1008034c                scb_4_interrupt_IRQHandler
                0x1008034c                pass_interrupt_dacs_IRQHandler
                0x1008034c                ioss_interrupts_gpio_2_IRQHandler
                0x1008034c                cpuss_interrupts_dw1_9_IRQHandler
                0x1008034c                cpuss_interrupts_dw1_13_IRQHandler
                0x1008034c                scb_2_interrupt_IRQHandler
                0x1008034c                cpuss_interrupts_cm0_cti_0_IRQHandler
                0x1008034c                udb_interrupts_5_IRQHandler
                0x1008034c                srss_interrupt_IRQHandler
                0x1008034c                udb_interrupts_12_IRQHandler
                0x1008034c                scb_0_interrupt_IRQHandler
                0x1008034c                csd_interrupt_IRQHandler
                0x1008034c                udb_interrupts_1_IRQHandler
                0x1008034c                profile_interrupt_IRQHandler
                0x1008034c                tcpwm_1_interrupts_1_IRQHandler
                0x1008034c                cpuss_interrupts_ipc_12_IRQHandler
                0x1008034c                tcpwm_1_interrupts_3_IRQHandler
                0x1008034c                tcpwm_0_interrupts_7_IRQHandler
                0x1008034c                cpuss_interrupts_dw1_1_IRQHandler
                0x1008034c                cpuss_interrupts_dw1_0_IRQHandler
                0x1008034c                cpuss_interrupts_dw0_9_IRQHandler
                0x1008034c                lpcomp_interrupt_IRQHandler
                0x1008034c                tcpwm_1_interrupts_23_IRQHandler
                0x1008034c                udb_interrupts_4_IRQHandler
                0x1008034c                tcpwm_1_interrupts_20_IRQHandler
                0x1008034c                ioss_interrupt_gpio_IRQHandler
                0x1008034c                tcpwm_0_interrupts_1_IRQHandler
                0x1008034c                ioss_interrupts_gpio_8_IRQHandler
                0x1008034c                tcpwm_0_interrupts_6_IRQHandler
                0x1008034c                scb_7_interrupt_IRQHandler
                0x1008034c                tcpwm_1_interrupts_7_IRQHandler
                0x1008034c                cpuss_interrupts_ipc_11_IRQHandler
                0x1008034c                udb_interrupts_13_IRQHandler
                0x1008034c                cpuss_interrupts_dw0_15_IRQHandler
                0x1008034c                udb_interrupts_7_IRQHandler
                0x1008034c                cpuss_interrupts_dw1_6_IRQHandler
                0x1008034c                cpuss_interrupt_crypto_IRQHandler
                0x1008034c                scb_1_interrupt_IRQHandler
                0x1008034c                Default_Handler
                0x1008034c                usb_interrupt_hi_IRQHandler
                0x1008034c                tcpwm_1_interrupts_0_IRQHandler
                0x1008034c                udb_interrupts_9_IRQHandler
                0x1008034c                audioss_interrupt_pdm_IRQHandler
                0x1008034c                srss_interrupt_mcwdt_0_IRQHandler
                0x1008034c                scb_3_interrupt_IRQHandler
                0x1008034c                pass_interrupt_ctbs_IRQHandler
                0x1008034c                udb_interrupts_8_IRQHandler
                0x1008034c                ioss_interrupts_gpio_3_IRQHandler
                0x1008034c                scb_6_interrupt_IRQHandler
                0x1008034c                cpuss_interrupts_cm4_cti_0_IRQHandler
                0x1008034c                cpuss_interrupts_dw1_3_IRQHandler
                0x1008034c                pass_interrupt_sar_IRQHandler
                0x1008034c                ioss_interrupts_gpio_0_IRQHandler
                0x1008034c                ioss_interrupts_gpio_14_IRQHandler
                0x1008034c                tcpwm_0_interrupts_4_IRQHandler
                0x1008034c                udb_interrupts_3_IRQHandler
                0x1008034c                tcpwm_0_interrupts_5_IRQHandler
                0x1008034c                cpuss_interrupts_ipc_15_IRQHandler
                0x1008034c                cpuss_interrupts_cm4_cti_1_IRQHandler
                0x1008034c                scb_8_interrupt_IRQHandler
                0x1008034c                srss_interrupt_mcwdt_1_IRQHandler
                0x1008034c                cpuss_interrupts_dw1_2_IRQHandler
                0x1008034c                SVC_Handler
                0x1008034c                cpuss_interrupts_dw1_5_IRQHandler
                0x1008034c                cpuss_interrupts_ipc_1_IRQHandler
                0x1008034c                cpuss_interrupts_dw0_0_IRQHandler
                0x1008034c                ioss_interrupts_gpio_12_IRQHandler
                0x1008034c                cpuss_interrupts_ipc_3_IRQHandler
                0x1008034c                tcpwm_1_interrupts_17_IRQHandler
                0x1008034c                srss_interrupt_backup_IRQHandler
                0x1008034c                bless_interrupt_IRQHandler
                0x1008034c                cpuss_interrupts_ipc_10_IRQHandler
                0x1008034c                cpuss_interrupts_ipc_9_IRQHandler
                0x1008034c                cpuss_interrupts_dw0_14_IRQHandler
                0x1008034c                tcpwm_1_interrupts_4_IRQHandler
                0x1008034c                tcpwm_0_interrupts_3_IRQHandler
                0x1008034c                cpuss_interrupts_dw1_15_IRQHandler
                0x1008034c                ioss_interrupts_gpio_10_IRQHandler
                0x1008034c                udb_interrupts_10_IRQHandler
                0x1008034c                cpuss_interrupts_dw0_8_IRQHandler
                0x1008034c                ioss_interrupts_gpio_11_IRQHandler
                0x1008034c                cpuss_interrupts_ipc_14_IRQHandler
                0x1008034c                ioss_interrupts_gpio_5_IRQHandler
                0x1008034c                ioss_interrupts_gpio_4_IRQHandler
                0x1008034c                tcpwm_1_interrupts_8_IRQHandler
                0x1008034c                cpuss_interrupts_dw1_14_IRQHandler
                0x1008034c                usb_interrupt_med_IRQHandler
                0x1008034c                cpuss_interrupts_dw0_2_IRQHandler
                0x1008034c                tcpwm_1_interrupts_10_IRQHandler
                0x1008034c                cpuss_interrupts_fault_0_IRQHandler
                0x1008034c                cpuss_interrupts_dw0_12_IRQHandler
                0x1008034c                ioss_interrupts_gpio_6_IRQHandler
                0x1008034c                tcpwm_1_interrupts_21_IRQHandler
                0x1008034c                tcpwm_1_interrupts_16_IRQHandler
                0x1008034c                cpuss_interrupts_dw1_4_IRQHandler
                0x1008034c                udb_interrupts_15_IRQHandler
                0x1008034c                cpuss_interrupts_dw1_11_IRQHandler
                0x1008034c                cpuss_interrupts_dw0_6_IRQHandler
                0x1008034c                ioss_interrupt_vdd_IRQHandler
                0x1008034c                cpuss_interrupts_dw0_7_IRQHandler
                0x1008034c                audioss_interrupt_i2s_IRQHandler
                0x1008034c                tcpwm_1_interrupts_5_IRQHandler
                0x1008034c                cpuss_interrupts_ipc_2_IRQHandler
                0x1008034c                cpuss_interrupts_dw0_10_IRQHandler
                0x1008034c                tcpwm_1_interrupts_19_IRQHandler
                0x1008034c                cpuss_interrupts_dw0_1_IRQHandler
                0x1008034c                ioss_interrupts_gpio_9_IRQHandler
                0x1008034c                usb_interrupt_lo_IRQHandler
                0x1008034c                cpuss_interrupts_ipc_8_IRQHandler
                0x1008034c                udb_interrupts_14_IRQHandler
                0x1008034c                cpuss_interrupts_dw0_3_IRQHandler
                0x10080350                UsageFault_Handler
                0x10080350                HardFault_Handler
                0x10080350                MemManage_Handler
                0x10080350                BusFault_Handler
 .text.__NVIC_EnableIRQ
                0x1008036c       0x1c .\CortexM4\ARM_GCC_541\Release\main_cm4.o
 .text.__NVIC_ClearPendingIRQ
                0x10080388       0x20 .\CortexM4\ARM_GCC_541\Release\main_cm4.o
 .text.SysTime_out_IRQHandler
                0x100803a8       0x34 .\CortexM4\ARM_GCC_541\Release\main_cm4.o
                0x100803a8                SysTime_out_IRQHandler
 .text.BtnIsr_handler
                0x100803dc       0xc4 .\CortexM4\ARM_GCC_541\Release\main_cm4.o
                0x100803dc                BtnIsr_handler
 .text.startup.main
                0x100804a0      0x210 .\CortexM4\ARM_GCC_541\Release\main_cm4.o
                0x100804a0                main
 .text.Cy_SysIpcPipeIsrCm4
                0x100806b0        0x6 .\CortexM4\ARM_GCC_541\Release\system_psoc6_cm4.o
                0x100806b0                Cy_SysIpcPipeIsrCm4
 .text.Cy_SystemInit
                0x100806b6        0x2 .\CortexM4\ARM_GCC_541\Release\system_psoc6_cm4.o
                0x100806b6                Cy_SystemInit
 .text.SystemCoreClockUpdate
                0x100806b8      0x160 .\CortexM4\ARM_GCC_541\Release\system_psoc6_cm4.o
                0x100806b8                SystemCoreClockUpdate
 .text.SystemInit
                0x10080818       0x48 .\CortexM4\ARM_GCC_541\Release\system_psoc6_cm4.o
                0x10080818                SystemInit
 .text.Cy_SystemInitFpuEnable
                0x10080860       0x28 .\CortexM4\ARM_GCC_541\Release\system_psoc6_cm4.o
                0x10080860                Cy_SystemInitFpuEnable
 .text.ADC_1_my_ISR
                0x10080888       0x48 .\CortexM4\ARM_GCC_541\Release\light_sensor.o
                0x10080888                ADC_1_my_ISR
 .text.LightSensor_Init
                0x100808d0       0x20 .\CortexM4\ARM_GCC_541\Release\light_sensor.o
                0x100808d0                LightSensor_Init
 .text._setSpeed_direction
                0x100808f0       0x44 .\CortexM4\ARM_GCC_541\Release\control.o
                0x100808f0                _setSpeed_direction
 *fill*         0x10080934        0x4 
 .text._calcola_velocita
                0x10080938      0x150 .\CortexM4\ARM_GCC_541\Release\control.o
                0x10080938                _calcola_velocita
 .text._hash_function_PWM
                0x10080a88       0x3c .\CortexM4\ARM_GCC_541\Release\control.o
                0x10080a88                _hash_function_PWM
 .text.set_speed
                0x10080ac4       0x48 .\CortexM4\ARM_GCC_541\Release\control.o
                0x10080ac4                set_speed
 *fill*         0x10080b0c        0x4 
 .text.Control_P
                0x10080b10      0x308 .\CortexM4\ARM_GCC_541\Release\control.o
                0x10080b10                Control_P
 .text.encoder_speed
                0x10080e18      0x148 .\CortexM4\ARM_GCC_541\Release\encoder.o
                0x10080e18                encoder_speed
 .text.encoder_L_IRQ_Handler
                0x10080f60       0x34 .\CortexM4\ARM_GCC_541\Release\encoder.o
                0x10080f60                encoder_L_IRQ_Handler
 .text.encoder_R_IRQ_Handler
                0x10080f94       0x34 .\CortexM4\ARM_GCC_541\Release\encoder.o
                0x10080f94                encoder_R_IRQ_Handler
 .text.Odometry
                0x10080fc8      0x1c4 .\CortexM4\ARM_GCC_541\Release\odometry.o
                0x10080fc8                Odometry
 .text.UART_1_Interrupt
                0x1008118c       0x10 .\CortexM4\ARM_GCC_541\Release\UART_1.o
 .text.UART_1_Start
                0x1008119c       0x64 .\CortexM4\ARM_GCC_541\Release\UART_1.o
                0x1008119c                UART_1_Start
 .text.Cy_SysClk_ClkPeriGetDivider
                0x10081200       0x14 .\CortexM4\ARM_GCC_541\Release\cy_flash.o
 .text.Cy_SysClk_ClkSlowGetDivider
                0x10081214       0x18 .\CortexM4\ARM_GCC_541\Release\cy_flash.o
 .text.Cy_IPC_Drv_GetIpcBaseAddress
                0x1008122c       0x14 .\CortexM4\ARM_GCC_541\Release\cy_flash.o
 .text.Cy_IPC_Drv_IsLockAcquired
                0x10081240       0x14 .\CortexM4\ARM_GCC_541\Release\cy_flash.o
 .text.Cy_Flash_ProcessOpcode
                0x10081254       0xa4 .\CortexM4\ARM_GCC_541\Release\cy_flash.o
 .text.Cy_Flash_OperationStatus
                0x100812f8       0x38 .\CortexM4\ARM_GCC_541\Release\cy_flash.o
 .text.Cy_Flash_InitExt
                0x10081330       0x78 .\CortexM4\ARM_GCC_541\Release\cy_flash.o
                0x10081330                Cy_Flash_InitExt
 .text.Cy_Flash_Init
                0x100813a8        0xc .\CortexM4\ARM_GCC_541\Release\cy_flash.o
                0x100813a8                Cy_Flash_Init
 .text.Cy_IPC_Drv_LockRelease
                0x100813b4       0x20 .\CortexM4\ARM_GCC_541\Release\cy_ipc_drv.o
                0x100813b4                Cy_IPC_Drv_LockRelease
 .text.Cy_IPC_Drv_SendMsgWord
                0x100813d4       0x18 .\CortexM4\ARM_GCC_541\Release\cy_ipc_drv.o
                0x100813d4                Cy_IPC_Drv_SendMsgWord
 .text.Cy_IPC_Drv_ReadMsgWord
                0x100813ec       0x20 .\CortexM4\ARM_GCC_541\Release\cy_ipc_drv.o
                0x100813ec                Cy_IPC_Drv_ReadMsgWord
 .text.Cy_IPC_Sema_InitExt
                0x1008140c       0x68 .\CortexM4\ARM_GCC_541\Release\cy_ipc_sema.o
                0x1008140c                Cy_IPC_Sema_InitExt
 .text.Cy_IPC_Sema_Init
                0x10081474       0x44 .\CortexM4\ARM_GCC_541\Release\cy_ipc_sema.o
                0x10081474                Cy_IPC_Sema_Init
 .text.Cy_IPC_Sema_Clear
                0x100814b8       0x84 .\CortexM4\ARM_GCC_541\Release\cy_ipc_sema.o
                0x100814b8                Cy_IPC_Sema_Clear
 .text.Cy_IPC_Sema_Status
                0x1008153c       0x40 .\CortexM4\ARM_GCC_541\Release\cy_ipc_sema.o
                0x1008153c                Cy_IPC_Sema_Status
 .text.Cy_IPC_Pipe_Config
                0x1008157c       0x10 .\CortexM4\ARM_GCC_541\Release\cy_ipc_pipe.o
                0x1008157c                Cy_IPC_Pipe_Config
 .text.Cy_IPC_Pipe_EndpointInit
                0x1008158c       0x60 .\CortexM4\ARM_GCC_541\Release\cy_ipc_pipe.o
                0x1008158c                Cy_IPC_Pipe_EndpointInit
 .text.Cy_IPC_Pipe_Init
                0x100815ec       0x68 .\CortexM4\ARM_GCC_541\Release\cy_ipc_pipe.o
                0x100815ec                Cy_IPC_Pipe_Init
 .text.Cy_IPC_Pipe_SendMessage
                0x10081654       0x58 .\CortexM4\ARM_GCC_541\Release\cy_ipc_pipe.o
                0x10081654                Cy_IPC_Pipe_SendMessage
 .text.Cy_IPC_Pipe_RegisterCallback
                0x100816ac       0x28 .\CortexM4\ARM_GCC_541\Release\cy_ipc_pipe.o
                0x100816ac                Cy_IPC_Pipe_RegisterCallback
 .text.Cy_IPC_Pipe_ExecCallback
                0x100816d4       0x78 .\CortexM4\ARM_GCC_541\Release\cy_ipc_pipe.o
                0x100816d4                Cy_IPC_Pipe_ExecCallback
 .text.Cy_IPC_Pipe_ExecuteCallback
                0x1008174c       0x14 .\CortexM4\ARM_GCC_541\Release\cy_ipc_pipe.o
                0x1008174c                Cy_IPC_Pipe_ExecuteCallback
 .text.Cy_SCB_ReadArrayNoCheck
                0x10081760       0x36 .\CortexM4\ARM_GCC_541\Release\cy_scb_common.o
                0x10081760                Cy_SCB_ReadArrayNoCheck
 .text.Cy_SCB_ReadArray
                0x10081796       0x1a .\CortexM4\ARM_GCC_541\Release\cy_scb_common.o
                0x10081796                Cy_SCB_ReadArray
 .text.Cy_SCB_WriteArrayNoCheck
                0x100817b0       0x36 .\CortexM4\ARM_GCC_541\Release\cy_scb_common.o
                0x100817b0                Cy_SCB_WriteArrayNoCheck
 .text.Cy_SCB_WriteArray
                0x100817e6       0x28 .\CortexM4\ARM_GCC_541\Release\cy_scb_common.o
                0x100817e6                Cy_SCB_WriteArray
 .text.Cy_SCB_WriteString
                0x1008180e       0x2c .\CortexM4\ARM_GCC_541\Release\cy_scb_common.o
                0x1008180e                Cy_SCB_WriteString
 *fill*         0x1008183a        0x2 
 .text.Cy_SCB_UART_Init
                0x1008183c      0x1c4 .\CortexM4\ARM_GCC_541\Release\cy_scb_uart.o
                0x1008183c                Cy_SCB_UART_Init
 .text.Cy_SCB_UART_GetNumInRingBuffer
                0x10081a00       0x18 .\CortexM4\ARM_GCC_541\Release\cy_scb_uart.o
                0x10081a00                Cy_SCB_UART_GetNumInRingBuffer
 .text.Cy_SCB_UART_Interrupt
                0x10081a18      0x282 .\CortexM4\ARM_GCC_541\Release\cy_scb_uart.o
                0x10081a18                Cy_SCB_UART_Interrupt
 *fill*         0x10081c9a        0x2 
 .text.Cy_SysInt_SetVector
                0x10081c9c       0x2c .\CortexM4\ARM_GCC_541\Release\cy_sysint.o
                0x10081c9c                Cy_SysInt_SetVector
 .text.Cy_SysInt_Init
                0x10081cc8       0x5c .\CortexM4\ARM_GCC_541\Release\cy_sysint.o
                0x10081cc8                Cy_SysInt_Init
 .text.Cy_SysLib_Delay
                0x10081d24       0x30 .\CortexM4\ARM_GCC_541\Release\cy_syslib.o
                0x10081d24                Cy_SysLib_Delay
 .text.Cy_SysLib_DelayUs
                0x10081d54       0x10 .\CortexM4\ARM_GCC_541\Release\cy_syslib.o
                0x10081d54                Cy_SysLib_DelayUs
 .text.Cy_SysLib_ProcessingFault
                0x10081d64        0x2 .\CortexM4\ARM_GCC_541\Release\cy_syslib.o
                0x10081d64                Cy_SysLib_ProcessingFault
 *fill*         0x10081d66        0x2 
 .text.Cy_SysLib_FaultHandler
                0x10081d68       0x98 .\CortexM4\ARM_GCC_541\Release\cy_syslib.o
                0x10081d68                Cy_SysLib_FaultHandler
 .text          0x10081e00       0x20 .\CortexM4\ARM_GCC_541\Release\cy_syslib_gcc.o
                0x10081e00                Cy_SysLib_DelayCycles
                0x10081e12                Cy_SysLib_EnterCriticalSection
                0x10081e1a                Cy_SysLib_ExitCriticalSection
 .text.Cy_SysLib_GetDeviceRevision
                0x10081e20       0x12 .\CortexM4\ARM_GCC_541\Release\cy_syspm.o
 *fill*         0x10081e32        0x2 
 .text.Cy_PDL_Init
                0x10081e34        0xc .\CortexM4\ARM_GCC_541\Release\cy_device.o
                0x10081e34                Cy_PDL_Init
 .text.Cy_TCPWM_Counter_Init
                0x10081e40       0xe0 .\CortexM4\ARM_GCC_541\Release\cy_tcpwm_counter.o
                0x10081e40                Cy_TCPWM_Counter_Init
 .text.Cy_TCPWM_PWM_Init
                0x10081f20      0x138 .\CortexM4\ARM_GCC_541\Release\cy_tcpwm_pwm.o
                0x10081f20                Cy_TCPWM_PWM_Init
 .text.Cy_SAR_Init
                0x10082058       0xf4 .\CortexM4\ARM_GCC_541\Release\cy_sar.o
                0x10082058                Cy_SAR_Init
 .text.Cy_SAR_DeInit
                0x1008214c       0x5c .\CortexM4\ARM_GCC_541\Release\cy_sar.o
                0x1008214c                Cy_SAR_DeInit
 .text.Cy_SAR_Enable
                0x100821a8       0x1e .\CortexM4\ARM_GCC_541\Release\cy_sar.o
                0x100821a8                Cy_SAR_Enable
 .text.Cy_SAR_IsChannelSingleEnded
                0x100821c6       0x1a .\CortexM4\ARM_GCC_541\Release\cy_sar.o
                0x100821c6                Cy_SAR_IsChannelSingleEnded
 .text.Cy_SAR_IsChannelSigned
                0x100821e0       0x22 .\CortexM4\ARM_GCC_541\Release\cy_sar.o
                0x100821e0                Cy_SAR_IsChannelSigned
 .text.Cy_SAR_GetResult16
                0x10082202       0x12 .\CortexM4\ARM_GCC_541\Release\cy_sar.o
                0x10082202                Cy_SAR_GetResult16
 .text.Cy_SAR_RawCounts2Counts
                0x10082214       0x60 .\CortexM4\ARM_GCC_541\Release\cy_sar.o
                0x10082214                Cy_SAR_RawCounts2Counts
 .text.Cy_SAR_CountsTo_uVolts
                0x10082274       0x3c .\CortexM4\ARM_GCC_541\Release\cy_sar.o
                0x10082274                Cy_SAR_CountsTo_uVolts
 .text.Counter_1_Start
                0x100822b0       0x2c .\CortexM4\ARM_GCC_541\Release\Counter_1.o
                0x100822b0                Counter_1_Start
 .text.PWM_L_Start
                0x100822dc       0x2c .\CortexM4\ARM_GCC_541\Release\PWM_L.o
                0x100822dc                PWM_L_Start
 .text.PWM_R_Start
                0x10082308       0x2c .\CortexM4\ARM_GCC_541\Release\PWM_R.o
                0x10082308                PWM_R_Start
 .text.Counter_2_Start
                0x10082334       0x2c .\CortexM4\ARM_GCC_541\Release\Counter_2.o
                0x10082334                Counter_2_Start
 .text.ADC_1_InitConfig
                0x10082360       0x78 .\CortexM4\ARM_GCC_541\Release\ADC_1.o
                0x10082360                ADC_1_InitConfig
 .text.ADC_1_SetEosMask
                0x100823d8       0x14 .\CortexM4\ARM_GCC_541\Release\ADC_1.o
                0x100823d8                ADC_1_SetEosMask
 .text.ADC_1_Init
                0x100823ec       0x34 .\CortexM4\ARM_GCC_541\Release\ADC_1.o
                0x100823ec                ADC_1_Init
 .text.ADC_1_Start
                0x10082420       0x28 .\CortexM4\ARM_GCC_541\Release\ADC_1.o
                0x10082420                ADC_1_Start
 .text.ADC_1_StartEx
                0x10082448       0x38 .\CortexM4\ARM_GCC_541\Release\ADC_1.o
                0x10082448                ADC_1_StartEx
 .text.ADC_1_ISR
                0x10082480       0x18 .\CortexM4\ARM_GCC_541\Release\ADC_1_INT.o
                0x10082480                ADC_1_ISR
 .text          0x10082498      0x370 c:/program files (x86)/cypress/psoc creator/4.4/psoc creator/import/gnu/arm/5.4.1/bin/../lib/gcc/arm-none-eabi/5.4.1/armv7e-m/softfp\libgcc.a(_arm_addsubdf3.o)
                0x10082498                __aeabi_drsub
                0x100824a0                __aeabi_dsub
                0x100824a0                __subdf3
                0x100824a4                __aeabi_dadd
                0x100824a4                __adddf3
                0x1008271c                __floatunsidf
                0x1008271c                __aeabi_ui2d
                0x1008273c                __floatsidf
                0x1008273c                __aeabi_i2d
                0x10082760                __aeabi_f2d
                0x10082760                __extendsfdf2
                0x1008279c                __floatundidf
                0x1008279c                __aeabi_ul2d
                0x100827ac                __floatdidf
                0x100827ac                __aeabi_l2d
 .text          0x10082808      0x424 c:/program files (x86)/cypress/psoc creator/4.4/psoc creator/import/gnu/arm/5.4.1/bin/../lib/gcc/arm-none-eabi/5.4.1/armv7e-m/softfp\libgcc.a(_arm_muldivdf3.o)
                0x10082808                __aeabi_dmul
                0x10082808                __muldf3
                0x10082a5c                __divdf3
                0x10082a5c                __aeabi_ddiv
 .text          0x10082c2c      0x110 c:/program files (x86)/cypress/psoc creator/4.4/psoc creator/import/gnu/arm/5.4.1/bin/../lib/gcc/arm-none-eabi/5.4.1/armv7e-m/softfp\libgcc.a(_arm_cmpdf2.o)
                0x10082c2c                __gtdf2
                0x10082c2c                __gedf2
                0x10082c34                __ltdf2
                0x10082c34                __ledf2
                0x10082c3c                __nedf2
                0x10082c3c                __eqdf2
                0x10082c3c                __cmpdf2
                0x10082cb8                __aeabi_cdrcmple
                0x10082cc8                __aeabi_cdcmpeq
                0x10082cc8                __aeabi_cdcmple
                0x10082cd8                __aeabi_dcmpeq
                0x10082cec                __aeabi_dcmplt
                0x10082d00                __aeabi_dcmple
                0x10082d14                __aeabi_dcmpge
                0x10082d28                __aeabi_dcmpgt
 .text          0x10082d3c       0x50 c:/program files (x86)/cypress/psoc creator/4.4/psoc creator/import/gnu/arm/5.4.1/bin/../lib/gcc/arm-none-eabi/5.4.1/armv7e-m/softfp\libgcc.a(_arm_fixdfsi.o)
                0x10082d3c                __aeabi_d2iz
                0x10082d3c                __fixdfsi
 .text          0x10082d8c       0x40 c:/program files (x86)/cypress/psoc creator/4.4/psoc creator/import/gnu/arm/5.4.1/bin/../lib/gcc/arm-none-eabi/5.4.1/armv7e-m/softfp\libgcc.a(_arm_fixunsdfsi.o)
                0x10082d8c                __aeabi_d2uiz
                0x10082d8c                __fixunsdfsi
 .text          0x10082dcc       0xa0 c:/program files (x86)/cypress/psoc creator/4.4/psoc creator/import/gnu/arm/5.4.1/bin/../lib/gcc/arm-none-eabi/5.4.1/armv7e-m/softfp\libgcc.a(_arm_truncdfsf2.o)
                0x10082dcc                __truncdfsf2
                0x10082dcc                __aeabi_d2f
 .text          0x10082e6c       0xa0 c:/program files (x86)/cypress/psoc creator/4.4/psoc creator/import/gnu/arm/5.4.1/bin/../lib/gcc/arm-none-eabi/5.4.1/armv7e-m/softfp\libgcc.a(_aeabi_ldivmod.o)
                0x10082e6c                __aeabi_ldivmod
 .text          0x10082f0c      0x2e4 c:/program files (x86)/cypress/psoc creator/4.4/psoc creator/import/gnu/arm/5.4.1/bin/../lib/gcc/arm-none-eabi/5.4.1/armv7e-m/softfp\libgcc.a(_udivmoddi4.o)
                0x10082f0c                __udivmoddi4
 .text          0x100831f0        0x4 c:/program files (x86)/cypress/psoc creator/4.4/psoc creator/import/gnu/arm/5.4.1/bin/../lib/gcc/arm-none-eabi/5.4.1/armv7e-m/softfp\libgcc.a(_dvmd_tls.o)
                0x100831f0                __aeabi_idiv0
                0x100831f0                __aeabi_ldiv0
 .text.memset   0x100831f4       0x10 c:/program files (x86)/cypress/psoc creator/4.4/psoc creator/import/gnu/arm/5.4.1/bin/../lib/gcc/arm-none-eabi/5.4.1/../../../../arm-none-eabi/lib/armv7e-m/softfp\libg_nano.a(lib_a-memset.o)
                0x100831f4                memset
 .text.__cvt    0x10083204       0xc2 c:/program files (x86)/cypress/psoc creator/4.4/psoc creator/import/gnu/arm/5.4.1/bin/../lib/gcc/arm-none-eabi/5.4.1/../../../../arm-none-eabi/lib/armv7e-m/softfp\libg_nano.a(lib_a-nano-vfprintf_float.o)
                0x10083204                __cvt
 .text.__exponent
                0x100832c6       0x60 c:/program files (x86)/cypress/psoc creator/4.4/psoc creator/import/gnu/arm/5.4.1/bin/../lib/gcc/arm-none-eabi/5.4.1/../../../../arm-none-eabi/lib/armv7e-m/softfp\libg_nano.a(lib_a-nano-vfprintf_float.o)
                0x100832c6                __exponent
 *fill*         0x10083326        0x2 
 .text._printf_float
                0x10083328      0x488 c:/program files (x86)/cypress/psoc creator/4.4/psoc creator/import/gnu/arm/5.4.1/bin/../lib/gcc/arm-none-eabi/5.4.1/../../../../arm-none-eabi/lib/armv7e-m/softfp\libg_nano.a(lib_a-nano-vfprintf_float.o)
                0x10083328                _printf_float
 .text._printf_common
                0x100837b0       0xec c:/program files (x86)/cypress/psoc creator/4.4/psoc creator/import/gnu/arm/5.4.1/bin/../lib/gcc/arm-none-eabi/5.4.1/../../../../arm-none-eabi/lib/armv7e-m/softfp\libg_nano.a(lib_a-nano-vfprintf_i.o)
                0x100837b0                _printf_common
 .text._printf_i
                0x1008389c      0x24c c:/program files (x86)/cypress/psoc creator/4.4/psoc creator/import/gnu/arm/5.4.1/bin/../lib/gcc/arm-none-eabi/5.4.1/../../../../arm-none-eabi/lib/armv7e-m/softfp\libg_nano.a(lib_a-nano-vfprintf_i.o)
                0x1008389c                _printf_i
 .text.snprintf
                0x10083ae8       0x64 c:/program files (x86)/cypress/psoc creator/4.4/psoc creator/import/gnu/arm/5.4.1/bin/../lib/gcc/arm-none-eabi/5.4.1/../../../../arm-none-eabi/lib/armv7e-m/softfp\libg_nano.a(lib_a-snprintf.o)
                0x10083ae8                sniprintf
                0x10083ae8                snprintf
 .text          0x10083b4c       0x10 c:/program files (x86)/cypress/psoc creator/4.4/psoc creator/import/gnu/arm/5.4.1/bin/../lib/gcc/arm-none-eabi/5.4.1/../../../../arm-none-eabi/lib/armv7e-m/softfp\libg_nano.a(lib_a-strlen.o)
                0x10083b4c                strlen
 .text.quorem   0x10083b5c      0x11e c:/program files (x86)/cypress/psoc creator/4.4/psoc creator/import/gnu/arm/5.4.1/bin/../lib/gcc/arm-none-eabi/5.4.1/../../../../arm-none-eabi/lib/armv7e-m/softfp\libg_nano.a(lib_a-dtoa.o)
 *fill*         0x10083c7a        0x6 
 .text._dtoa_r  0x10083c80      0xb38 c:/program files (x86)/cypress/psoc creator/4.4/psoc creator/import/gnu/arm/5.4.1/bin/../lib/gcc/arm-none-eabi/5.4.1/../../../../arm-none-eabi/lib/armv7e-m/softfp\libg_nano.a(lib_a-dtoa.o)
                0x10083c80                _dtoa_r
 .text._localeconv_r
                0x100847b8        0x8 c:/program files (x86)/cypress/psoc creator/4.4/psoc creator/import/gnu/arm/5.4.1/bin/../lib/gcc/arm-none-eabi/5.4.1/../../../../arm-none-eabi/lib/armv7e-m/softfp\libg_nano.a(lib_a-locale.o)
                0x100847b8                _localeconv_r
 .text.malloc   0x100847c0       0x10 c:/program files (x86)/cypress/psoc creator/4.4/psoc creator/import/gnu/arm/5.4.1/bin/../lib/gcc/arm-none-eabi/5.4.1/../../../../arm-none-eabi/lib/armv7e-m/softfp\libg_nano.a(lib_a-malloc.o)
                0x100847c0                malloc
 .text          0x100847d0       0xa0 c:/program files (x86)/cypress/psoc creator/4.4/psoc creator/import/gnu/arm/5.4.1/bin/../lib/gcc/arm-none-eabi/5.4.1/../../../../arm-none-eabi/lib/armv7e-m/softfp\libg_nano.a(lib_a-memchr.o)
                0x100847d0                memchr
 .text.memcpy   0x10084870       0x16 c:/program files (x86)/cypress/psoc creator/4.4/psoc creator/import/gnu/arm/5.4.1/bin/../lib/gcc/arm-none-eabi/5.4.1/../../../../arm-none-eabi/lib/armv7e-m/softfp\libg_nano.a(lib_a-memcpy-stub.o)
                0x10084870                memcpy
 .text._Balloc  0x10084886       0x6a c:/program files (x86)/cypress/psoc creator/4.4/psoc creator/import/gnu/arm/5.4.1/bin/../lib/gcc/arm-none-eabi/5.4.1/../../../../arm-none-eabi/lib/armv7e-m/softfp\libg_nano.a(lib_a-mprec.o)
                0x10084886                _Balloc
 .text._Bfree   0x100848f0       0x2e c:/program files (x86)/cypress/psoc creator/4.4/psoc creator/import/gnu/arm/5.4.1/bin/../lib/gcc/arm-none-eabi/5.4.1/../../../../arm-none-eabi/lib/armv7e-m/softfp\libg_nano.a(lib_a-mprec.o)
                0x100848f0                _Bfree
 .text.__multadd
                0x1008491e       0x76 c:/program files (x86)/cypress/psoc creator/4.4/psoc creator/import/gnu/arm/5.4.1/bin/../lib/gcc/arm-none-eabi/5.4.1/../../../../arm-none-eabi/lib/armv7e-m/softfp\libg_nano.a(lib_a-mprec.o)
                0x1008491e                __multadd
 .text.__hi0bits
                0x10084994       0x40 c:/program files (x86)/cypress/psoc creator/4.4/psoc creator/import/gnu/arm/5.4.1/bin/../lib/gcc/arm-none-eabi/5.4.1/../../../../arm-none-eabi/lib/armv7e-m/softfp\libg_nano.a(lib_a-mprec.o)
                0x10084994                __hi0bits
 .text.__lo0bits
                0x100849d4       0x5a c:/program files (x86)/cypress/psoc creator/4.4/psoc creator/import/gnu/arm/5.4.1/bin/../lib/gcc/arm-none-eabi/5.4.1/../../../../arm-none-eabi/lib/armv7e-m/softfp\libg_nano.a(lib_a-mprec.o)
                0x100849d4                __lo0bits
 .text.__i2b    0x10084a2e       0x12 c:/program files (x86)/cypress/psoc creator/4.4/psoc creator/import/gnu/arm/5.4.1/bin/../lib/gcc/arm-none-eabi/5.4.1/../../../../arm-none-eabi/lib/armv7e-m/softfp\libg_nano.a(lib_a-mprec.o)
                0x10084a2e                __i2b
 .text.__multiply
                0x10084a40      0x122 c:/program files (x86)/cypress/psoc creator/4.4/psoc creator/import/gnu/arm/5.4.1/bin/../lib/gcc/arm-none-eabi/5.4.1/../../../../arm-none-eabi/lib/armv7e-m/softfp\libg_nano.a(lib_a-mprec.o)
                0x10084a40                __multiply
 *fill*         0x10084b62        0x2 
 .text.__pow5mult
                0x10084b64       0x9c c:/program files (x86)/cypress/psoc creator/4.4/psoc creator/import/gnu/arm/5.4.1/bin/../lib/gcc/arm-none-eabi/5.4.1/../../../../arm-none-eabi/lib/armv7e-m/softfp\libg_nano.a(lib_a-mprec.o)
                0x10084b64                __pow5mult
 .text.__lshift
                0x10084c00       0xa2 c:/program files (x86)/cypress/psoc creator/4.4/psoc creator/import/gnu/arm/5.4.1/bin/../lib/gcc/arm-none-eabi/5.4.1/../../../../arm-none-eabi/lib/armv7e-m/softfp\libg_nano.a(lib_a-mprec.o)
                0x10084c00                __lshift
 .text.__mcmp   0x10084ca2       0x38 c:/program files (x86)/cypress/psoc creator/4.4/psoc creator/import/gnu/arm/5.4.1/bin/../lib/gcc/arm-none-eabi/5.4.1/../../../../arm-none-eabi/lib/armv7e-m/softfp\libg_nano.a(lib_a-mprec.o)
                0x10084ca2                __mcmp
 .text.__mdiff  0x10084cda       0xbe c:/program files (x86)/cypress/psoc creator/4.4/psoc creator/import/gnu/arm/5.4.1/bin/../lib/gcc/arm-none-eabi/5.4.1/../../../../arm-none-eabi/lib/armv7e-m/softfp\libg_nano.a(lib_a-mprec.o)
                0x10084cda                __mdiff
 .text.__d2b    0x10084d98       0x9c c:/program files (x86)/cypress/psoc creator/4.4/psoc creator/import/gnu/arm/5.4.1/bin/../lib/gcc/arm-none-eabi/5.4.1/../../../../arm-none-eabi/lib/armv7e-m/softfp\libg_nano.a(lib_a-mprec.o)
                0x10084d98                __d2b
 .text._calloc_r
                0x10084e34       0x1c c:/program files (x86)/cypress/psoc creator/4.4/psoc creator/import/gnu/arm/5.4.1/bin/../lib/gcc/arm-none-eabi/5.4.1/../../../../arm-none-eabi/lib/armv7e-m/softfp\libg_nano.a(lib_a-nano-callocr.o)
                0x10084e34                _calloc_r
 .text._free_r  0x10084e50       0x9c c:/program files (x86)/cypress/psoc creator/4.4/psoc creator/import/gnu/arm/5.4.1/bin/../lib/gcc/arm-none-eabi/5.4.1/../../../../arm-none-eabi/lib/armv7e-m/softfp\libg_nano.a(lib_a-nano-freer.o)
                0x10084e50                _free_r
 .text._malloc_r
                0x10084eec       0xbc c:/program files (x86)/cypress/psoc creator/4.4/psoc creator/import/gnu/arm/5.4.1/bin/../lib/gcc/arm-none-eabi/5.4.1/../../../../arm-none-eabi/lib/armv7e-m/softfp\libg_nano.a(lib_a-nano-mallocr.o)
                0x10084eec                _malloc_r
 .text.__ssputs_r
                0x10084fa8       0xb2 c:/program files (x86)/cypress/psoc creator/4.4/psoc creator/import/gnu/arm/5.4.1/bin/../lib/gcc/arm-none-eabi/5.4.1/../../../../arm-none-eabi/lib/armv7e-m/softfp\libg_nano.a(lib_a-nano-svfprintf.o)
                0x10084fa8                __ssputs_r
 *fill*         0x1008505a        0x2 
 .text._svfprintf_r
                0x1008505c      0x1e8 c:/program files (x86)/cypress/psoc creator/4.4/psoc creator/import/gnu/arm/5.4.1/bin/../lib/gcc/arm-none-eabi/5.4.1/../../../../arm-none-eabi/lib/armv7e-m/softfp\libg_nano.a(lib_a-nano-svfprintf.o)
                0x1008505c                _svfiprintf_r
                0x1008505c                _svfprintf_r
 .text._sbrk_r  0x10085244       0x20 c:/program files (x86)/cypress/psoc creator/4.4/psoc creator/import/gnu/arm/5.4.1/bin/../lib/gcc/arm-none-eabi/5.4.1/../../../../arm-none-eabi/lib/armv7e-m/softfp\libg_nano.a(lib_a-sbrkr.o)
                0x10085244                _sbrk_r
 .text.memmove  0x10085264       0x36 c:/program files (x86)/cypress/psoc creator/4.4/psoc creator/import/gnu/arm/5.4.1/bin/../lib/gcc/arm-none-eabi/5.4.1/../../../../arm-none-eabi/lib/armv7e-m/softfp\libg_nano.a(lib_a-memmove.o)
                0x10085264                memmove
 .text.__malloc_lock
                0x1008529a        0x2 c:/program files (x86)/cypress/psoc creator/4.4/psoc creator/import/gnu/arm/5.4.1/bin/../lib/gcc/arm-none-eabi/5.4.1/../../../../arm-none-eabi/lib/armv7e-m/softfp\libg_nano.a(lib_a-mlock.o)
                0x1008529a                __malloc_lock
 .text.__malloc_unlock
                0x1008529c        0x2 c:/program files (x86)/cypress/psoc creator/4.4/psoc creator/import/gnu/arm/5.4.1/bin/../lib/gcc/arm-none-eabi/5.4.1/../../../../arm-none-eabi/lib/armv7e-m/softfp\libg_nano.a(lib_a-mlock.o)
                0x1008529c                __malloc_unlock
 .text._realloc_r
                0x1008529e       0x4c c:/program files (x86)/cypress/psoc creator/4.4/psoc creator/import/gnu/arm/5.4.1/bin/../lib/gcc/arm-none-eabi/5.4.1/../../../../arm-none-eabi/lib/armv7e-m/softfp\libg_nano.a(lib_a-nano-reallocr.o)
                0x1008529e                _realloc_r
 .text._malloc_usable_size_r
                0x100852ea       0x14 c:/program files (x86)/cypress/psoc creator/4.4/psoc creator/import/gnu/arm/5.4.1/bin/../lib/gcc/arm-none-eabi/5.4.1/../../../../arm-none-eabi/lib/armv7e-m/softfp\libg_nano.a(lib_a-nano-msizer.o)
                0x100852ea                _malloc_usable_size_r
 *fill*         0x100852fe        0x2 
 .text          0x10085300       0x2c c:/program files (x86)/cypress/psoc creator/4.4/psoc creator/import/gnu/arm/5.4.1/bin/../lib/gcc/arm-none-eabi/5.4.1/armv7e-m/softfp\libgcc.a(_arm_unorddf2.o)
                0x10085300                __unorddf2
                0x10085300                __aeabi_dcmpun
 .text._sbrk    0x1008532c       0x1c c:/program files (x86)/cypress/psoc creator/4.4/psoc creator/import/gnu/arm/5.4.1/bin/../lib/gcc/arm-none-eabi/5.4.1/../../../../arm-none-eabi/lib/armv7e-m/softfp\libnosys.a(sbrk.o)
                0x1008532c                _sbrk
 .text.ceil     0x10085348      0x110 c:/program files (x86)/cypress/psoc creator/4.4/psoc creator/import/gnu/arm/5.4.1/bin/../lib/gcc/arm-none-eabi/5.4.1/../../../../arm-none-eabi/lib/armv7e-m/softfp\libm.a(lib_a-s_ceil.o)
                0x10085348                ceil
 .text.cos      0x10085458       0x90 c:/program files (x86)/cypress/psoc creator/4.4/psoc creator/import/gnu/arm/5.4.1/bin/../lib/gcc/arm-none-eabi/5.4.1/../../../../arm-none-eabi/lib/armv7e-m/softfp\libm.a(lib_a-s_cos.o)
                0x10085458                cos
 .text.floor    0x100854e8      0x110 c:/program files (x86)/cypress/psoc creator/4.4/psoc creator/import/gnu/arm/5.4.1/bin/../lib/gcc/arm-none-eabi/5.4.1/../../../../arm-none-eabi/lib/armv7e-m/softfp\libm.a(lib_a-s_floor.o)
                0x100854e8                floor
 .text.sin      0x100855f8       0x88 c:/program files (x86)/cypress/psoc creator/4.4/psoc creator/import/gnu/arm/5.4.1/bin/../lib/gcc/arm-none-eabi/5.4.1/../../../../arm-none-eabi/lib/armv7e-m/softfp\libm.a(lib_a-s_sin.o)
                0x100855f8                sin
 .text.atan2    0x10085680        0x4 c:/program files (x86)/cypress/psoc creator/4.4/psoc creator/import/gnu/arm/5.4.1/bin/../lib/gcc/arm-none-eabi/5.4.1/../../../../arm-none-eabi/lib/armv7e-m/softfp\libm.a(lib_a-w_atan2.o)
                0x10085680                atan2
 .text.sqrt     0x10085684       0xb8 c:/program files (x86)/cypress/psoc creator/4.4/psoc creator/import/gnu/arm/5.4.1/bin/../lib/gcc/arm-none-eabi/5.4.1/../../../../arm-none-eabi/lib/armv7e-m/softfp\libm.a(lib_a-w_sqrt.o)
                0x10085684                sqrt
 *fill*         0x1008573c        0x4 
 .text.__ieee754_atan2
                0x10085740      0x1f4 c:/program files (x86)/cypress/psoc creator/4.4/psoc creator/import/gnu/arm/5.4.1/bin/../lib/gcc/arm-none-eabi/5.4.1/../../../../arm-none-eabi/lib/armv7e-m/softfp\libm.a(lib_a-e_atan2.o)
                0x10085740                __ieee754_atan2
 *fill*         0x10085934        0x4 
 .text.__ieee754_rem_pio2
                0x10085938      0x43c c:/program files (x86)/cypress/psoc creator/4.4/psoc creator/import/gnu/arm/5.4.1/bin/../lib/gcc/arm-none-eabi/5.4.1/../../../../arm-none-eabi/lib/armv7e-m/softfp\libm.a(lib_a-e_rem_pio2.o)
                0x10085938                __ieee754_rem_pio2
 .text.__ieee754_sqrt
                0x10085d74      0x184 c:/program files (x86)/cypress/psoc creator/4.4/psoc creator/import/gnu/arm/5.4.1/bin/../lib/gcc/arm-none-eabi/5.4.1/../../../../arm-none-eabi/lib/armv7e-m/softfp\libm.a(lib_a-e_sqrt.o)
                0x10085d74                __ieee754_sqrt
 .text.__kernel_cos
                0x10085ef8      0x24c c:/program files (x86)/cypress/psoc creator/4.4/psoc creator/import/gnu/arm/5.4.1/bin/../lib/gcc/arm-none-eabi/5.4.1/../../../../arm-none-eabi/lib/armv7e-m/softfp\libm.a(lib_a-k_cos.o)
                0x10085ef8                __kernel_cos
 *fill*         0x10086144        0x4 
 .text.__kernel_rem_pio2
                0x10086148      0x804 c:/program files (x86)/cypress/psoc creator/4.4/psoc creator/import/gnu/arm/5.4.1/bin/../lib/gcc/arm-none-eabi/5.4.1/../../../../arm-none-eabi/lib/armv7e-m/softfp\libm.a(lib_a-k_rem_pio2.o)
                0x10086148                __kernel_rem_pio2
 *fill*         0x1008694c        0x4 
 .text.__kernel_sin
                0x10086950      0x16c c:/program files (x86)/cypress/psoc creator/4.4/psoc creator/import/gnu/arm/5.4.1/bin/../lib/gcc/arm-none-eabi/5.4.1/../../../../arm-none-eabi/lib/armv7e-m/softfp\libm.a(lib_a-k_sin.o)
                0x10086950                __kernel_sin
 *fill*         0x10086abc        0x4 
 .text.atan     0x10086ac0      0x340 c:/program files (x86)/cypress/psoc creator/4.4/psoc creator/import/gnu/arm/5.4.1/bin/../lib/gcc/arm-none-eabi/5.4.1/../../../../arm-none-eabi/lib/armv7e-m/softfp\libm.a(lib_a-s_atan.o)
                0x10086ac0                atan
 .text.fabs     0x10086e00        0x8 c:/program files (x86)/cypress/psoc creator/4.4/psoc creator/import/gnu/arm/5.4.1/bin/../lib/gcc/arm-none-eabi/5.4.1/../../../../arm-none-eabi/lib/armv7e-m/softfp\libm.a(lib_a-s_fabs.o)
                0x10086e00                fabs
 .text.matherr  0x10086e08        0x4 c:/program files (x86)/cypress/psoc creator/4.4/psoc creator/import/gnu/arm/5.4.1/bin/../lib/gcc/arm-none-eabi/5.4.1/../../../../arm-none-eabi/lib/armv7e-m/softfp\libm.a(lib_a-s_matherr.o)
                0x10086e08                matherr
 *fill*         0x10086e0c        0x4 
 .text.scalbn   0x10086e10       0xfc c:/program files (x86)/cypress/psoc creator/4.4/psoc creator/import/gnu/arm/5.4.1/bin/../lib/gcc/arm-none-eabi/5.4.1/../../../../arm-none-eabi/lib/armv7e-m/softfp\libm.a(lib_a-s_scalbn.o)
                0x10086e10                scalbn
 .text.copysign
                0x10086f0c       0x10 c:/program files (x86)/cypress/psoc creator/4.4/psoc creator/import/gnu/arm/5.4.1/bin/../lib/gcc/arm-none-eabi/5.4.1/../../../../arm-none-eabi/lib/armv7e-m/softfp\libm.a(lib_a-s_copysign.o)
                0x10086f0c                copysign
 .text.__errno  0x10086f1c        0xc c:/program files (x86)/cypress/psoc creator/4.4/psoc creator/import/gnu/arm/5.4.1/bin/../lib/gcc/arm-none-eabi/5.4.1/../../../../arm-none-eabi/lib/armv7e-m/softfp\libc.a(lib_a-errno.o)
                0x10086f1c                __errno
 *(.init)
 .init          0x10086f28        0x4 c:/program files (x86)/cypress/psoc creator/4.4/psoc creator/import/gnu/arm/5.4.1/bin/../lib/gcc/arm-none-eabi/5.4.1/armv7e-m/softfp/crti.o
                0x10086f28                _init
 .init          0x10086f2c        0x8 c:/program files (x86)/cypress/psoc creator/4.4/psoc creator/import/gnu/arm/5.4.1/bin/../lib/gcc/arm-none-eabi/5.4.1/armv7e-m/softfp/crtn.o
 *(.fini)
 .fini          0x10086f34        0x4 c:/program files (x86)/cypress/psoc creator/4.4/psoc creator/import/gnu/arm/5.4.1/bin/../lib/gcc/arm-none-eabi/5.4.1/armv7e-m/softfp/crti.o
                0x10086f34                _fini
 .fini          0x10086f38        0x8 c:/program files (x86)/cypress/psoc creator/4.4/psoc creator/import/gnu/arm/5.4.1/bin/../lib/gcc/arm-none-eabi/5.4.1/armv7e-m/softfp/crtn.o
 *crtbegin.o(.ctors)
 *crtbegin?.o(.ctors)
 *(EXCLUDE_FILE(*crtend.o *crtend?.o) .ctors)
 *(SORT(.ctors.*))
 *(.ctors)
 *crtbegin.o(.dtors)
 *crtbegin?.o(.dtors)
 *(EXCLUDE_FILE(*crtend.o *crtend?.o) .dtors)
 *(SORT(.dtors.*))
 *(.dtors)
 *(.rodata .rodata.* .constdata .constdata.* .conststring .conststring.*)
 .rodata.str1.1
                0x10086f40       0xcc .\CortexM4\ARM_GCC_541\Release\main_cm4.o
                                 0xce (size before relaxing)
 .rodata        0x1008700c       0x34 .\CortexM4\ARM_GCC_541\Release\system_psoc6_cm4.o
 .rodata        0x10087040       0x48 .\CortexM4\ARM_GCC_541\Release\cyfitter_sysint_cfg.o
                0x10087040                ADC_1_IRQ_cfg
                0x10087048                encoder_R_int_cfg
                0x10087050                encoder_L_int_cfg
                0x10087058                SysInt_2_cfg
                0x10087060                SysInt_1_cfg
                0x10087068                BtnIsr_cfg
                0x10087070                time_out_int_cfg
                0x10087078                SysInt_3_cfg
                0x10087080                UART_1_SCB_IRQ_cfg
 .rodata        0x10087088       0x40 .\CortexM4\ARM_GCC_541\Release\UART_1.o
                0x10087088                UART_1_config
 .rodata        0x100870c8      0x170 .\CortexM4\ARM_GCC_541\Release\cy_device.o
                0x100870c8                cy_deviceIpBlockCfgPSoC6_02
                0x10087180                cy_deviceIpBlockCfgPSoC6_01
 .rodata        0x10087238       0x4c .\CortexM4\ARM_GCC_541\Release\Counter_1.o
                0x10087238                Counter_1_config
 .rodata        0x10087284       0x64 .\CortexM4\ARM_GCC_541\Release\PWM_L.o
                0x10087284                PWM_L_config
 .rodata        0x100872e8       0x64 .\CortexM4\ARM_GCC_541\Release\PWM_R.o
                0x100872e8                PWM_R_config
 .rodata        0x1008734c       0x4c .\CortexM4\ARM_GCC_541\Release\Counter_2.o
                0x1008734c                Counter_2_config
 .rodata        0x10087398       0x8c .\CortexM4\ARM_GCC_541\Release\ADC_1_INIT.o
                0x10087398                ADC_1_allConfigs
 .rodata.str1.1
                0x10087424        0x2 c:/program files (x86)/cypress/psoc creator/4.4/psoc creator/import/gnu/arm/5.4.1/bin/../lib/gcc/arm-none-eabi/5.4.1/../../../../arm-none-eabi/lib/armv7e-m/softfp\libg_nano.a(lib_a-impure.o)
 .rodata.str1.1
                0x10087426       0x12 c:/program files (x86)/cypress/psoc creator/4.4/psoc creator/import/gnu/arm/5.4.1/bin/../lib/gcc/arm-none-eabi/5.4.1/../../../../arm-none-eabi/lib/armv7e-m/softfp\libg_nano.a(lib_a-nano-vfprintf_float.o)
 .rodata.str1.1
                0x10087438       0x22 c:/program files (x86)/cypress/psoc creator/4.4/psoc creator/import/gnu/arm/5.4.1/bin/../lib/gcc/arm-none-eabi/5.4.1/../../../../arm-none-eabi/lib/armv7e-m/softfp\libg_nano.a(lib_a-nano-vfprintf_i.o)
 .rodata.str1.1
                0x1008745a        0xd c:/program files (x86)/cypress/psoc creator/4.4/psoc creator/import/gnu/arm/5.4.1/bin/../lib/gcc/arm-none-eabi/5.4.1/../../../../arm-none-eabi/lib/armv7e-m/softfp\libg_nano.a(lib_a-dtoa.o)
                                  0xf (size before relaxing)
 .rodata.str1.1
                0x10087467        0x8 c:/program files (x86)/cypress/psoc creator/4.4/psoc creator/import/gnu/arm/5.4.1/bin/../lib/gcc/arm-none-eabi/5.4.1/../../../../arm-none-eabi/lib/armv7e-m/softfp\libg_nano.a(lib_a-locale.o)
                                  0xb (size before relaxing)
 *fill*         0x1008746f        0x1 
 .rodata.p05.5410
                0x10087470        0xc c:/program files (x86)/cypress/psoc creator/4.4/psoc creator/import/gnu/arm/5.4.1/bin/../lib/gcc/arm-none-eabi/5.4.1/../../../../arm-none-eabi/lib/armv7e-m/softfp\libg_nano.a(lib_a-mprec.o)
 *fill*         0x1008747c        0x4 
 .rodata.__mprec_bigtens
                0x10087480       0x28 c:/program files (x86)/cypress/psoc creator/4.4/psoc creator/import/gnu/arm/5.4.1/bin/../lib/gcc/arm-none-eabi/5.4.1/../../../../arm-none-eabi/lib/armv7e-m/softfp\libg_nano.a(lib_a-mprec.o)
                0x10087480                __mprec_bigtens
 .rodata.__mprec_tens
                0x100874a8       0xc8 c:/program files (x86)/cypress/psoc creator/4.4/psoc creator/import/gnu/arm/5.4.1/bin/../lib/gcc/arm-none-eabi/5.4.1/../../../../arm-none-eabi/lib/armv7e-m/softfp\libg_nano.a(lib_a-mprec.o)
                0x100874a8                __mprec_tens
 .rodata.str1.1
                0x10087570       0x11 c:/program files (x86)/cypress/psoc creator/4.4/psoc creator/import/gnu/arm/5.4.1/bin/../lib/gcc/arm-none-eabi/5.4.1/../../../../arm-none-eabi/lib/armv7e-m/softfp\libg_nano.a(lib_a-nano-svfprintf.o)
 *fill*         0x10087581        0x3 
 .rodata.str1.4
                0x10087584        0x8 c:/program files (x86)/cypress/psoc creator/4.4/psoc creator/import/gnu/arm/5.4.1/bin/../lib/gcc/arm-none-eabi/5.4.1/../../../../arm-none-eabi/lib/armv7e-m/softfp\libm.a(lib_a-w_sqrt.o)
                                  0x5 (size before relaxing)
 .rodata.npio2_hw
                0x1008758c       0x80 c:/program files (x86)/cypress/psoc creator/4.4/psoc creator/import/gnu/arm/5.4.1/bin/../lib/gcc/arm-none-eabi/5.4.1/../../../../arm-none-eabi/lib/armv7e-m/softfp\libm.a(lib_a-e_rem_pio2.o)
 .rodata.two_over_pi
                0x1008760c      0x108 c:/program files (x86)/cypress/psoc creator/4.4/psoc creator/import/gnu/arm/5.4.1/bin/../lib/gcc/arm-none-eabi/5.4.1/../../../../arm-none-eabi/lib/armv7e-m/softfp\libm.a(lib_a-e_rem_pio2.o)
 .rodata.init_jk
                0x10087714       0x10 c:/program files (x86)/cypress/psoc creator/4.4/psoc creator/import/gnu/arm/5.4.1/bin/../lib/gcc/arm-none-eabi/5.4.1/../../../../arm-none-eabi/lib/armv7e-m/softfp\libm.a(lib_a-k_rem_pio2.o)
 *fill*         0x10087724        0x4 
 .rodata.PIo2   0x10087728       0x40 c:/program files (x86)/cypress/psoc creator/4.4/psoc creator/import/gnu/arm/5.4.1/bin/../lib/gcc/arm-none-eabi/5.4.1/../../../../arm-none-eabi/lib/armv7e-m/softfp\libm.a(lib_a-k_rem_pio2.o)
 .rodata.atanlo
                0x10087768       0x20 c:/program files (x86)/cypress/psoc creator/4.4/psoc creator/import/gnu/arm/5.4.1/bin/../lib/gcc/arm-none-eabi/5.4.1/../../../../arm-none-eabi/lib/armv7e-m/softfp\libm.a(lib_a-s_atan.o)
 .rodata.atanhi
                0x10087788       0x20 c:/program files (x86)/cypress/psoc creator/4.4/psoc creator/import/gnu/arm/5.4.1/bin/../lib/gcc/arm-none-eabi/5.4.1/../../../../arm-none-eabi/lib/armv7e-m/softfp\libm.a(lib_a-s_atan.o)
 *(.eh_frame*)
 .eh_frame      0x100877a8        0x0 c:/program files (x86)/cypress/psoc creator/4.4/psoc creator/import/gnu/arm/5.4.1/bin/../lib/gcc/arm-none-eabi/5.4.1/armv7e-m/softfp/crtbegin.o
 .eh_frame      0x100877a8        0x4 c:/program files (x86)/cypress/psoc creator/4.4/psoc creator/import/gnu/arm/5.4.1/bin/../lib/gcc/arm-none-eabi/5.4.1/armv7e-m/softfp/crtend.o

.glue_7         0x100877ac        0x0
 .glue_7        0x100877ac        0x0 linker stubs

.glue_7t        0x100877ac        0x0
 .glue_7t       0x100877ac        0x0 linker stubs

.vfp11_veneer   0x100877ac        0x0
 .vfp11_veneer  0x100877ac        0x0 linker stubs

.v4_bx          0x100877ac        0x0
 .v4_bx         0x100877ac        0x0 linker stubs

.iplt           0x100877ac        0x0
 .iplt          0x100877ac        0x0 c:/program files (x86)/cypress/psoc creator/4.4/psoc creator/import/gnu/arm/5.4.1/bin/../lib/gcc/arm-none-eabi/5.4.1/armv7e-m/softfp/crtbegin.o

.ARM.extab
 *(.ARM.extab* .gnu.linkonce.armextab.*)
                0x100877ac                __exidx_start = .

.ARM.exidx      0x100877ac        0x8
 *(.ARM.exidx* .gnu.linkonce.armexidx.*)
 .ARM.exidx     0x100877ac        0x8 c:/program files (x86)/cypress/psoc creator/4.4/psoc creator/import/gnu/arm/5.4.1/bin/../lib/gcc/arm-none-eabi/5.4.1/armv7e-m/softfp\libgcc.a(_udivmoddi4.o)
                0x100877b4                __exidx_end = .

.copy.table     0x100877b4       0x18
                0x100877b4                . = ALIGN (0x4)
                0x100877b4                __copy_table_start__ = .
                0x100877b4        0x4 LONG 0x10080000 __Vectors
                0x100877b8        0x4 LONG 0x8024000 __ram_vectors_start__
                0x100877bc        0x4 LONG 0x28c (__Vectors_End - __Vectors)
                0x100877c0        0x4 LONG 0x100877d4 __etext
                0x100877c4        0x4 LONG 0x802428c __data_start__
                0x100877c8        0x4 LONG 0x5d4 (__data_end__ - __data_start__)
                0x100877cc                __copy_table_end__ = .

.zero.table     0x100877cc        0x8
                0x100877cc                . = ALIGN (0x4)
                0x100877cc                __zero_table_start__ = .
                0x100877cc        0x4 LONG 0x80248d8 __bss_start__
                0x100877d0        0x4 LONG 0x3cc (__bss_end__ - __bss_start__)
                0x100877d4                __zero_table_end__ = .
                0x100877d4                __etext = .

.ramVectors     0x08024000      0x28c
                0x08024000                __ram_vectors_start__ = .
 *(.ram_vectors)
 .ram_vectors   0x08024000      0x28c .\CortexM4\ARM_GCC_541\Release\startup_psoc6_01_cm4.o
                0x08024000                __ramVectors
                0x0802428c                __ram_vectors_end__ = .

.data           0x0802428c      0x5d4 load address 0x100877d4
                0x0802428c                __data_start__ = .
 *(vtable)
 *(.data*)
 .data          0x0802428c       0x30 .\CortexM4\ARM_GCC_541\Release\main_cm4.o
                0x0802428c                enable
                0x08024290                enable_ultrasonic_sensor
                0x08024294                alpha
                0x08024298                var_aus_trigger
                0x0802429c                barriera
                0x080242a0                f
                0x080242a4                d
                0x080242a8                R
                0x080242ac                K_2
                0x080242b0                K_1
                0x080242b4                dt
                0x080242b8                Tick_max
 .data          0x080242bc       0x20 .\CortexM4\ARM_GCC_541\Release\system_psoc6_cm4.o
                0x080242bc                cy_BleEcoClockFreqHz
                0x080242c0                cy_Hfclk0FreqHz
                0x080242c4                cy_PeriClkFreqHz
                0x080242c8                SystemCoreClock
                0x080242cc                cy_delayFreqHz
                0x080242d0                cy_delayFreqMhz
                0x080242d4                cy_delayFreqKhz
                0x080242d8                cy_delay32kMs
 .data.impure_data
                0x080242dc       0x60 c:/program files (x86)/cypress/psoc creator/4.4/psoc creator/import/gnu/arm/5.4.1/bin/../lib/gcc/arm-none-eabi/5.4.1/../../../../arm-none-eabi/lib/armv7e-m/softfp\libg_nano.a(lib_a-impure.o)
 .data._impure_ptr
                0x0802433c        0x4 c:/program files (x86)/cypress/psoc creator/4.4/psoc creator/import/gnu/arm/5.4.1/bin/../lib/gcc/arm-none-eabi/5.4.1/../../../../arm-none-eabi/lib/armv7e-m/softfp\libg_nano.a(lib_a-impure.o)
                0x0802433c                _impure_ptr
 .data.lconv    0x08024340       0x38 c:/program files (x86)/cypress/psoc creator/4.4/psoc creator/import/gnu/arm/5.4.1/bin/../lib/gcc/arm-none-eabi/5.4.1/../../../../arm-none-eabi/lib/armv7e-m/softfp\libg_nano.a(lib_a-locale.o)
 .data.__fdlib_version
                0x08024378        0x1 c:/program files (x86)/cypress/psoc creator/4.4/psoc creator/import/gnu/arm/5.4.1/bin/../lib/gcc/arm-none-eabi/5.4.1/../../../../arm-none-eabi/lib/armv7e-m/softfp\libm.a(lib_a-s_lib_ver.o)
                0x08024378                __fdlib_version
                0x0802437c                . = ALIGN (0x4)
 *fill*         0x08024379        0x3 
                0x0802437c                PROVIDE (__preinit_array_start, .)
 *(.preinit_array)
                0x0802437c                PROVIDE (__preinit_array_end, .)
                0x0802437c                . = ALIGN (0x4)
                0x0802437c                PROVIDE (__init_array_start, .)
 *(SORT(.init_array.*))
 *(.init_array)
 .init_array    0x0802437c        0x4 c:/program files (x86)/cypress/psoc creator/4.4/psoc creator/import/gnu/arm/5.4.1/bin/../lib/gcc/arm-none-eabi/5.4.1/armv7e-m/softfp/crtbegin.o
                0x08024380                PROVIDE (__init_array_end, .)
                0x08024380                . = ALIGN (0x4)
                [!provide]                PROVIDE (__fini_array_start, .)
 *(SORT(.fini_array.*))
 *(.fini_array)
 .fini_array    0x08024380        0x4 c:/program files (x86)/cypress/psoc creator/4.4/psoc creator/import/gnu/arm/5.4.1/bin/../lib/gcc/arm-none-eabi/5.4.1/armv7e-m/softfp/crtbegin.o
                [!provide]                PROVIDE (__fini_array_end, .)
 *(.jcr*)
 .jcr           0x08024384        0x0 c:/program files (x86)/cypress/psoc creator/4.4/psoc creator/import/gnu/arm/5.4.1/bin/../lib/gcc/arm-none-eabi/5.4.1/armv7e-m/softfp/crtbegin.o
 .jcr           0x08024384        0x4 c:/program files (x86)/cypress/psoc creator/4.4/psoc creator/import/gnu/arm/5.4.1/bin/../lib/gcc/arm-none-eabi/5.4.1/armv7e-m/softfp/crtend.o
                0x08024388                . = ALIGN (0x4)
 *(.cy_ramfunc*)
 .cy_ramfunc    0x08024388      0x240 .\CortexM4\ARM_GCC_541\Release\cy_flash.o
                0x08024412                Cy_Flash_ResumeIrqHandler
 .cy_ramfunc    0x080245c8      0x1d4 .\CortexM4\ARM_GCC_541\Release\cy_syspm.o
 *fill*         0x0802479c        0x4 
 .cy_ramfunc.__stub
                0x080247a0       0xc0 linker stubs
                0x08024860                . = ALIGN (0x4)
                0x08024860                __data_end__ = .

.igot.plt       0x08024860        0x0 load address 0x10087da8
 .igot.plt      0x08024860        0x0 c:/program files (x86)/cypress/psoc creator/4.4/psoc creator/import/gnu/arm/5.4.1/bin/../lib/gcc/arm-none-eabi/5.4.1/armv7e-m/softfp/crtbegin.o

.noinit         0x08024860       0x78 load address 0x10087da8
 *(.noinit)
 .noinit        0x08024860       0x78 .\CortexM4\ARM_GCC_541\Release\cy_syslib.o
                0x08024860                cy_faultFrame

.bss            0x080248d8      0x3cc load address 0x10087e20
                0x080248d8                . = ALIGN (0x4)
                0x080248d8                __bss_start__ = .
 *(.bss*)
 .bss           0x080248d8       0x1c c:/program files (x86)/cypress/psoc creator/4.4/psoc creator/import/gnu/arm/5.4.1/bin/../lib/gcc/arm-none-eabi/5.4.1/armv7e-m/softfp/crtbegin.o
 .bss           0x080248f4       0x6c .\CortexM4\ARM_GCC_541\Release\main_cm4.o
                0x080248f4                control_flag
                0x080248f8                x
                0x080248fc                y
                0x08024900                v_R
                0x08024904                v_L
                0x08024908                v_R_des
                0x0802490c                v_L_des
                0x08024910                theta_des
                0x08024914                Last_theta_des
                0x08024918                theta_act
                0x0802491c                error
                0x08024920                nGiri
                0x08024924                v_1_des
                0x08024928                v_2_des
                0x0802492c                test_selector
                0x08024930                x_des
                0x08024934                y_des
                0x08024938                tick_L
                0x0802493c                process_data_flag
                0x08024940                filtered_distance
                0x08024944                first_echo_detected
                0x08024948                value_echo
                0x0802494c                distancia
                0x08024950                value_counter
                0x08024954                u_L
                0x08024958                u_R
                0x0802495c                tick_R
 .bss           0x08024960      0x180 .\CortexM4\ARM_GCC_541\Release\system_psoc6_cm4.o
 .bss           0x08024ae0        0x8 .\CortexM4\ARM_GCC_541\Release\encoder.o
                0x08024ae0                filtered_u_L
                0x08024ae4                filtered_u_R
 .bss           0x08024ae8        0x1 .\CortexM4\ARM_GCC_541\Release\UART_1.o
                0x08024ae8                UART_1_initVar
 *fill*         0x08024ae9        0x3 
 .bss           0x08024aec       0x18 .\CortexM4\ARM_GCC_541\Release\cy_flash.o
 .bss           0x08024b04        0xc .\CortexM4\ARM_GCC_541\Release\cy_ipc_sema.o
 .bss           0x08024b10        0x4 .\CortexM4\ARM_GCC_541\Release\cy_ipc_pipe.o
 .bss           0x08024b14       0x3c .\CortexM4\ARM_GCC_541\Release\cy_syspm.o
 .bss           0x08024b50        0x1 .\CortexM4\ARM_GCC_541\Release\Counter_1.o
                0x08024b50                Counter_1_initVar
 .bss           0x08024b51        0x1 .\CortexM4\ARM_GCC_541\Release\PWM_L.o
                0x08024b51                PWM_L_initVar
 .bss           0x08024b52        0x1 .\CortexM4\ARM_GCC_541\Release\PWM_R.o
                0x08024b52                PWM_R_initVar
 .bss           0x08024b53        0x1 .\CortexM4\ARM_GCC_541\Release\Counter_2.o
                0x08024b53                Counter_2_initVar
 .bss           0x08024b54        0x6 .\CortexM4\ARM_GCC_541\Release\ADC_1.o
                0x08024b54                ADC_1_currentConfig
                0x08024b58                ADC_1_initVar
                0x08024b59                ADC_1_selected
 *fill*         0x08024b5a        0x2 
 .bss.__malloc_sbrk_start
                0x08024b5c        0x4 c:/program files (x86)/cypress/psoc creator/4.4/psoc creator/import/gnu/arm/5.4.1/bin/../lib/gcc/arm-none-eabi/5.4.1/../../../../arm-none-eabi/lib/armv7e-m/softfp\libg_nano.a(lib_a-nano-mallocr.o)
                0x08024b5c                __malloc_sbrk_start
 .bss.__malloc_free_list
                0x08024b60        0x4 c:/program files (x86)/cypress/psoc creator/4.4/psoc creator/import/gnu/arm/5.4.1/bin/../lib/gcc/arm-none-eabi/5.4.1/../../../../arm-none-eabi/lib/armv7e-m/softfp\libg_nano.a(lib_a-nano-mallocr.o)
                0x08024b60                __malloc_free_list
 .bss.heap_end.4169
                0x08024b64        0x4 c:/program files (x86)/cypress/psoc creator/4.4/psoc creator/import/gnu/arm/5.4.1/bin/../lib/gcc/arm-none-eabi/5.4.1/../../../../arm-none-eabi/lib/armv7e-m/softfp\libnosys.a(sbrk.o)
 *(COMMON)
 COMMON         0x08024b68       0x9b .\CortexM4\ARM_GCC_541\Release\main_cm4.o
                0x08024b68                buffer
                0x08024be5                imp
 *fill*         0x08024c03        0x1 
 COMMON         0x08024c04        0x4 .\CortexM4\ARM_GCC_541\Release\light_sensor.o
                0x08024c04                sample_uV
 COMMON         0x08024c08       0x34 .\CortexM4\ARM_GCC_541\Release\UART_1.o
                0x08024c08                UART_1_context
 COMMON         0x08024c3c        0x4 .\CortexM4\ARM_GCC_541\Release\cy_device.o
                0x08024c3c                cy_device
 COMMON         0x08024c40       0x60 .\CortexM4\ARM_GCC_541\Release\cy_sar.o
                0x08024c40                Cy_SAR_offset
                0x08024c60                Cy_SAR_countsPer10Volt
 COMMON         0x08024ca0        0x4 c:/program files (x86)/cypress/psoc creator/4.4/psoc creator/import/gnu/arm/5.4.1/bin/../lib/gcc/arm-none-eabi/5.4.1/../../../../arm-none-eabi/lib/armv7e-m/softfp\libg_nano.a(lib_a-reent.o)
                0x08024ca0                errno
                0x08024ca4                . = ALIGN (0x4)
                0x08024ca4                __bss_end__ = .

.heap           0x08024ca8      0x400
                0x08024ca8                __HeapBase = .
                0x08024ca8                __end__ = .
                0x08024ca8                end = __end__
 *(.heap*)
 .heap          0x08024ca8      0x400 .\CortexM4\ARM_GCC_541\Release\startup_psoc6_01_cm4.o
                0x080250a8                __HeapLimit = .

.stack_dummy    0x08024ca8     0x1000
 *(.stack*)
 .stack         0x08024ca8     0x1000 .\CortexM4\ARM_GCC_541\Release\startup_psoc6_01_cm4.o
                0x08047800                __StackTop = (ORIGIN (ram) + LENGTH (ram))
                0x08046800                __StackLimit = (__StackTop - SIZEOF (.stack_dummy))
                0x08047800                PROVIDE (__stack, __StackTop)
                0x00000001                ASSERT ((__StackLimit >= __HeapLimit), region RAM overflowed with stack)

.cy_app_signature
 *(.cy_app_signature)

.cy_em_eeprom
 *(.cy_em_eeprom)

.cy_sflash_user_data
 *(.cy_sflash_user_data)

.cy_sflash_nar
 *(.cy_sflash_nar)

.cy_sflash_public_key
 *(.cy_sflash_public_key)

.cy_toc_part2
 *(.cy_toc_part2)

.cy_rtoc_part2
 *(.cy_rtoc_part2)

.cy_xip
 *(.cy_xip)

.cy_efuse
 *(.cy_efuse)

.cymeta         0x90500000        0xc
 *(.cymeta)
 .cymeta        0x90500000        0xc .\CortexM4\ARM_GCC_541\Release\cymetadata.o
                0x90500000                cy_metadata
                0x10000000                __cy_memory_0_start = 0x10000000
                0x00100000                __cy_memory_0_length = 0x100000
                0x00000200                __cy_memory_0_row_size = 0x200
                0x14000000                __cy_memory_1_start = 0x14000000
                0x00008000                __cy_memory_1_length = 0x8000
                0x00000200                __cy_memory_1_row_size = 0x200
                0x16000000                __cy_memory_2_start = 0x16000000
                0x00008000                __cy_memory_2_length = 0x8000
                0x00000200                __cy_memory_2_row_size = 0x200
                0x18000000                __cy_memory_3_start = 0x18000000
                0x08000000                __cy_memory_3_length = 0x8000000
                0x00000200                __cy_memory_3_row_size = 0x200
                0x90700000                __cy_memory_4_start = 0x90700000
                0x00100000                __cy_memory_4_length = 0x100000
                0x00000001                __cy_memory_4_row_size = 0x1
OUTPUT(C:\Users\mcfdo\OneDrive\Documents\PSoC Creator\Workspace_prog1\Mario_mobile_robot_Copy_01_Copy_01.cydsn\CortexM4\ARM_GCC_541\Release\Mario_mobile_robot_Copy_01_Copy_01_link.elf elf32-littlearm)

.rel.dyn        0x08024ca4        0x0 load address 0x98563554
 .rel.iplt      0x08024ca4        0x0 c:/program files (x86)/cypress/psoc creator/4.4/psoc creator/import/gnu/arm/5.4.1/bin/../lib/gcc/arm-none-eabi/5.4.1/armv7e-m/softfp/crtbegin.o

.ARM.attributes
                0x00000000       0x2e
 .ARM.attributes
                0x00000000       0x22 c:/program files (x86)/cypress/psoc creator/4.4/psoc creator/import/gnu/arm/5.4.1/bin/../lib/gcc/arm-none-eabi/5.4.1/armv7e-m/softfp/crti.o
 .ARM.attributes
                0x00000022       0x32 c:/program files (x86)/cypress/psoc creator/4.4/psoc creator/import/gnu/arm/5.4.1/bin/../lib/gcc/arm-none-eabi/5.4.1/armv7e-m/softfp/crtbegin.o
 .ARM.attributes
                0x00000054       0x1f .\CortexM4\ARM_GCC_541\Release\startup_psoc6_01_cm4.o
 .ARM.attributes
                0x00000073       0x37 .\CortexM4\ARM_GCC_541\Release\main_cm4.o
 .ARM.attributes
                0x000000aa       0x37 .\CortexM4\ARM_GCC_541\Release\system_psoc6_cm4.o
 .ARM.attributes
                0x000000e1       0x37 .\CortexM4\ARM_GCC_541\Release\light_sensor.o
 .ARM.attributes
                0x00000118       0x37 .\CortexM4\ARM_GCC_541\Release\control.o
 .ARM.attributes
                0x0000014f       0x37 .\CortexM4\ARM_GCC_541\Release\encoder.o
 .ARM.attributes
                0x00000186       0x37 .\CortexM4\ARM_GCC_541\Release\odometry.o
 .ARM.attributes
                0x000001bd       0x37 .\CortexM4\ARM_GCC_541\Release\cyfitter_sysint_cfg.o
 .ARM.attributes
                0x000001f4       0x37 .\CortexM4\ARM_GCC_541\Release\cymetadata.o
 .ARM.attributes
                0x0000022b       0x37 .\CortexM4\ARM_GCC_541\Release\UART_1.o
 .ARM.attributes
                0x00000262       0x37 .\CortexM4\ARM_GCC_541\Release\cy_flash.o
 .ARM.attributes
                0x00000299       0x37 .\CortexM4\ARM_GCC_541\Release\cy_ipc_drv.o
 .ARM.attributes
                0x000002d0       0x37 .\CortexM4\ARM_GCC_541\Release\cy_ipc_sema.o
 .ARM.attributes
                0x00000307       0x37 .\CortexM4\ARM_GCC_541\Release\cy_ipc_pipe.o
 .ARM.attributes
                0x0000033e       0x37 .\CortexM4\ARM_GCC_541\Release\cy_scb_common.o
 .ARM.attributes
                0x00000375       0x37 .\CortexM4\ARM_GCC_541\Release\cy_scb_uart.o
 .ARM.attributes
                0x000003ac       0x37 .\CortexM4\ARM_GCC_541\Release\cy_sysint.o
 .ARM.attributes
                0x000003e3       0x37 .\CortexM4\ARM_GCC_541\Release\cy_syslib.o
 .ARM.attributes
                0x0000041a       0x25 .\CortexM4\ARM_GCC_541\Release\cy_syslib_gcc.o
 .ARM.attributes
                0x0000043f       0x37 .\CortexM4\ARM_GCC_541\Release\cy_syspm.o
 .ARM.attributes
                0x00000476       0x37 .\CortexM4\ARM_GCC_541\Release\cy_device.o
 .ARM.attributes
                0x000004ad       0x37 .\CortexM4\ARM_GCC_541\Release\cy_tcpwm_counter.o
 .ARM.attributes
                0x000004e4       0x37 .\CortexM4\ARM_GCC_541\Release\cy_tcpwm_pwm.o
 .ARM.attributes
                0x0000051b       0x37 .\CortexM4\ARM_GCC_541\Release\cy_sar.o
 .ARM.attributes
                0x00000552       0x37 .\CortexM4\ARM_GCC_541\Release\Counter_1.o
 .ARM.attributes
                0x00000589       0x37 .\CortexM4\ARM_GCC_541\Release\PWM_L.o
 .ARM.attributes
                0x000005c0       0x37 .\CortexM4\ARM_GCC_541\Release\PWM_R.o
 .ARM.attributes
                0x000005f7       0x37 .\CortexM4\ARM_GCC_541\Release\Counter_2.o
 .ARM.attributes
                0x0000062e       0x37 .\CortexM4\ARM_GCC_541\Release\ADC_1.o
 .ARM.attributes
                0x00000665       0x37 .\CortexM4\ARM_GCC_541\Release\ADC_1_INT.o
 .ARM.attributes
                0x0000069c       0x37 .\CortexM4\ARM_GCC_541\Release\ADC_1_INIT.o
 .ARM.attributes
                0x000006d3       0x22 c:/program files (x86)/cypress/psoc creator/4.4/psoc creator/import/gnu/arm/5.4.1/bin/../lib/gcc/arm-none-eabi/5.4.1/armv7e-m/softfp\libgcc.a(_arm_addsubdf3.o)
 .ARM.attributes
                0x000006f5       0x22 c:/program files (x86)/cypress/psoc creator/4.4/psoc creator/import/gnu/arm/5.4.1/bin/../lib/gcc/arm-none-eabi/5.4.1/armv7e-m/softfp\libgcc.a(_arm_muldivdf3.o)
 .ARM.attributes
                0x00000717       0x22 c:/program files (x86)/cypress/psoc creator/4.4/psoc creator/import/gnu/arm/5.4.1/bin/../lib/gcc/arm-none-eabi/5.4.1/armv7e-m/softfp\libgcc.a(_arm_cmpdf2.o)
 .ARM.attributes
                0x00000739       0x22 c:/program files (x86)/cypress/psoc creator/4.4/psoc creator/import/gnu/arm/5.4.1/bin/../lib/gcc/arm-none-eabi/5.4.1/armv7e-m/softfp\libgcc.a(_arm_fixdfsi.o)
 .ARM.attributes
                0x0000075b       0x22 c:/program files (x86)/cypress/psoc creator/4.4/psoc creator/import/gnu/arm/5.4.1/bin/../lib/gcc/arm-none-eabi/5.4.1/armv7e-m/softfp\libgcc.a(_arm_fixunsdfsi.o)
 .ARM.attributes
                0x0000077d       0x22 c:/program files (x86)/cypress/psoc creator/4.4/psoc creator/import/gnu/arm/5.4.1/bin/../lib/gcc/arm-none-eabi/5.4.1/armv7e-m/softfp\libgcc.a(_arm_truncdfsf2.o)
 .ARM.attributes
                0x0000079f       0x22 c:/program files (x86)/cypress/psoc creator/4.4/psoc creator/import/gnu/arm/5.4.1/bin/../lib/gcc/arm-none-eabi/5.4.1/armv7e-m/softfp\libgcc.a(_aeabi_ldivmod.o)
 .ARM.attributes
                0x000007c1       0x32 c:/program files (x86)/cypress/psoc creator/4.4/psoc creator/import/gnu/arm/5.4.1/bin/../lib/gcc/arm-none-eabi/5.4.1/armv7e-m/softfp\libgcc.a(_udivmoddi4.o)
 .ARM.attributes
                0x000007f3       0x22 c:/program files (x86)/cypress/psoc creator/4.4/psoc creator/import/gnu/arm/5.4.1/bin/../lib/gcc/arm-none-eabi/5.4.1/armv7e-m/softfp\libgcc.a(_dvmd_tls.o)
 .ARM.attributes
                0x00000815       0x32 c:/program files (x86)/cypress/psoc creator/4.4/psoc creator/import/gnu/arm/5.4.1/bin/../lib/gcc/arm-none-eabi/5.4.1/../../../../arm-none-eabi/lib/armv7e-m/softfp\libg_nano.a(lib_a-impure.o)
 .ARM.attributes
                0x00000847       0x32 c:/program files (x86)/cypress/psoc creator/4.4/psoc creator/import/gnu/arm/5.4.1/bin/../lib/gcc/arm-none-eabi/5.4.1/../../../../arm-none-eabi/lib/armv7e-m/softfp\libg_nano.a(lib_a-memset.o)
 .ARM.attributes
                0x00000879       0x32 c:/program files (x86)/cypress/psoc creator/4.4/psoc creator/import/gnu/arm/5.4.1/bin/../lib/gcc/arm-none-eabi/5.4.1/../../../../arm-none-eabi/lib/armv7e-m/softfp\libg_nano.a(lib_a-nano-vfprintf_float.o)
 .ARM.attributes
                0x000008ab       0x32 c:/program files (x86)/cypress/psoc creator/4.4/psoc creator/import/gnu/arm/5.4.1/bin/../lib/gcc/arm-none-eabi/5.4.1/../../../../arm-none-eabi/lib/armv7e-m/softfp\libg_nano.a(lib_a-nano-vfprintf_i.o)
 .ARM.attributes
                0x000008dd       0x32 c:/program files (x86)/cypress/psoc creator/4.4/psoc creator/import/gnu/arm/5.4.1/bin/../lib/gcc/arm-none-eabi/5.4.1/../../../../arm-none-eabi/lib/armv7e-m/softfp\libg_nano.a(lib_a-snprintf.o)
 .ARM.attributes
                0x0000090f       0x1b c:/program files (x86)/cypress/psoc creator/4.4/psoc creator/import/gnu/arm/5.4.1/bin/../lib/gcc/arm-none-eabi/5.4.1/../../../../arm-none-eabi/lib/armv7e-m/softfp\libg_nano.a(lib_a-strlen.o)
 .ARM.attributes
                0x0000092a       0x32 c:/program files (x86)/cypress/psoc creator/4.4/psoc creator/import/gnu/arm/5.4.1/bin/../lib/gcc/arm-none-eabi/5.4.1/../../../../arm-none-eabi/lib/armv7e-m/softfp\libg_nano.a(lib_a-dtoa.o)
 .ARM.attributes
                0x0000095c       0x32 c:/program files (x86)/cypress/psoc creator/4.4/psoc creator/import/gnu/arm/5.4.1/bin/../lib/gcc/arm-none-eabi/5.4.1/../../../../arm-none-eabi/lib/armv7e-m/softfp\libg_nano.a(lib_a-locale.o)
 .ARM.attributes
                0x0000098e       0x32 c:/program files (x86)/cypress/psoc creator/4.4/psoc creator/import/gnu/arm/5.4.1/bin/../lib/gcc/arm-none-eabi/5.4.1/../../../../arm-none-eabi/lib/armv7e-m/softfp\libg_nano.a(lib_a-malloc.o)
 .ARM.attributes
                0x000009c0       0x20 c:/program files (x86)/cypress/psoc creator/4.4/psoc creator/import/gnu/arm/5.4.1/bin/../lib/gcc/arm-none-eabi/5.4.1/../../../../arm-none-eabi/lib/armv7e-m/softfp\libg_nano.a(lib_a-memchr.o)
 .ARM.attributes
                0x000009e0       0x32 c:/program files (x86)/cypress/psoc creator/4.4/psoc creator/import/gnu/arm/5.4.1/bin/../lib/gcc/arm-none-eabi/5.4.1/../../../../arm-none-eabi/lib/armv7e-m/softfp\libg_nano.a(lib_a-memcpy-stub.o)
 .ARM.attributes
                0x00000a12       0x32 c:/program files (x86)/cypress/psoc creator/4.4/psoc creator/import/gnu/arm/5.4.1/bin/../lib/gcc/arm-none-eabi/5.4.1/../../../../arm-none-eabi/lib/armv7e-m/softfp\libg_nano.a(lib_a-mprec.o)
 .ARM.attributes
                0x00000a44       0x32 c:/program files (x86)/cypress/psoc creator/4.4/psoc creator/import/gnu/arm/5.4.1/bin/../lib/gcc/arm-none-eabi/5.4.1/../../../../arm-none-eabi/lib/armv7e-m/softfp\libg_nano.a(lib_a-nano-callocr.o)
 .ARM.attributes
                0x00000a76       0x32 c:/program files (x86)/cypress/psoc creator/4.4/psoc creator/import/gnu/arm/5.4.1/bin/../lib/gcc/arm-none-eabi/5.4.1/../../../../arm-none-eabi/lib/armv7e-m/softfp\libg_nano.a(lib_a-nano-freer.o)
 .ARM.attributes
                0x00000aa8       0x32 c:/program files (x86)/cypress/psoc creator/4.4/psoc creator/import/gnu/arm/5.4.1/bin/../lib/gcc/arm-none-eabi/5.4.1/../../../../arm-none-eabi/lib/armv7e-m/softfp\libg_nano.a(lib_a-nano-mallocr.o)
 .ARM.attributes
                0x00000ada       0x32 c:/program files (x86)/cypress/psoc creator/4.4/psoc creator/import/gnu/arm/5.4.1/bin/../lib/gcc/arm-none-eabi/5.4.1/../../../../arm-none-eabi/lib/armv7e-m/softfp\libg_nano.a(lib_a-nano-svfprintf.o)
 .ARM.attributes
                0x00000b0c       0x32 c:/program files (x86)/cypress/psoc creator/4.4/psoc creator/import/gnu/arm/5.4.1/bin/../lib/gcc/arm-none-eabi/5.4.1/../../../../arm-none-eabi/lib/armv7e-m/softfp\libg_nano.a(lib_a-sbrkr.o)
 .ARM.attributes
                0x00000b3e       0x32 c:/program files (x86)/cypress/psoc creator/4.4/psoc creator/import/gnu/arm/5.4.1/bin/../lib/gcc/arm-none-eabi/5.4.1/../../../../arm-none-eabi/lib/armv7e-m/softfp\libg_nano.a(lib_a-memmove.o)
 .ARM.attributes
                0x00000b70       0x32 c:/program files (x86)/cypress/psoc creator/4.4/psoc creator/import/gnu/arm/5.4.1/bin/../lib/gcc/arm-none-eabi/5.4.1/../../../../arm-none-eabi/lib/armv7e-m/softfp\libg_nano.a(lib_a-mlock.o)
 .ARM.attributes
                0x00000ba2       0x32 c:/program files (x86)/cypress/psoc creator/4.4/psoc creator/import/gnu/arm/5.4.1/bin/../lib/gcc/arm-none-eabi/5.4.1/../../../../arm-none-eabi/lib/armv7e-m/softfp\libg_nano.a(lib_a-nano-reallocr.o)
 .ARM.attributes
                0x00000bd4       0x32 c:/program files (x86)/cypress/psoc creator/4.4/psoc creator/import/gnu/arm/5.4.1/bin/../lib/gcc/arm-none-eabi/5.4.1/../../../../arm-none-eabi/lib/armv7e-m/softfp\libg_nano.a(lib_a-reent.o)
 .ARM.attributes
                0x00000c06       0x32 c:/program files (x86)/cypress/psoc creator/4.4/psoc creator/import/gnu/arm/5.4.1/bin/../lib/gcc/arm-none-eabi/5.4.1/../../../../arm-none-eabi/lib/armv7e-m/softfp\libg_nano.a(lib_a-nano-msizer.o)
 .ARM.attributes
                0x00000c38       0x22 c:/program files (x86)/cypress/psoc creator/4.4/psoc creator/import/gnu/arm/5.4.1/bin/../lib/gcc/arm-none-eabi/5.4.1/armv7e-m/softfp\libgcc.a(_arm_unorddf2.o)
 .ARM.attributes
                0x00000c5a       0x32 c:/program files (x86)/cypress/psoc creator/4.4/psoc creator/import/gnu/arm/5.4.1/bin/../lib/gcc/arm-none-eabi/5.4.1/armv7e-m/softfp/crtend.o
 .ARM.attributes
                0x00000c8c       0x22 c:/program files (x86)/cypress/psoc creator/4.4/psoc creator/import/gnu/arm/5.4.1/bin/../lib/gcc/arm-none-eabi/5.4.1/armv7e-m/softfp/crtn.o
 .ARM.attributes
                0x00000cae       0x32 c:/program files (x86)/cypress/psoc creator/4.4/psoc creator/import/gnu/arm/5.4.1/bin/../lib/gcc/arm-none-eabi/5.4.1/../../../../arm-none-eabi/lib/armv7e-m/softfp\libnosys.a(sbrk.o)
 .ARM.attributes
                0x00000ce0       0x32 c:/program files (x86)/cypress/psoc creator/4.4/psoc creator/import/gnu/arm/5.4.1/bin/../lib/gcc/arm-none-eabi/5.4.1/../../../../arm-none-eabi/lib/armv7e-m/softfp\libm.a(lib_a-s_ceil.o)
 .ARM.attributes
                0x00000d12       0x32 c:/program files (x86)/cypress/psoc creator/4.4/psoc creator/import/gnu/arm/5.4.1/bin/../lib/gcc/arm-none-eabi/5.4.1/../../../../arm-none-eabi/lib/armv7e-m/softfp\libm.a(lib_a-s_cos.o)
 .ARM.attributes
                0x00000d44       0x32 c:/program files (x86)/cypress/psoc creator/4.4/psoc creator/import/gnu/arm/5.4.1/bin/../lib/gcc/arm-none-eabi/5.4.1/../../../../arm-none-eabi/lib/armv7e-m/softfp\libm.a(lib_a-s_floor.o)
 .ARM.attributes
                0x00000d76       0x32 c:/program files (x86)/cypress/psoc creator/4.4/psoc creator/import/gnu/arm/5.4.1/bin/../lib/gcc/arm-none-eabi/5.4.1/../../../../arm-none-eabi/lib/armv7e-m/softfp\libm.a(lib_a-s_sin.o)
 .ARM.attributes
                0x00000da8       0x32 c:/program files (x86)/cypress/psoc creator/4.4/psoc creator/import/gnu/arm/5.4.1/bin/../lib/gcc/arm-none-eabi/5.4.1/../../../../arm-none-eabi/lib/armv7e-m/softfp\libm.a(lib_a-w_atan2.o)
 .ARM.attributes
                0x00000dda       0x32 c:/program files (x86)/cypress/psoc creator/4.4/psoc creator/import/gnu/arm/5.4.1/bin/../lib/gcc/arm-none-eabi/5.4.1/../../../../arm-none-eabi/lib/armv7e-m/softfp\libm.a(lib_a-w_sqrt.o)
 .ARM.attributes
                0x00000e0c       0x32 c:/program files (x86)/cypress/psoc creator/4.4/psoc creator/import/gnu/arm/5.4.1/bin/../lib/gcc/arm-none-eabi/5.4.1/../../../../arm-none-eabi/lib/armv7e-m/softfp\libm.a(lib_a-e_atan2.o)
 .ARM.attributes
                0x00000e3e       0x32 c:/program files (x86)/cypress/psoc creator/4.4/psoc creator/import/gnu/arm/5.4.1/bin/../lib/gcc/arm-none-eabi/5.4.1/../../../../arm-none-eabi/lib/armv7e-m/softfp\libm.a(lib_a-e_rem_pio2.o)
 .ARM.attributes
                0x00000e70       0x32 c:/program files (x86)/cypress/psoc creator/4.4/psoc creator/import/gnu/arm/5.4.1/bin/../lib/gcc/arm-none-eabi/5.4.1/../../../../arm-none-eabi/lib/armv7e-m/softfp\libm.a(lib_a-e_sqrt.o)
 .ARM.attributes
                0x00000ea2       0x32 c:/program files (x86)/cypress/psoc creator/4.4/psoc creator/import/gnu/arm/5.4.1/bin/../lib/gcc/arm-none-eabi/5.4.1/../../../../arm-none-eabi/lib/armv7e-m/softfp\libm.a(lib_a-k_cos.o)
 .ARM.attributes
                0x00000ed4       0x32 c:/program files (x86)/cypress/psoc creator/4.4/psoc creator/import/gnu/arm/5.4.1/bin/../lib/gcc/arm-none-eabi/5.4.1/../../../../arm-none-eabi/lib/armv7e-m/softfp\libm.a(lib_a-k_rem_pio2.o)
 .ARM.attributes
                0x00000f06       0x32 c:/program files (x86)/cypress/psoc creator/4.4/psoc creator/import/gnu/arm/5.4.1/bin/../lib/gcc/arm-none-eabi/5.4.1/../../../../arm-none-eabi/lib/armv7e-m/softfp\libm.a(lib_a-k_sin.o)
 .ARM.attributes
                0x00000f38       0x32 c:/program files (x86)/cypress/psoc creator/4.4/psoc creator/import/gnu/arm/5.4.1/bin/../lib/gcc/arm-none-eabi/5.4.1/../../../../arm-none-eabi/lib/armv7e-m/softfp\libm.a(lib_a-s_atan.o)
 .ARM.attributes
                0x00000f6a       0x32 c:/program files (x86)/cypress/psoc creator/4.4/psoc creator/import/gnu/arm/5.4.1/bin/../lib/gcc/arm-none-eabi/5.4.1/../../../../arm-none-eabi/lib/armv7e-m/softfp\libm.a(lib_a-s_fabs.o)
 .ARM.attributes
                0x00000f9c       0x32 c:/program files (x86)/cypress/psoc creator/4.4/psoc creator/import/gnu/arm/5.4.1/bin/../lib/gcc/arm-none-eabi/5.4.1/../../../../arm-none-eabi/lib/armv7e-m/softfp\libm.a(lib_a-s_lib_ver.o)
 .ARM.attributes
                0x00000fce       0x32 c:/program files (x86)/cypress/psoc creator/4.4/psoc creator/import/gnu/arm/5.4.1/bin/../lib/gcc/arm-none-eabi/5.4.1/../../../../arm-none-eabi/lib/armv7e-m/softfp\libm.a(lib_a-s_matherr.o)
 .ARM.attributes
                0x00001000       0x32 c:/program files (x86)/cypress/psoc creator/4.4/psoc creator/import/gnu/arm/5.4.1/bin/../lib/gcc/arm-none-eabi/5.4.1/../../../../arm-none-eabi/lib/armv7e-m/softfp\libm.a(lib_a-s_scalbn.o)
 .ARM.attributes
                0x00001032       0x32 c:/program files (x86)/cypress/psoc creator/4.4/psoc creator/import/gnu/arm/5.4.1/bin/../lib/gcc/arm-none-eabi/5.4.1/../../../../arm-none-eabi/lib/armv7e-m/softfp\libm.a(lib_a-s_copysign.o)
 .ARM.attributes
                0x00001064       0x32 c:/program files (x86)/cypress/psoc creator/4.4/psoc creator/import/gnu/arm/5.4.1/bin/../lib/gcc/arm-none-eabi/5.4.1/../../../../arm-none-eabi/lib/armv7e-m/softfp\libc.a(lib_a-errno.o)

.comment        0x00000000       0x6e
 .comment       0x00000000       0x6e .\CortexM4\ARM_GCC_541\Release\main_cm4.o
                                 0x6f (size before relaxing)
 .comment       0x0000006e       0x6f .\CortexM4\ARM_GCC_541\Release\system_psoc6_cm4.o
 .comment       0x0000006e       0x6f .\CortexM4\ARM_GCC_541\Release\light_sensor.o
 .comment       0x0000006e       0x6f .\CortexM4\ARM_GCC_541\Release\control.o
 .comment       0x0000006e       0x6f .\CortexM4\ARM_GCC_541\Release\encoder.o
 .comment       0x0000006e       0x6f .\CortexM4\ARM_GCC_541\Release\odometry.o
 .comment       0x0000006e       0x6f .\CortexM4\ARM_GCC_541\Release\cyfitter_sysint_cfg.o
 .comment       0x0000006e       0x6f .\CortexM4\ARM_GCC_541\Release\cymetadata.o
 .comment       0x0000006e       0x6f .\CortexM4\ARM_GCC_541\Release\UART_1.o
 .comment       0x0000006e       0x6f .\CortexM4\ARM_GCC_541\Release\cy_flash.o
 .comment       0x0000006e       0x6f .\CortexM4\ARM_GCC_541\Release\cy_ipc_drv.o
 .comment       0x0000006e       0x6f .\CortexM4\ARM_GCC_541\Release\cy_ipc_sema.o
 .comment       0x0000006e       0x6f .\CortexM4\ARM_GCC_541\Release\cy_ipc_pipe.o
 .comment       0x0000006e       0x6f .\CortexM4\ARM_GCC_541\Release\cy_scb_common.o
 .comment       0x0000006e       0x6f .\CortexM4\ARM_GCC_541\Release\cy_scb_uart.o
 .comment       0x0000006e       0x6f .\CortexM4\ARM_GCC_541\Release\cy_sysint.o
 .comment       0x0000006e       0x6f .\CortexM4\ARM_GCC_541\Release\cy_syslib.o
 .comment       0x0000006e       0x6f .\CortexM4\ARM_GCC_541\Release\cy_syspm.o
 .comment       0x0000006e       0x6f .\CortexM4\ARM_GCC_541\Release\cy_device.o
 .comment       0x0000006e       0x6f .\CortexM4\ARM_GCC_541\Release\cy_tcpwm_counter.o
 .comment       0x0000006e       0x6f .\CortexM4\ARM_GCC_541\Release\cy_tcpwm_pwm.o
 .comment       0x0000006e       0x6f .\CortexM4\ARM_GCC_541\Release\cy_sar.o
 .comment       0x0000006e       0x6f .\CortexM4\ARM_GCC_541\Release\Counter_1.o
 .comment       0x0000006e       0x6f .\CortexM4\ARM_GCC_541\Release\PWM_L.o
 .comment       0x0000006e       0x6f .\CortexM4\ARM_GCC_541\Release\PWM_R.o
 .comment       0x0000006e       0x6f .\CortexM4\ARM_GCC_541\Release\Counter_2.o
 .comment       0x0000006e       0x6f .\CortexM4\ARM_GCC_541\Release\ADC_1.o
 .comment       0x0000006e       0x6f .\CortexM4\ARM_GCC_541\Release\ADC_1_INT.o
 .comment       0x0000006e       0x6f .\CortexM4\ARM_GCC_541\Release\ADC_1_INIT.o

.debug_line     0x00000000     0x7533
 .debug_line    0x00000000       0x8e .\CortexM4\ARM_GCC_541\Release\startup_psoc6_01_cm4.o
 .debug_line    0x0000008e      0x641 .\CortexM4\ARM_GCC_541\Release\main_cm4.o
 .debug_line    0x000006cf      0x428 .\CortexM4\ARM_GCC_541\Release\system_psoc6_cm4.o
 .debug_line    0x00000af7      0x3fa .\CortexM4\ARM_GCC_541\Release\light_sensor.o
 .debug_line    0x00000ef1      0x52a .\CortexM4\ARM_GCC_541\Release\control.o
 .debug_line    0x0000141b      0x420 .\CortexM4\ARM_GCC_541\Release\encoder.o
 .debug_line    0x0000183b      0x358 .\CortexM4\ARM_GCC_541\Release\odometry.o
 .debug_line    0x00001b93      0x24f .\CortexM4\ARM_GCC_541\Release\cyfitter_sysint_cfg.o
 .debug_line    0x00001de2      0x141 .\CortexM4\ARM_GCC_541\Release\cymetadata.o
 .debug_line    0x00001f23      0x336 .\CortexM4\ARM_GCC_541\Release\UART_1.o
 .debug_line    0x00002259      0x796 .\CortexM4\ARM_GCC_541\Release\cy_flash.o
 .debug_line    0x000029ef      0x2f3 .\CortexM4\ARM_GCC_541\Release\cy_ipc_drv.o
 .debug_line    0x00002ce2      0x425 .\CortexM4\ARM_GCC_541\Release\cy_ipc_sema.o
 .debug_line    0x00003107      0x539 .\CortexM4\ARM_GCC_541\Release\cy_ipc_pipe.o
 .debug_line    0x00003640      0x4be .\CortexM4\ARM_GCC_541\Release\cy_scb_common.o
 .debug_line    0x00003afe      0x86f .\CortexM4\ARM_GCC_541\Release\cy_scb_uart.o
 .debug_line    0x0000436d      0x2ca .\CortexM4\ARM_GCC_541\Release\cy_sysint.o
 .debug_line    0x00004637      0x3e7 .\CortexM4\ARM_GCC_541\Release\cy_syslib.o
 .debug_line    0x00004a1e       0x89 .\CortexM4\ARM_GCC_541\Release\cy_syslib_gcc.o
 .debug_line    0x00004aa7      0x9c0 .\CortexM4\ARM_GCC_541\Release\cy_syspm.o
 .debug_line    0x00005467      0x17e .\CortexM4\ARM_GCC_541\Release\cy_device.o
 .debug_line    0x000055e5      0x2a3 .\CortexM4\ARM_GCC_541\Release\cy_tcpwm_counter.o
 .debug_line    0x00005888      0x2b9 .\CortexM4\ARM_GCC_541\Release\cy_tcpwm_pwm.o
 .debug_line    0x00005b41      0x5ff .\CortexM4\ARM_GCC_541\Release\cy_sar.o
 .debug_line    0x00006140      0x275 .\CortexM4\ARM_GCC_541\Release\Counter_1.o
 .debug_line    0x000063b5      0x26d .\CortexM4\ARM_GCC_541\Release\PWM_L.o
 .debug_line    0x00006622      0x26d .\CortexM4\ARM_GCC_541\Release\PWM_R.o
 .debug_line    0x0000688f      0x275 .\CortexM4\ARM_GCC_541\Release\Counter_2.o
 .debug_line    0x00006b04      0x548 .\CortexM4\ARM_GCC_541\Release\ADC_1.o
 .debug_line    0x0000704c      0x29e .\CortexM4\ARM_GCC_541\Release\ADC_1_INT.o
 .debug_line    0x000072ea      0x249 .\CortexM4\ARM_GCC_541\Release\ADC_1_INIT.o

.debug_info     0x00000000    0x1f57e
 .debug_info    0x00000000       0xab .\CortexM4\ARM_GCC_541\Release\startup_psoc6_01_cm4.o
 .debug_info    0x000000ab     0x214b .\CortexM4\ARM_GCC_541\Release\main_cm4.o
 .debug_info    0x000021f6     0x1ba3 .\CortexM4\ARM_GCC_541\Release\system_psoc6_cm4.o
 .debug_info    0x00003d99      0xf24 .\CortexM4\ARM_GCC_541\Release\light_sensor.o
 .debug_info    0x00004cbd     0x1191 .\CortexM4\ARM_GCC_541\Release\control.o
 .debug_info    0x00005e4e      0xf9a .\CortexM4\ARM_GCC_541\Release\encoder.o
 .debug_info    0x00006de8      0x993 .\CortexM4\ARM_GCC_541\Release\odometry.o
 .debug_info    0x0000777b      0x9d2 .\CortexM4\ARM_GCC_541\Release\cyfitter_sysint_cfg.o
 .debug_info    0x0000814d       0xac .\CortexM4\ARM_GCC_541\Release\cymetadata.o
 .debug_info    0x000081f9     0x1402 .\CortexM4\ARM_GCC_541\Release\UART_1.o
 .debug_info    0x000095fb     0x279e .\CortexM4\ARM_GCC_541\Release\cy_flash.o
 .debug_info    0x0000bd99      0x889 .\CortexM4\ARM_GCC_541\Release\cy_ipc_drv.o
 .debug_info    0x0000c622      0xbee .\CortexM4\ARM_GCC_541\Release\cy_ipc_sema.o
 .debug_info    0x0000d210     0x168f .\CortexM4\ARM_GCC_541\Release\cy_ipc_pipe.o
 .debug_info    0x0000e89f     0x1311 .\CortexM4\ARM_GCC_541\Release\cy_scb_common.o
 .debug_info    0x0000fbb0     0x2512 .\CortexM4\ARM_GCC_541\Release\cy_scb_uart.o
 .debug_info    0x000120c2      0xdbd .\CortexM4\ARM_GCC_541\Release\cy_sysint.o
 .debug_info    0x00012e7f     0x2424 .\CortexM4\ARM_GCC_541\Release\cy_syslib.o
 .debug_info    0x000152a3       0xd9 .\CortexM4\ARM_GCC_541\Release\cy_syslib_gcc.o
 .debug_info    0x0001537c     0x3e35 .\CortexM4\ARM_GCC_541\Release\cy_syspm.o
 .debug_info    0x000191b1      0x551 .\CortexM4\ARM_GCC_541\Release\cy_device.o
 .debug_info    0x00019702      0x43f .\CortexM4\ARM_GCC_541\Release\cy_tcpwm_counter.o
 .debug_info    0x00019b41      0x487 .\CortexM4\ARM_GCC_541\Release\cy_tcpwm_pwm.o
 .debug_info    0x00019fc8     0x16d6 .\CortexM4\ARM_GCC_541\Release\cy_sar.o
 .debug_info    0x0001b69e      0x48d .\CortexM4\ARM_GCC_541\Release\Counter_1.o
 .debug_info    0x0001bb2b      0x4d0 .\CortexM4\ARM_GCC_541\Release\PWM_L.o
 .debug_info    0x0001bffb      0x4d5 .\CortexM4\ARM_GCC_541\Release\PWM_R.o
 .debug_info    0x0001c4d0      0x48d .\CortexM4\ARM_GCC_541\Release\Counter_2.o
 .debug_info    0x0001c95d     0x1b49 .\CortexM4\ARM_GCC_541\Release\ADC_1.o
 .debug_info    0x0001e4a6      0x9c6 .\CortexM4\ARM_GCC_541\Release\ADC_1_INT.o
 .debug_info    0x0001ee6c      0x712 .\CortexM4\ARM_GCC_541\Release\ADC_1_INIT.o

.debug_abbrev   0x00000000     0x3eb6
 .debug_abbrev  0x00000000       0x14 .\CortexM4\ARM_GCC_541\Release\startup_psoc6_01_cm4.o
 .debug_abbrev  0x00000014      0x318 .\CortexM4\ARM_GCC_541\Release\main_cm4.o
 .debug_abbrev  0x0000032c      0x242 .\CortexM4\ARM_GCC_541\Release\system_psoc6_cm4.o
 .debug_abbrev  0x0000056e      0x213 .\CortexM4\ARM_GCC_541\Release\light_sensor.o
 .debug_abbrev  0x00000781      0x2f2 .\CortexM4\ARM_GCC_541\Release\control.o
 .debug_abbrev  0x00000a73      0x221 .\CortexM4\ARM_GCC_541\Release\encoder.o
 .debug_abbrev  0x00000c94      0x133 .\CortexM4\ARM_GCC_541\Release\odometry.o
 .debug_abbrev  0x00000dc7       0xe3 .\CortexM4\ARM_GCC_541\Release\cyfitter_sysint_cfg.o
 .debug_abbrev  0x00000eaa       0x5d .\CortexM4\ARM_GCC_541\Release\cymetadata.o
 .debug_abbrev  0x00000f07      0x22b .\CortexM4\ARM_GCC_541\Release\UART_1.o
 .debug_abbrev  0x00001132      0x3ce .\CortexM4\ARM_GCC_541\Release\cy_flash.o
 .debug_abbrev  0x00001500      0x187 .\CortexM4\ARM_GCC_541\Release\cy_ipc_drv.o
 .debug_abbrev  0x00001687      0x296 .\CortexM4\ARM_GCC_541\Release\cy_ipc_sema.o
 .debug_abbrev  0x0000191d      0x38c .\CortexM4\ARM_GCC_541\Release\cy_ipc_pipe.o
 .debug_abbrev  0x00001ca9      0x341 .\CortexM4\ARM_GCC_541\Release\cy_scb_common.o
 .debug_abbrev  0x00001fea      0x3bf .\CortexM4\ARM_GCC_541\Release\cy_scb_uart.o
 .debug_abbrev  0x000023a9      0x221 .\CortexM4\ARM_GCC_541\Release\cy_sysint.o
 .debug_abbrev  0x000025ca      0x301 .\CortexM4\ARM_GCC_541\Release\cy_syslib.o
 .debug_abbrev  0x000028cb       0x14 .\CortexM4\ARM_GCC_541\Release\cy_syslib_gcc.o
 .debug_abbrev  0x000028df      0x3b0 .\CortexM4\ARM_GCC_541\Release\cy_syspm.o
 .debug_abbrev  0x00002c8f       0x9d .\CortexM4\ARM_GCC_541\Release\cy_device.o
 .debug_abbrev  0x00002d2c      0x158 .\CortexM4\ARM_GCC_541\Release\cy_tcpwm_counter.o
 .debug_abbrev  0x00002e84      0x158 .\CortexM4\ARM_GCC_541\Release\cy_tcpwm_pwm.o
 .debug_abbrev  0x00002fdc      0x33d .\CortexM4\ARM_GCC_541\Release\cy_sar.o
 .debug_abbrev  0x00003319      0x15f .\CortexM4\ARM_GCC_541\Release\Counter_1.o
 .debug_abbrev  0x00003478      0x15f .\CortexM4\ARM_GCC_541\Release\PWM_L.o
 .debug_abbrev  0x000035d7      0x15f .\CortexM4\ARM_GCC_541\Release\PWM_R.o
 .debug_abbrev  0x00003736      0x15f .\CortexM4\ARM_GCC_541\Release\Counter_2.o
 .debug_abbrev  0x00003895      0x3ce .\CortexM4\ARM_GCC_541\Release\ADC_1.o
 .debug_abbrev  0x00003c63      0x158 .\CortexM4\ARM_GCC_541\Release\ADC_1_INT.o
 .debug_abbrev  0x00003dbb       0xfb .\CortexM4\ARM_GCC_541\Release\ADC_1_INIT.o

.debug_aranges  0x00000000      0x8e8
 .debug_aranges
                0x00000000       0x20 .\CortexM4\ARM_GCC_541\Release\startup_psoc6_01_cm4.o
 .debug_aranges
                0x00000020       0x40 .\CortexM4\ARM_GCC_541\Release\main_cm4.o
 .debug_aranges
                0x00000060       0x40 .\CortexM4\ARM_GCC_541\Release\system_psoc6_cm4.o
 .debug_aranges
                0x000000a0       0x28 .\CortexM4\ARM_GCC_541\Release\light_sensor.o
 .debug_aranges
                0x000000c8       0x40 .\CortexM4\ARM_GCC_541\Release\control.o
 .debug_aranges
                0x00000108       0x30 .\CortexM4\ARM_GCC_541\Release\encoder.o
 .debug_aranges
                0x00000138       0x20 .\CortexM4\ARM_GCC_541\Release\odometry.o
 .debug_aranges
                0x00000158       0x18 .\CortexM4\ARM_GCC_541\Release\cyfitter_sysint_cfg.o
 .debug_aranges
                0x00000170       0x18 .\CortexM4\ARM_GCC_541\Release\cymetadata.o
 .debug_aranges
                0x00000188       0x28 .\CortexM4\ARM_GCC_541\Release\UART_1.o
 .debug_aranges
                0x000001b0       0xc8 .\CortexM4\ARM_GCC_541\Release\cy_flash.o
 .debug_aranges
                0x00000278       0x30 .\CortexM4\ARM_GCC_541\Release\cy_ipc_drv.o
 .debug_aranges
                0x000002a8       0x48 .\CortexM4\ARM_GCC_541\Release\cy_ipc_sema.o
 .debug_aranges
                0x000002f0       0x68 .\CortexM4\ARM_GCC_541\Release\cy_ipc_pipe.o
 .debug_aranges
                0x00000358       0x68 .\CortexM4\ARM_GCC_541\Release\cy_scb_common.o
 .debug_aranges
                0x000003c0       0xb0 .\CortexM4\ARM_GCC_541\Release\cy_scb_uart.o
 .debug_aranges
                0x00000470       0x30 .\CortexM4\ARM_GCC_541\Release\cy_sysint.o
 .debug_aranges
                0x000004a0       0x70 .\CortexM4\ARM_GCC_541\Release\cy_syslib.o
 .debug_aranges
                0x00000510       0x20 .\CortexM4\ARM_GCC_541\Release\cy_syslib_gcc.o
 .debug_aranges
                0x00000530      0x138 .\CortexM4\ARM_GCC_541\Release\cy_syspm.o
 .debug_aranges
                0x00000668       0x20 .\CortexM4\ARM_GCC_541\Release\cy_device.o
 .debug_aranges
                0x00000688       0x28 .\CortexM4\ARM_GCC_541\Release\cy_tcpwm_counter.o
 .debug_aranges
                0x000006b0       0x28 .\CortexM4\ARM_GCC_541\Release\cy_tcpwm_pwm.o
 .debug_aranges
                0x000006d8       0xe0 .\CortexM4\ARM_GCC_541\Release\cy_sar.o
 .debug_aranges
                0x000007b8       0x20 .\CortexM4\ARM_GCC_541\Release\Counter_1.o
 .debug_aranges
                0x000007d8       0x20 .\CortexM4\ARM_GCC_541\Release\PWM_L.o
 .debug_aranges
                0x000007f8       0x20 .\CortexM4\ARM_GCC_541\Release\PWM_R.o
 .debug_aranges
                0x00000818       0x20 .\CortexM4\ARM_GCC_541\Release\Counter_2.o
 .debug_aranges
                0x00000838       0x78 .\CortexM4\ARM_GCC_541\Release\ADC_1.o
 .debug_aranges
                0x000008b0       0x20 .\CortexM4\ARM_GCC_541\Release\ADC_1_INT.o
 .debug_aranges
                0x000008d0       0x18 .\CortexM4\ARM_GCC_541\Release\ADC_1_INIT.o

.debug_loc      0x00000000     0x63c1
 .debug_loc     0x00000000      0x346 .\CortexM4\ARM_GCC_541\Release\main_cm4.o
 .debug_loc     0x00000346      0x251 .\CortexM4\ARM_GCC_541\Release\system_psoc6_cm4.o
 .debug_loc     0x00000597       0x97 .\CortexM4\ARM_GCC_541\Release\light_sensor.o
 .debug_loc     0x0000062e      0x29a .\CortexM4\ARM_GCC_541\Release\control.o
 .debug_loc     0x000008c8       0x7d .\CortexM4\ARM_GCC_541\Release\encoder.o
 .debug_loc     0x00000945       0x2b .\CortexM4\ARM_GCC_541\Release\UART_1.o
 .debug_loc     0x00000970      0xced .\CortexM4\ARM_GCC_541\Release\cy_flash.o
 .debug_loc     0x0000165d      0x190 .\CortexM4\ARM_GCC_541\Release\cy_ipc_drv.o
 .debug_loc     0x000017ed      0x908 .\CortexM4\ARM_GCC_541\Release\cy_ipc_sema.o
 .debug_loc     0x000020f5      0x723 .\CortexM4\ARM_GCC_541\Release\cy_ipc_pipe.o
 .debug_loc     0x00002818      0x634 .\CortexM4\ARM_GCC_541\Release\cy_scb_common.o
 .debug_loc     0x00002e4c     0x106d .\CortexM4\ARM_GCC_541\Release\cy_scb_uart.o
 .debug_loc     0x00003eb9      0x113 .\CortexM4\ARM_GCC_541\Release\cy_sysint.o
 .debug_loc     0x00003fcc      0x439 .\CortexM4\ARM_GCC_541\Release\cy_syslib.o
 .debug_loc     0x00004405      0xdb8 .\CortexM4\ARM_GCC_541\Release\cy_syspm.o
 .debug_loc     0x000051bd       0xe7 .\CortexM4\ARM_GCC_541\Release\cy_tcpwm_counter.o
 .debug_loc     0x000052a4       0xe7 .\CortexM4\ARM_GCC_541\Release\cy_tcpwm_pwm.o
 .debug_loc     0x0000538b      0xb9d .\CortexM4\ARM_GCC_541\Release\cy_sar.o
 .debug_loc     0x00005f28       0x58 .\CortexM4\ARM_GCC_541\Release\Counter_1.o
 .debug_loc     0x00005f80       0x58 .\CortexM4\ARM_GCC_541\Release\PWM_L.o
 .debug_loc     0x00005fd8       0x58 .\CortexM4\ARM_GCC_541\Release\PWM_R.o
 .debug_loc     0x00006030       0x58 .\CortexM4\ARM_GCC_541\Release\Counter_2.o
 .debug_loc     0x00006088      0x2f1 .\CortexM4\ARM_GCC_541\Release\ADC_1.o
 .debug_loc     0x00006379       0x48 .\CortexM4\ARM_GCC_541\Release\ADC_1_INT.o

.debug_ranges   0x00000000      0xbc8
 .debug_ranges  0x00000000       0x30 .\CortexM4\ARM_GCC_541\Release\main_cm4.o
 .debug_ranges  0x00000030       0x30 .\CortexM4\ARM_GCC_541\Release\system_psoc6_cm4.o
 .debug_ranges  0x00000060       0x38 .\CortexM4\ARM_GCC_541\Release\light_sensor.o
 .debug_ranges  0x00000098       0x30 .\CortexM4\ARM_GCC_541\Release\control.o
 .debug_ranges  0x000000c8       0x20 .\CortexM4\ARM_GCC_541\Release\encoder.o
 .debug_ranges  0x000000e8       0x10 .\CortexM4\ARM_GCC_541\Release\odometry.o
 .debug_ranges  0x000000f8       0x18 .\CortexM4\ARM_GCC_541\Release\UART_1.o
 .debug_ranges  0x00000110       0xe8 .\CortexM4\ARM_GCC_541\Release\cy_flash.o
 .debug_ranges  0x000001f8       0x38 .\CortexM4\ARM_GCC_541\Release\cy_ipc_drv.o
 .debug_ranges  0x00000230       0x50 .\CortexM4\ARM_GCC_541\Release\cy_ipc_sema.o
 .debug_ranges  0x00000280       0xc0 .\CortexM4\ARM_GCC_541\Release\cy_ipc_pipe.o
 .debug_ranges  0x00000340       0xe8 .\CortexM4\ARM_GCC_541\Release\cy_scb_common.o
 .debug_ranges  0x00000428      0x260 .\CortexM4\ARM_GCC_541\Release\cy_scb_uart.o
 .debug_ranges  0x00000688       0x20 .\CortexM4\ARM_GCC_541\Release\cy_sysint.o
 .debug_ranges  0x000006a8       0x60 .\CortexM4\ARM_GCC_541\Release\cy_syslib.o
 .debug_ranges  0x00000708      0x260 .\CortexM4\ARM_GCC_541\Release\cy_syspm.o
 .debug_ranges  0x00000968       0x10 .\CortexM4\ARM_GCC_541\Release\cy_device.o
 .debug_ranges  0x00000978       0x18 .\CortexM4\ARM_GCC_541\Release\cy_tcpwm_counter.o
 .debug_ranges  0x00000990       0x18 .\CortexM4\ARM_GCC_541\Release\cy_tcpwm_pwm.o
 .debug_ranges  0x000009a8       0xd0 .\CortexM4\ARM_GCC_541\Release\cy_sar.o
 .debug_ranges  0x00000a78       0x10 .\CortexM4\ARM_GCC_541\Release\Counter_1.o
 .debug_ranges  0x00000a88       0x10 .\CortexM4\ARM_GCC_541\Release\PWM_L.o
 .debug_ranges  0x00000a98       0x10 .\CortexM4\ARM_GCC_541\Release\PWM_R.o
 .debug_ranges  0x00000aa8       0x10 .\CortexM4\ARM_GCC_541\Release\Counter_2.o
 .debug_ranges  0x00000ab8      0x100 .\CortexM4\ARM_GCC_541\Release\ADC_1.o
 .debug_ranges  0x00000bb8       0x10 .\CortexM4\ARM_GCC_541\Release\ADC_1_INT.o

.debug_str      0x00000000     0x7f70
 .debug_str     0x00000000     0x22cf .\CortexM4\ARM_GCC_541\Release\main_cm4.o
                               0x23a3 (size before relaxing)
 .debug_str     0x000022cf      0xafd .\CortexM4\ARM_GCC_541\Release\system_psoc6_cm4.o
                               0x23ef (size before relaxing)
 .debug_str     0x00002dcc      0x31e .\CortexM4\ARM_GCC_541\Release\light_sensor.o
                                0xeeb (size before relaxing)
 .debug_str     0x000030ea       0x97 .\CortexM4\ARM_GCC_541\Release\control.o
                                0xe70 (size before relaxing)
 .debug_str     0x00003181       0x6e .\CortexM4\ARM_GCC_541\Release\encoder.o
                               0x1c6b (size before relaxing)
 .debug_str     0x000031ef       0x10 .\CortexM4\ARM_GCC_541\Release\odometry.o
                                0xb24 (size before relaxing)
 .debug_str     0x000031ff       0x75 .\CortexM4\ARM_GCC_541\Release\cyfitter_sysint_cfg.o
                               0x184b (size before relaxing)
 .debug_str     0x00003274       0x30 .\CortexM4\ARM_GCC_541\Release\cymetadata.o
                                0x1ea (size before relaxing)
 .debug_str     0x000032a4      0x3ff .\CortexM4\ARM_GCC_541\Release\UART_1.o
                               0x2046 (size before relaxing)
 .debug_str     0x000036a3     0x107a .\CortexM4\ARM_GCC_541\Release\cy_flash.o
                               0x2dcb (size before relaxing)
 .debug_str     0x0000471d       0xfd .\CortexM4\ARM_GCC_541\Release\cy_ipc_drv.o
                                0x98d (size before relaxing)
 .debug_str     0x0000481a       0xed .\CortexM4\ARM_GCC_541\Release\cy_ipc_sema.o
                                0xb7a (size before relaxing)
 .debug_str     0x00004907      0x318 .\CortexM4\ARM_GCC_541\Release\cy_ipc_pipe.o
                               0x209c (size before relaxing)
 .debug_str     0x00004c1f      0x1d7 .\CortexM4\ARM_GCC_541\Release\cy_scb_common.o
                                0xce9 (size before relaxing)
 .debug_str     0x00004df6      0x631 .\CortexM4\ARM_GCC_541\Release\cy_scb_uart.o
                               0x16f3 (size before relaxing)
 .debug_str     0x00005427       0xf0 .\CortexM4\ARM_GCC_541\Release\cy_sysint.o
                               0x196d (size before relaxing)
 .debug_str     0x00005517      0xa55 .\CortexM4\ARM_GCC_541\Release\cy_syslib.o
                               0x1c3d (size before relaxing)
 .debug_str     0x00005f6c     0x117e .\CortexM4\ARM_GCC_541\Release\cy_syspm.o
                               0x2b36 (size before relaxing)
 .debug_str     0x000070ea       0x5d .\CortexM4\ARM_GCC_541\Release\cy_device.o
                                0x7f8 (size before relaxing)
 .debug_str     0x00007147       0xae .\CortexM4\ARM_GCC_541\Release\cy_tcpwm_counter.o
                                0x4ed (size before relaxing)
 .debug_str     0x000071f5       0x69 .\CortexM4\ARM_GCC_541\Release\cy_tcpwm_pwm.o
                                0x515 (size before relaxing)
 .debug_str     0x0000725e      0x819 .\CortexM4\ARM_GCC_541\Release\cy_sar.o
                               0x1410 (size before relaxing)
 .debug_str     0x00007a77       0x6d .\CortexM4\ARM_GCC_541\Release\Counter_1.o
                                0x4e0 (size before relaxing)
 .debug_str     0x00007ae4       0x2d .\CortexM4\ARM_GCC_541\Release\PWM_L.o
                                0x500 (size before relaxing)
 .debug_str     0x00007b11       0x2d .\CortexM4\ARM_GCC_541\Release\PWM_R.o
                                0x500 (size before relaxing)
 .debug_str     0x00007b3e       0x35 .\CortexM4\ARM_GCC_541\Release\Counter_2.o
                                0x4e0 (size before relaxing)
 .debug_str     0x00007b73      0x386 .\CortexM4\ARM_GCC_541\Release\ADC_1.o
                               0x22a6 (size before relaxing)
 .debug_str     0x00007ef9       0x43 .\CortexM4\ARM_GCC_541\Release\ADC_1_INT.o
                                0xaac (size before relaxing)
 .debug_str     0x00007f3c       0x34 .\CortexM4\ARM_GCC_541\Release\ADC_1_INIT.o
                                0x97f (size before relaxing)

.debug_frame    0x00000000     0x2198
 .debug_frame   0x00000000       0xa8 .\CortexM4\ARM_GCC_541\Release\main_cm4.o
 .debug_frame   0x000000a8       0x8c .\CortexM4\ARM_GCC_541\Release\system_psoc6_cm4.o
 .debug_frame   0x00000134       0x4c .\CortexM4\ARM_GCC_541\Release\light_sensor.o
 .debug_frame   0x00000180       0xe8 .\CortexM4\ARM_GCC_541\Release\control.o
 .debug_frame   0x00000268       0x7c .\CortexM4\ARM_GCC_541\Release\encoder.o
 .debug_frame   0x000002e4       0x68 .\CortexM4\ARM_GCC_541\Release\odometry.o
 .debug_frame   0x0000034c       0x3c .\CortexM4\ARM_GCC_541\Release\UART_1.o
 .debug_frame   0x00000388      0x2dc .\CortexM4\ARM_GCC_541\Release\cy_flash.o
 .debug_frame   0x00000664       0x40 .\CortexM4\ARM_GCC_541\Release\cy_ipc_drv.o
 .debug_frame   0x000006a4       0xcc .\CortexM4\ARM_GCC_541\Release\cy_ipc_sema.o
 .debug_frame   0x00000770      0x110 .\CortexM4\ARM_GCC_541\Release\cy_ipc_pipe.o
 .debug_frame   0x00000880      0x110 .\CortexM4\ARM_GCC_541\Release\cy_scb_common.o
 .debug_frame   0x00000990      0x1d4 .\CortexM4\ARM_GCC_541\Release\cy_scb_uart.o
 .debug_frame   0x00000b64       0x4c .\CortexM4\ARM_GCC_541\Release\cy_sysint.o
 .debug_frame   0x00000bb0      0x10c .\CortexM4\ARM_GCC_541\Release\cy_syslib.o
 .debug_frame   0x00000cbc      0x3e8 .\CortexM4\ARM_GCC_541\Release\cy_syspm.o
 .debug_frame   0x000010a4       0x20 .\CortexM4\ARM_GCC_541\Release\cy_device.o
 .debug_frame   0x000010c4       0x4c .\CortexM4\ARM_GCC_541\Release\cy_tcpwm_counter.o
 .debug_frame   0x00001110       0x50 .\CortexM4\ARM_GCC_541\Release\cy_tcpwm_pwm.o
 .debug_frame   0x00001160      0x248 .\CortexM4\ARM_GCC_541\Release\cy_sar.o
 .debug_frame   0x000013a8       0x2c .\CortexM4\ARM_GCC_541\Release\Counter_1.o
 .debug_frame   0x000013d4       0x2c .\CortexM4\ARM_GCC_541\Release\PWM_L.o
 .debug_frame   0x00001400       0x2c .\CortexM4\ARM_GCC_541\Release\PWM_R.o
 .debug_frame   0x0000142c       0x2c .\CortexM4\ARM_GCC_541\Release\Counter_2.o
 .debug_frame   0x00001458      0x14c .\CortexM4\ARM_GCC_541\Release\ADC_1.o
 .debug_frame   0x000015a4       0x20 .\CortexM4\ARM_GCC_541\Release\ADC_1_INT.o
 .debug_frame   0x000015c4       0x44 c:/program files (x86)/cypress/psoc creator/4.4/psoc creator/import/gnu/arm/5.4.1/bin/../lib/gcc/arm-none-eabi/5.4.1/armv7e-m/softfp\libgcc.a(_aeabi_ldivmod.o)
 .debug_frame   0x00001608       0x34 c:/program files (x86)/cypress/psoc creator/4.4/psoc creator/import/gnu/arm/5.4.1/bin/../lib/gcc/arm-none-eabi/5.4.1/armv7e-m/softfp\libgcc.a(_udivmoddi4.o)
 .debug_frame   0x0000163c       0x20 c:/program files (x86)/cypress/psoc creator/4.4/psoc creator/import/gnu/arm/5.4.1/bin/../lib/gcc/arm-none-eabi/5.4.1/../../../../arm-none-eabi/lib/armv7e-m/softfp\libg_nano.a(lib_a-memset.o)
 .debug_frame   0x0000165c       0x8c c:/program files (x86)/cypress/psoc creator/4.4/psoc creator/import/gnu/arm/5.4.1/bin/../lib/gcc/arm-none-eabi/5.4.1/../../../../arm-none-eabi/lib/armv7e-m/softfp\libg_nano.a(lib_a-nano-vfprintf_float.o)
 .debug_frame   0x000016e8       0x60 c:/program files (x86)/cypress/psoc creator/4.4/psoc creator/import/gnu/arm/5.4.1/bin/../lib/gcc/arm-none-eabi/5.4.1/../../../../arm-none-eabi/lib/armv7e-m/softfp\libg_nano.a(lib_a-nano-vfprintf_i.o)
 .debug_frame   0x00001748       0x74 c:/program files (x86)/cypress/psoc creator/4.4/psoc creator/import/gnu/arm/5.4.1/bin/../lib/gcc/arm-none-eabi/5.4.1/../../../../arm-none-eabi/lib/armv7e-m/softfp\libg_nano.a(lib_a-snprintf.o)
 .debug_frame   0x000017bc       0x6c c:/program files (x86)/cypress/psoc creator/4.4/psoc creator/import/gnu/arm/5.4.1/bin/../lib/gcc/arm-none-eabi/5.4.1/../../../../arm-none-eabi/lib/armv7e-m/softfp\libg_nano.a(lib_a-dtoa.o)
 .debug_frame   0x00001828       0x98 c:/program files (x86)/cypress/psoc creator/4.4/psoc creator/import/gnu/arm/5.4.1/bin/../lib/gcc/arm-none-eabi/5.4.1/../../../../arm-none-eabi/lib/armv7e-m/softfp\libg_nano.a(lib_a-locale.o)
 .debug_frame   0x000018c0       0x30 c:/program files (x86)/cypress/psoc creator/4.4/psoc creator/import/gnu/arm/5.4.1/bin/../lib/gcc/arm-none-eabi/5.4.1/../../../../arm-none-eabi/lib/armv7e-m/softfp\libg_nano.a(lib_a-malloc.o)
 .debug_frame   0x000018f0       0x28 c:/program files (x86)/cypress/psoc creator/4.4/psoc creator/import/gnu/arm/5.4.1/bin/../lib/gcc/arm-none-eabi/5.4.1/../../../../arm-none-eabi/lib/armv7e-m/softfp\libg_nano.a(lib_a-memcpy-stub.o)
 .debug_frame   0x00001918      0x234 c:/program files (x86)/cypress/psoc creator/4.4/psoc creator/import/gnu/arm/5.4.1/bin/../lib/gcc/arm-none-eabi/5.4.1/../../../../arm-none-eabi/lib/armv7e-m/softfp\libg_nano.a(lib_a-mprec.o)
 .debug_frame   0x00001b4c       0x2c c:/program files (x86)/cypress/psoc creator/4.4/psoc creator/import/gnu/arm/5.4.1/bin/../lib/gcc/arm-none-eabi/5.4.1/../../../../arm-none-eabi/lib/armv7e-m/softfp\libg_nano.a(lib_a-nano-callocr.o)
 .debug_frame   0x00001b78       0x38 c:/program files (x86)/cypress/psoc creator/4.4/psoc creator/import/gnu/arm/5.4.1/bin/../lib/gcc/arm-none-eabi/5.4.1/../../../../arm-none-eabi/lib/armv7e-m/softfp\libg_nano.a(lib_a-nano-freer.o)
 .debug_frame   0x00001bb0       0x2c c:/program files (x86)/cypress/psoc creator/4.4/psoc creator/import/gnu/arm/5.4.1/bin/../lib/gcc/arm-none-eabi/5.4.1/../../../../arm-none-eabi/lib/armv7e-m/softfp\libg_nano.a(lib_a-nano-mallocr.o)
 .debug_frame   0x00001bdc       0x90 c:/program files (x86)/cypress/psoc creator/4.4/psoc creator/import/gnu/arm/5.4.1/bin/../lib/gcc/arm-none-eabi/5.4.1/../../../../arm-none-eabi/lib/armv7e-m/softfp\libg_nano.a(lib_a-nano-svfprintf.o)
 .debug_frame   0x00001c6c       0x2c c:/program files (x86)/cypress/psoc creator/4.4/psoc creator/import/gnu/arm/5.4.1/bin/../lib/gcc/arm-none-eabi/5.4.1/../../../../arm-none-eabi/lib/armv7e-m/softfp\libg_nano.a(lib_a-sbrkr.o)
 .debug_frame   0x00001c98       0x28 c:/program files (x86)/cypress/psoc creator/4.4/psoc creator/import/gnu/arm/5.4.1/bin/../lib/gcc/arm-none-eabi/5.4.1/../../../../arm-none-eabi/lib/armv7e-m/softfp\libg_nano.a(lib_a-memmove.o)
 .debug_frame   0x00001cc0       0x30 c:/program files (x86)/cypress/psoc creator/4.4/psoc creator/import/gnu/arm/5.4.1/bin/../lib/gcc/arm-none-eabi/5.4.1/../../../../arm-none-eabi/lib/armv7e-m/softfp\libg_nano.a(lib_a-mlock.o)
 .debug_frame   0x00001cf0       0x3c c:/program files (x86)/cypress/psoc creator/4.4/psoc creator/import/gnu/arm/5.4.1/bin/../lib/gcc/arm-none-eabi/5.4.1/../../../../arm-none-eabi/lib/armv7e-m/softfp\libg_nano.a(lib_a-nano-reallocr.o)
 .debug_frame   0x00001d2c       0x5c c:/program files (x86)/cypress/psoc creator/4.4/psoc creator/import/gnu/arm/5.4.1/bin/../lib/gcc/arm-none-eabi/5.4.1/../../../../arm-none-eabi/lib/armv7e-m/softfp\libg_nano.a(lib_a-reent.o)
 .debug_frame   0x00001d88       0x20 c:/program files (x86)/cypress/psoc creator/4.4/psoc creator/import/gnu/arm/5.4.1/bin/../lib/gcc/arm-none-eabi/5.4.1/../../../../arm-none-eabi/lib/armv7e-m/softfp\libg_nano.a(lib_a-nano-msizer.o)
 .debug_frame   0x00001da8       0x20 c:/program files (x86)/cypress/psoc creator/4.4/psoc creator/import/gnu/arm/5.4.1/bin/../lib/gcc/arm-none-eabi/5.4.1/../../../../arm-none-eabi/lib/armv7e-m/softfp\libnosys.a(sbrk.o)
 .debug_frame   0x00001dc8       0x30 c:/program files (x86)/cypress/psoc creator/4.4/psoc creator/import/gnu/arm/5.4.1/bin/../lib/gcc/arm-none-eabi/5.4.1/../../../../arm-none-eabi/lib/armv7e-m/softfp\libm.a(lib_a-s_ceil.o)
 .debug_frame   0x00001df8       0x40 c:/program files (x86)/cypress/psoc creator/4.4/psoc creator/import/gnu/arm/5.4.1/bin/../lib/gcc/arm-none-eabi/5.4.1/../../../../arm-none-eabi/lib/armv7e-m/softfp\libm.a(lib_a-s_cos.o)
 .debug_frame   0x00001e38       0x30 c:/program files (x86)/cypress/psoc creator/4.4/psoc creator/import/gnu/arm/5.4.1/bin/../lib/gcc/arm-none-eabi/5.4.1/../../../../arm-none-eabi/lib/armv7e-m/softfp\libm.a(lib_a-s_floor.o)
 .debug_frame   0x00001e68       0x40 c:/program files (x86)/cypress/psoc creator/4.4/psoc creator/import/gnu/arm/5.4.1/bin/../lib/gcc/arm-none-eabi/5.4.1/../../../../arm-none-eabi/lib/armv7e-m/softfp\libm.a(lib_a-s_sin.o)
 .debug_frame   0x00001ea8       0x20 c:/program files (x86)/cypress/psoc creator/4.4/psoc creator/import/gnu/arm/5.4.1/bin/../lib/gcc/arm-none-eabi/5.4.1/../../../../arm-none-eabi/lib/armv7e-m/softfp\libm.a(lib_a-w_atan2.o)
 .debug_frame   0x00001ec8       0x44 c:/program files (x86)/cypress/psoc creator/4.4/psoc creator/import/gnu/arm/5.4.1/bin/../lib/gcc/arm-none-eabi/5.4.1/../../../../arm-none-eabi/lib/armv7e-m/softfp\libm.a(lib_a-w_sqrt.o)
 .debug_frame   0x00001f0c       0x48 c:/program files (x86)/cypress/psoc creator/4.4/psoc creator/import/gnu/arm/5.4.1/bin/../lib/gcc/arm-none-eabi/5.4.1/../../../../arm-none-eabi/lib/armv7e-m/softfp\libm.a(lib_a-e_atan2.o)
 .debug_frame   0x00001f54       0x48 c:/program files (x86)/cypress/psoc creator/4.4/psoc creator/import/gnu/arm/5.4.1/bin/../lib/gcc/arm-none-eabi/5.4.1/../../../../arm-none-eabi/lib/armv7e-m/softfp\libm.a(lib_a-e_rem_pio2.o)
 .debug_frame   0x00001f9c       0x30 c:/program files (x86)/cypress/psoc creator/4.4/psoc creator/import/gnu/arm/5.4.1/bin/../lib/gcc/arm-none-eabi/5.4.1/../../../../arm-none-eabi/lib/armv7e-m/softfp\libm.a(lib_a-e_sqrt.o)
 .debug_frame   0x00001fcc       0x4c c:/program files (x86)/cypress/psoc creator/4.4/psoc creator/import/gnu/arm/5.4.1/bin/../lib/gcc/arm-none-eabi/5.4.1/../../../../arm-none-eabi/lib/armv7e-m/softfp\libm.a(lib_a-k_cos.o)
 .debug_frame   0x00002018       0x50 c:/program files (x86)/cypress/psoc creator/4.4/psoc creator/import/gnu/arm/5.4.1/bin/../lib/gcc/arm-none-eabi/5.4.1/../../../../arm-none-eabi/lib/armv7e-m/softfp\libm.a(lib_a-k_rem_pio2.o)
 .debug_frame   0x00002068       0x48 c:/program files (x86)/cypress/psoc creator/4.4/psoc creator/import/gnu/arm/5.4.1/bin/../lib/gcc/arm-none-eabi/5.4.1/../../../../arm-none-eabi/lib/armv7e-m/softfp\libm.a(lib_a-k_sin.o)
 .debug_frame   0x000020b0       0x38 c:/program files (x86)/cypress/psoc creator/4.4/psoc creator/import/gnu/arm/5.4.1/bin/../lib/gcc/arm-none-eabi/5.4.1/../../../../arm-none-eabi/lib/armv7e-m/softfp\libm.a(lib_a-s_atan.o)
 .debug_frame   0x000020e8       0x20 c:/program files (x86)/cypress/psoc creator/4.4/psoc creator/import/gnu/arm/5.4.1/bin/../lib/gcc/arm-none-eabi/5.4.1/../../../../arm-none-eabi/lib/armv7e-m/softfp\libm.a(lib_a-s_fabs.o)
 .debug_frame   0x00002108       0x20 c:/program files (x86)/cypress/psoc creator/4.4/psoc creator/import/gnu/arm/5.4.1/bin/../lib/gcc/arm-none-eabi/5.4.1/../../../../arm-none-eabi/lib/armv7e-m/softfp\libm.a(lib_a-s_matherr.o)
 .debug_frame   0x00002128       0x30 c:/program files (x86)/cypress/psoc creator/4.4/psoc creator/import/gnu/arm/5.4.1/bin/../lib/gcc/arm-none-eabi/5.4.1/../../../../arm-none-eabi/lib/armv7e-m/softfp\libm.a(lib_a-s_scalbn.o)
 .debug_frame   0x00002158       0x20 c:/program files (x86)/cypress/psoc creator/4.4/psoc creator/import/gnu/arm/5.4.1/bin/../lib/gcc/arm-none-eabi/5.4.1/../../../../arm-none-eabi/lib/armv7e-m/softfp\libm.a(lib_a-s_copysign.o)
 .debug_frame   0x00002178       0x20 c:/program files (x86)/cypress/psoc creator/4.4/psoc creator/import/gnu/arm/5.4.1/bin/../lib/gcc/arm-none-eabi/5.4.1/../../../../arm-none-eabi/lib/armv7e-m/softfp\libc.a(lib_a-errno.o)
